
DDS_Generator.elf:     file format elf32-littlearm

Sections:
Idx Name          Size      VMA       LMA       File off  Algn
  0 .isr_vector   000000b8  08000000  08000000  00010000  2**0
                  CONTENTS, ALLOC, LOAD, READONLY, DATA
  1 .text         0000617c  080000b8  080000b8  000100b8  2**2
                  CONTENTS, ALLOC, LOAD, READONLY, CODE
  2 .rodata       00001728  08006238  08006238  00016238  2**3
                  CONTENTS, ALLOC, LOAD, READONLY, DATA
  3 .ARM.extab    00000000  08007960  08007960  00020030  2**0
                  CONTENTS
  4 .ARM          00000008  08007960  08007960  00017960  2**2
                  CONTENTS, ALLOC, LOAD, READONLY, DATA
  5 .preinit_array 00000000  08007968  08007968  00020030  2**0
                  CONTENTS, ALLOC, LOAD, DATA
  6 .init_array   00000004  08007968  08007968  00017968  2**2
                  CONTENTS, ALLOC, LOAD, DATA
  7 .fini_array   00000004  0800796c  0800796c  0001796c  2**2
                  CONTENTS, ALLOC, LOAD, DATA
  8 .data         00000030  20000000  08007970  00020000  2**2
                  CONTENTS, ALLOC, LOAD, DATA
  9 .bss          000001a8  20000030  080079a0  00020030  2**2
                  ALLOC
 10 ._user_heap_stack 00000600  200001d8  080079a0  000201d8  2**0
                  ALLOC
 11 .ARM.attributes 00000028  00000000  00000000  00020030  2**0
                  CONTENTS, READONLY
 12 .comment      00000053  00000000  00000000  00020058  2**0
                  CONTENTS, READONLY
 13 .debug_frame  000004a4  00000000  00000000  000200ac  2**2
                  CONTENTS, READONLY, DEBUGGING, OCTETS

Disassembly of section .text:

080000b8 <__do_global_dtors_aux>:
 80000b8:	b510      	push	{r4, lr}
 80000ba:	4c06      	ldr	r4, [pc, #24]	; (80000d4 <__do_global_dtors_aux+0x1c>)
 80000bc:	7823      	ldrb	r3, [r4, #0]
 80000be:	2b00      	cmp	r3, #0
 80000c0:	d107      	bne.n	80000d2 <__do_global_dtors_aux+0x1a>
 80000c2:	4b05      	ldr	r3, [pc, #20]	; (80000d8 <__do_global_dtors_aux+0x20>)
 80000c4:	2b00      	cmp	r3, #0
 80000c6:	d002      	beq.n	80000ce <__do_global_dtors_aux+0x16>
 80000c8:	4804      	ldr	r0, [pc, #16]	; (80000dc <__do_global_dtors_aux+0x24>)
 80000ca:	e000      	b.n	80000ce <__do_global_dtors_aux+0x16>
 80000cc:	bf00      	nop
 80000ce:	2301      	movs	r3, #1
 80000d0:	7023      	strb	r3, [r4, #0]
 80000d2:	bd10      	pop	{r4, pc}
 80000d4:	20000030 	.word	0x20000030
 80000d8:	00000000 	.word	0x00000000
 80000dc:	0800621c 	.word	0x0800621c

080000e0 <frame_dummy>:
 80000e0:	4b04      	ldr	r3, [pc, #16]	; (80000f4 <frame_dummy+0x14>)
 80000e2:	b510      	push	{r4, lr}
 80000e4:	2b00      	cmp	r3, #0
 80000e6:	d003      	beq.n	80000f0 <frame_dummy+0x10>
 80000e8:	4903      	ldr	r1, [pc, #12]	; (80000f8 <frame_dummy+0x18>)
 80000ea:	4804      	ldr	r0, [pc, #16]	; (80000fc <frame_dummy+0x1c>)
 80000ec:	e000      	b.n	80000f0 <frame_dummy+0x10>
 80000ee:	bf00      	nop
 80000f0:	bd10      	pop	{r4, pc}
 80000f2:	46c0      	nop			; (mov r8, r8)
 80000f4:	00000000 	.word	0x00000000
 80000f8:	20000034 	.word	0x20000034
 80000fc:	0800621c 	.word	0x0800621c

08000100 <__gnu_thumb1_case_shi>:
 8000100:	b403      	push	{r0, r1}
 8000102:	4671      	mov	r1, lr
 8000104:	0849      	lsrs	r1, r1, #1
 8000106:	0040      	lsls	r0, r0, #1
 8000108:	0049      	lsls	r1, r1, #1
 800010a:	5e09      	ldrsh	r1, [r1, r0]
 800010c:	0049      	lsls	r1, r1, #1
 800010e:	448e      	add	lr, r1
 8000110:	bc03      	pop	{r0, r1}
 8000112:	4770      	bx	lr

08000114 <__udivsi3>:
 8000114:	2200      	movs	r2, #0
 8000116:	0843      	lsrs	r3, r0, #1
 8000118:	428b      	cmp	r3, r1
 800011a:	d374      	bcc.n	8000206 <__udivsi3+0xf2>
 800011c:	0903      	lsrs	r3, r0, #4
 800011e:	428b      	cmp	r3, r1
 8000120:	d35f      	bcc.n	80001e2 <__udivsi3+0xce>
 8000122:	0a03      	lsrs	r3, r0, #8
 8000124:	428b      	cmp	r3, r1
 8000126:	d344      	bcc.n	80001b2 <__udivsi3+0x9e>
 8000128:	0b03      	lsrs	r3, r0, #12
 800012a:	428b      	cmp	r3, r1
 800012c:	d328      	bcc.n	8000180 <__udivsi3+0x6c>
 800012e:	0c03      	lsrs	r3, r0, #16
 8000130:	428b      	cmp	r3, r1
 8000132:	d30d      	bcc.n	8000150 <__udivsi3+0x3c>
 8000134:	22ff      	movs	r2, #255	; 0xff
 8000136:	0209      	lsls	r1, r1, #8
 8000138:	ba12      	rev	r2, r2
 800013a:	0c03      	lsrs	r3, r0, #16
 800013c:	428b      	cmp	r3, r1
 800013e:	d302      	bcc.n	8000146 <__udivsi3+0x32>
 8000140:	1212      	asrs	r2, r2, #8
 8000142:	0209      	lsls	r1, r1, #8
 8000144:	d065      	beq.n	8000212 <__udivsi3+0xfe>
 8000146:	0b03      	lsrs	r3, r0, #12
 8000148:	428b      	cmp	r3, r1
 800014a:	d319      	bcc.n	8000180 <__udivsi3+0x6c>
 800014c:	e000      	b.n	8000150 <__udivsi3+0x3c>
 800014e:	0a09      	lsrs	r1, r1, #8
 8000150:	0bc3      	lsrs	r3, r0, #15
 8000152:	428b      	cmp	r3, r1
 8000154:	d301      	bcc.n	800015a <__udivsi3+0x46>
 8000156:	03cb      	lsls	r3, r1, #15
 8000158:	1ac0      	subs	r0, r0, r3
 800015a:	4152      	adcs	r2, r2
 800015c:	0b83      	lsrs	r3, r0, #14
 800015e:	428b      	cmp	r3, r1
 8000160:	d301      	bcc.n	8000166 <__udivsi3+0x52>
 8000162:	038b      	lsls	r3, r1, #14
 8000164:	1ac0      	subs	r0, r0, r3
 8000166:	4152      	adcs	r2, r2
 8000168:	0b43      	lsrs	r3, r0, #13
 800016a:	428b      	cmp	r3, r1
 800016c:	d301      	bcc.n	8000172 <__udivsi3+0x5e>
 800016e:	034b      	lsls	r3, r1, #13
 8000170:	1ac0      	subs	r0, r0, r3
 8000172:	4152      	adcs	r2, r2
 8000174:	0b03      	lsrs	r3, r0, #12
 8000176:	428b      	cmp	r3, r1
 8000178:	d301      	bcc.n	800017e <__udivsi3+0x6a>
 800017a:	030b      	lsls	r3, r1, #12
 800017c:	1ac0      	subs	r0, r0, r3
 800017e:	4152      	adcs	r2, r2
 8000180:	0ac3      	lsrs	r3, r0, #11
 8000182:	428b      	cmp	r3, r1
 8000184:	d301      	bcc.n	800018a <__udivsi3+0x76>
 8000186:	02cb      	lsls	r3, r1, #11
 8000188:	1ac0      	subs	r0, r0, r3
 800018a:	4152      	adcs	r2, r2
 800018c:	0a83      	lsrs	r3, r0, #10
 800018e:	428b      	cmp	r3, r1
 8000190:	d301      	bcc.n	8000196 <__udivsi3+0x82>
 8000192:	028b      	lsls	r3, r1, #10
 8000194:	1ac0      	subs	r0, r0, r3
 8000196:	4152      	adcs	r2, r2
 8000198:	0a43      	lsrs	r3, r0, #9
 800019a:	428b      	cmp	r3, r1
 800019c:	d301      	bcc.n	80001a2 <__udivsi3+0x8e>
 800019e:	024b      	lsls	r3, r1, #9
 80001a0:	1ac0      	subs	r0, r0, r3
 80001a2:	4152      	adcs	r2, r2
 80001a4:	0a03      	lsrs	r3, r0, #8
 80001a6:	428b      	cmp	r3, r1
 80001a8:	d301      	bcc.n	80001ae <__udivsi3+0x9a>
 80001aa:	020b      	lsls	r3, r1, #8
 80001ac:	1ac0      	subs	r0, r0, r3
 80001ae:	4152      	adcs	r2, r2
 80001b0:	d2cd      	bcs.n	800014e <__udivsi3+0x3a>
 80001b2:	09c3      	lsrs	r3, r0, #7
 80001b4:	428b      	cmp	r3, r1
 80001b6:	d301      	bcc.n	80001bc <__udivsi3+0xa8>
 80001b8:	01cb      	lsls	r3, r1, #7
 80001ba:	1ac0      	subs	r0, r0, r3
 80001bc:	4152      	adcs	r2, r2
 80001be:	0983      	lsrs	r3, r0, #6
 80001c0:	428b      	cmp	r3, r1
 80001c2:	d301      	bcc.n	80001c8 <__udivsi3+0xb4>
 80001c4:	018b      	lsls	r3, r1, #6
 80001c6:	1ac0      	subs	r0, r0, r3
 80001c8:	4152      	adcs	r2, r2
 80001ca:	0943      	lsrs	r3, r0, #5
 80001cc:	428b      	cmp	r3, r1
 80001ce:	d301      	bcc.n	80001d4 <__udivsi3+0xc0>
 80001d0:	014b      	lsls	r3, r1, #5
 80001d2:	1ac0      	subs	r0, r0, r3
 80001d4:	4152      	adcs	r2, r2
 80001d6:	0903      	lsrs	r3, r0, #4
 80001d8:	428b      	cmp	r3, r1
 80001da:	d301      	bcc.n	80001e0 <__udivsi3+0xcc>
 80001dc:	010b      	lsls	r3, r1, #4
 80001de:	1ac0      	subs	r0, r0, r3
 80001e0:	4152      	adcs	r2, r2
 80001e2:	08c3      	lsrs	r3, r0, #3
 80001e4:	428b      	cmp	r3, r1
 80001e6:	d301      	bcc.n	80001ec <__udivsi3+0xd8>
 80001e8:	00cb      	lsls	r3, r1, #3
 80001ea:	1ac0      	subs	r0, r0, r3
 80001ec:	4152      	adcs	r2, r2
 80001ee:	0883      	lsrs	r3, r0, #2
 80001f0:	428b      	cmp	r3, r1
 80001f2:	d301      	bcc.n	80001f8 <__udivsi3+0xe4>
 80001f4:	008b      	lsls	r3, r1, #2
 80001f6:	1ac0      	subs	r0, r0, r3
 80001f8:	4152      	adcs	r2, r2
 80001fa:	0843      	lsrs	r3, r0, #1
 80001fc:	428b      	cmp	r3, r1
 80001fe:	d301      	bcc.n	8000204 <__udivsi3+0xf0>
 8000200:	004b      	lsls	r3, r1, #1
 8000202:	1ac0      	subs	r0, r0, r3
 8000204:	4152      	adcs	r2, r2
 8000206:	1a41      	subs	r1, r0, r1
 8000208:	d200      	bcs.n	800020c <__udivsi3+0xf8>
 800020a:	4601      	mov	r1, r0
 800020c:	4152      	adcs	r2, r2
 800020e:	4610      	mov	r0, r2
 8000210:	4770      	bx	lr
 8000212:	e7ff      	b.n	8000214 <__udivsi3+0x100>
 8000214:	b501      	push	{r0, lr}
 8000216:	2000      	movs	r0, #0
 8000218:	f000 f8f0 	bl	80003fc <__aeabi_idiv0>
 800021c:	bd02      	pop	{r1, pc}
 800021e:	46c0      	nop			; (mov r8, r8)

08000220 <__aeabi_uidivmod>:
 8000220:	2900      	cmp	r1, #0
 8000222:	d0f7      	beq.n	8000214 <__udivsi3+0x100>
 8000224:	e776      	b.n	8000114 <__udivsi3>
 8000226:	4770      	bx	lr

08000228 <__divsi3>:
 8000228:	4603      	mov	r3, r0
 800022a:	430b      	orrs	r3, r1
 800022c:	d47f      	bmi.n	800032e <__divsi3+0x106>
 800022e:	2200      	movs	r2, #0
 8000230:	0843      	lsrs	r3, r0, #1
 8000232:	428b      	cmp	r3, r1
 8000234:	d374      	bcc.n	8000320 <__divsi3+0xf8>
 8000236:	0903      	lsrs	r3, r0, #4
 8000238:	428b      	cmp	r3, r1
 800023a:	d35f      	bcc.n	80002fc <__divsi3+0xd4>
 800023c:	0a03      	lsrs	r3, r0, #8
 800023e:	428b      	cmp	r3, r1
 8000240:	d344      	bcc.n	80002cc <__divsi3+0xa4>
 8000242:	0b03      	lsrs	r3, r0, #12
 8000244:	428b      	cmp	r3, r1
 8000246:	d328      	bcc.n	800029a <__divsi3+0x72>
 8000248:	0c03      	lsrs	r3, r0, #16
 800024a:	428b      	cmp	r3, r1
 800024c:	d30d      	bcc.n	800026a <__divsi3+0x42>
 800024e:	22ff      	movs	r2, #255	; 0xff
 8000250:	0209      	lsls	r1, r1, #8
 8000252:	ba12      	rev	r2, r2
 8000254:	0c03      	lsrs	r3, r0, #16
 8000256:	428b      	cmp	r3, r1
 8000258:	d302      	bcc.n	8000260 <__divsi3+0x38>
 800025a:	1212      	asrs	r2, r2, #8
 800025c:	0209      	lsls	r1, r1, #8
 800025e:	d065      	beq.n	800032c <__divsi3+0x104>
 8000260:	0b03      	lsrs	r3, r0, #12
 8000262:	428b      	cmp	r3, r1
 8000264:	d319      	bcc.n	800029a <__divsi3+0x72>
 8000266:	e000      	b.n	800026a <__divsi3+0x42>
 8000268:	0a09      	lsrs	r1, r1, #8
 800026a:	0bc3      	lsrs	r3, r0, #15
 800026c:	428b      	cmp	r3, r1
 800026e:	d301      	bcc.n	8000274 <__divsi3+0x4c>
 8000270:	03cb      	lsls	r3, r1, #15
 8000272:	1ac0      	subs	r0, r0, r3
 8000274:	4152      	adcs	r2, r2
 8000276:	0b83      	lsrs	r3, r0, #14
 8000278:	428b      	cmp	r3, r1
 800027a:	d301      	bcc.n	8000280 <__divsi3+0x58>
 800027c:	038b      	lsls	r3, r1, #14
 800027e:	1ac0      	subs	r0, r0, r3
 8000280:	4152      	adcs	r2, r2
 8000282:	0b43      	lsrs	r3, r0, #13
 8000284:	428b      	cmp	r3, r1
 8000286:	d301      	bcc.n	800028c <__divsi3+0x64>
 8000288:	034b      	lsls	r3, r1, #13
 800028a:	1ac0      	subs	r0, r0, r3
 800028c:	4152      	adcs	r2, r2
 800028e:	0b03      	lsrs	r3, r0, #12
 8000290:	428b      	cmp	r3, r1
 8000292:	d301      	bcc.n	8000298 <__divsi3+0x70>
 8000294:	030b      	lsls	r3, r1, #12
 8000296:	1ac0      	subs	r0, r0, r3
 8000298:	4152      	adcs	r2, r2
 800029a:	0ac3      	lsrs	r3, r0, #11
 800029c:	428b      	cmp	r3, r1
 800029e:	d301      	bcc.n	80002a4 <__divsi3+0x7c>
 80002a0:	02cb      	lsls	r3, r1, #11
 80002a2:	1ac0      	subs	r0, r0, r3
 80002a4:	4152      	adcs	r2, r2
 80002a6:	0a83      	lsrs	r3, r0, #10
 80002a8:	428b      	cmp	r3, r1
 80002aa:	d301      	bcc.n	80002b0 <__divsi3+0x88>
 80002ac:	028b      	lsls	r3, r1, #10
 80002ae:	1ac0      	subs	r0, r0, r3
 80002b0:	4152      	adcs	r2, r2
 80002b2:	0a43      	lsrs	r3, r0, #9
 80002b4:	428b      	cmp	r3, r1
 80002b6:	d301      	bcc.n	80002bc <__divsi3+0x94>
 80002b8:	024b      	lsls	r3, r1, #9
 80002ba:	1ac0      	subs	r0, r0, r3
 80002bc:	4152      	adcs	r2, r2
 80002be:	0a03      	lsrs	r3, r0, #8
 80002c0:	428b      	cmp	r3, r1
 80002c2:	d301      	bcc.n	80002c8 <__divsi3+0xa0>
 80002c4:	020b      	lsls	r3, r1, #8
 80002c6:	1ac0      	subs	r0, r0, r3
 80002c8:	4152      	adcs	r2, r2
 80002ca:	d2cd      	bcs.n	8000268 <__divsi3+0x40>
 80002cc:	09c3      	lsrs	r3, r0, #7
 80002ce:	428b      	cmp	r3, r1
 80002d0:	d301      	bcc.n	80002d6 <__divsi3+0xae>
 80002d2:	01cb      	lsls	r3, r1, #7
 80002d4:	1ac0      	subs	r0, r0, r3
 80002d6:	4152      	adcs	r2, r2
 80002d8:	0983      	lsrs	r3, r0, #6
 80002da:	428b      	cmp	r3, r1
 80002dc:	d301      	bcc.n	80002e2 <__divsi3+0xba>
 80002de:	018b      	lsls	r3, r1, #6
 80002e0:	1ac0      	subs	r0, r0, r3
 80002e2:	4152      	adcs	r2, r2
 80002e4:	0943      	lsrs	r3, r0, #5
 80002e6:	428b      	cmp	r3, r1
 80002e8:	d301      	bcc.n	80002ee <__divsi3+0xc6>
 80002ea:	014b      	lsls	r3, r1, #5
 80002ec:	1ac0      	subs	r0, r0, r3
 80002ee:	4152      	adcs	r2, r2
 80002f0:	0903      	lsrs	r3, r0, #4
 80002f2:	428b      	cmp	r3, r1
 80002f4:	d301      	bcc.n	80002fa <__divsi3+0xd2>
 80002f6:	010b      	lsls	r3, r1, #4
 80002f8:	1ac0      	subs	r0, r0, r3
 80002fa:	4152      	adcs	r2, r2
 80002fc:	08c3      	lsrs	r3, r0, #3
 80002fe:	428b      	cmp	r3, r1
 8000300:	d301      	bcc.n	8000306 <__divsi3+0xde>
 8000302:	00cb      	lsls	r3, r1, #3
 8000304:	1ac0      	subs	r0, r0, r3
 8000306:	4152      	adcs	r2, r2
 8000308:	0883      	lsrs	r3, r0, #2
 800030a:	428b      	cmp	r3, r1
 800030c:	d301      	bcc.n	8000312 <__divsi3+0xea>
 800030e:	008b      	lsls	r3, r1, #2
 8000310:	1ac0      	subs	r0, r0, r3
 8000312:	4152      	adcs	r2, r2
 8000314:	0843      	lsrs	r3, r0, #1
 8000316:	428b      	cmp	r3, r1
 8000318:	d301      	bcc.n	800031e <__divsi3+0xf6>
 800031a:	004b      	lsls	r3, r1, #1
 800031c:	1ac0      	subs	r0, r0, r3
 800031e:	4152      	adcs	r2, r2
 8000320:	1a41      	subs	r1, r0, r1
 8000322:	d200      	bcs.n	8000326 <__divsi3+0xfe>
 8000324:	4601      	mov	r1, r0
 8000326:	4152      	adcs	r2, r2
 8000328:	4610      	mov	r0, r2
 800032a:	4770      	bx	lr
 800032c:	e05d      	b.n	80003ea <__divsi3+0x1c2>
 800032e:	0fca      	lsrs	r2, r1, #31
 8000330:	d000      	beq.n	8000334 <__divsi3+0x10c>
 8000332:	4249      	negs	r1, r1
 8000334:	1003      	asrs	r3, r0, #32
 8000336:	d300      	bcc.n	800033a <__divsi3+0x112>
 8000338:	4240      	negs	r0, r0
 800033a:	4053      	eors	r3, r2
 800033c:	2200      	movs	r2, #0
 800033e:	469c      	mov	ip, r3
 8000340:	0903      	lsrs	r3, r0, #4
 8000342:	428b      	cmp	r3, r1
 8000344:	d32d      	bcc.n	80003a2 <__divsi3+0x17a>
 8000346:	0a03      	lsrs	r3, r0, #8
 8000348:	428b      	cmp	r3, r1
 800034a:	d312      	bcc.n	8000372 <__divsi3+0x14a>
 800034c:	22fc      	movs	r2, #252	; 0xfc
 800034e:	0189      	lsls	r1, r1, #6
 8000350:	ba12      	rev	r2, r2
 8000352:	0a03      	lsrs	r3, r0, #8
 8000354:	428b      	cmp	r3, r1
 8000356:	d30c      	bcc.n	8000372 <__divsi3+0x14a>
 8000358:	0189      	lsls	r1, r1, #6
 800035a:	1192      	asrs	r2, r2, #6
 800035c:	428b      	cmp	r3, r1
 800035e:	d308      	bcc.n	8000372 <__divsi3+0x14a>
 8000360:	0189      	lsls	r1, r1, #6
 8000362:	1192      	asrs	r2, r2, #6
 8000364:	428b      	cmp	r3, r1
 8000366:	d304      	bcc.n	8000372 <__divsi3+0x14a>
 8000368:	0189      	lsls	r1, r1, #6
 800036a:	d03a      	beq.n	80003e2 <__divsi3+0x1ba>
 800036c:	1192      	asrs	r2, r2, #6
 800036e:	e000      	b.n	8000372 <__divsi3+0x14a>
 8000370:	0989      	lsrs	r1, r1, #6
 8000372:	09c3      	lsrs	r3, r0, #7
 8000374:	428b      	cmp	r3, r1
 8000376:	d301      	bcc.n	800037c <__divsi3+0x154>
 8000378:	01cb      	lsls	r3, r1, #7
 800037a:	1ac0      	subs	r0, r0, r3
 800037c:	4152      	adcs	r2, r2
 800037e:	0983      	lsrs	r3, r0, #6
 8000380:	428b      	cmp	r3, r1
 8000382:	d301      	bcc.n	8000388 <__divsi3+0x160>
 8000384:	018b      	lsls	r3, r1, #6
 8000386:	1ac0      	subs	r0, r0, r3
 8000388:	4152      	adcs	r2, r2
 800038a:	0943      	lsrs	r3, r0, #5
 800038c:	428b      	cmp	r3, r1
 800038e:	d301      	bcc.n	8000394 <__divsi3+0x16c>
 8000390:	014b      	lsls	r3, r1, #5
 8000392:	1ac0      	subs	r0, r0, r3
 8000394:	4152      	adcs	r2, r2
 8000396:	0903      	lsrs	r3, r0, #4
 8000398:	428b      	cmp	r3, r1
 800039a:	d301      	bcc.n	80003a0 <__divsi3+0x178>
 800039c:	010b      	lsls	r3, r1, #4
 800039e:	1ac0      	subs	r0, r0, r3
 80003a0:	4152      	adcs	r2, r2
 80003a2:	08c3      	lsrs	r3, r0, #3
 80003a4:	428b      	cmp	r3, r1
 80003a6:	d301      	bcc.n	80003ac <__divsi3+0x184>
 80003a8:	00cb      	lsls	r3, r1, #3
 80003aa:	1ac0      	subs	r0, r0, r3
 80003ac:	4152      	adcs	r2, r2
 80003ae:	0883      	lsrs	r3, r0, #2
 80003b0:	428b      	cmp	r3, r1
 80003b2:	d301      	bcc.n	80003b8 <__divsi3+0x190>
 80003b4:	008b      	lsls	r3, r1, #2
 80003b6:	1ac0      	subs	r0, r0, r3
 80003b8:	4152      	adcs	r2, r2
 80003ba:	d2d9      	bcs.n	8000370 <__divsi3+0x148>
 80003bc:	0843      	lsrs	r3, r0, #1
 80003be:	428b      	cmp	r3, r1
 80003c0:	d301      	bcc.n	80003c6 <__divsi3+0x19e>
 80003c2:	004b      	lsls	r3, r1, #1
 80003c4:	1ac0      	subs	r0, r0, r3
 80003c6:	4152      	adcs	r2, r2
 80003c8:	1a41      	subs	r1, r0, r1
 80003ca:	d200      	bcs.n	80003ce <__divsi3+0x1a6>
 80003cc:	4601      	mov	r1, r0
 80003ce:	4663      	mov	r3, ip
 80003d0:	4152      	adcs	r2, r2
 80003d2:	105b      	asrs	r3, r3, #1
 80003d4:	4610      	mov	r0, r2
 80003d6:	d301      	bcc.n	80003dc <__divsi3+0x1b4>
 80003d8:	4240      	negs	r0, r0
 80003da:	2b00      	cmp	r3, #0
 80003dc:	d500      	bpl.n	80003e0 <__divsi3+0x1b8>
 80003de:	4249      	negs	r1, r1
 80003e0:	4770      	bx	lr
 80003e2:	4663      	mov	r3, ip
 80003e4:	105b      	asrs	r3, r3, #1
 80003e6:	d300      	bcc.n	80003ea <__divsi3+0x1c2>
 80003e8:	4240      	negs	r0, r0
 80003ea:	b501      	push	{r0, lr}
 80003ec:	2000      	movs	r0, #0
 80003ee:	f000 f805 	bl	80003fc <__aeabi_idiv0>
 80003f2:	bd02      	pop	{r1, pc}

080003f4 <__aeabi_idivmod>:
 80003f4:	2900      	cmp	r1, #0
 80003f6:	d0f8      	beq.n	80003ea <__divsi3+0x1c2>
 80003f8:	e716      	b.n	8000228 <__divsi3>
 80003fa:	4770      	bx	lr

080003fc <__aeabi_idiv0>:
 80003fc:	4770      	bx	lr
 80003fe:	46c0      	nop			; (mov r8, r8)

08000400 <__aeabi_cdrcmple>:
 8000400:	4684      	mov	ip, r0
 8000402:	1c10      	adds	r0, r2, #0
 8000404:	4662      	mov	r2, ip
 8000406:	468c      	mov	ip, r1
 8000408:	1c19      	adds	r1, r3, #0
 800040a:	4663      	mov	r3, ip
 800040c:	e000      	b.n	8000410 <__aeabi_cdcmpeq>
 800040e:	46c0      	nop			; (mov r8, r8)

08000410 <__aeabi_cdcmpeq>:
 8000410:	b51f      	push	{r0, r1, r2, r3, r4, lr}
 8000412:	f001 fb93 	bl	8001b3c <__ledf2>
 8000416:	2800      	cmp	r0, #0
 8000418:	d401      	bmi.n	800041e <__aeabi_cdcmpeq+0xe>
 800041a:	2100      	movs	r1, #0
 800041c:	42c8      	cmn	r0, r1
 800041e:	bd1f      	pop	{r0, r1, r2, r3, r4, pc}

08000420 <__aeabi_dcmpeq>:
 8000420:	b510      	push	{r4, lr}
 8000422:	f001 fadd 	bl	80019e0 <__eqdf2>
 8000426:	4240      	negs	r0, r0
 8000428:	3001      	adds	r0, #1
 800042a:	bd10      	pop	{r4, pc}

0800042c <__aeabi_dcmplt>:
 800042c:	b510      	push	{r4, lr}
 800042e:	f001 fb85 	bl	8001b3c <__ledf2>
 8000432:	2800      	cmp	r0, #0
 8000434:	db01      	blt.n	800043a <__aeabi_dcmplt+0xe>
 8000436:	2000      	movs	r0, #0
 8000438:	bd10      	pop	{r4, pc}
 800043a:	2001      	movs	r0, #1
 800043c:	bd10      	pop	{r4, pc}
 800043e:	46c0      	nop			; (mov r8, r8)

08000440 <__aeabi_dcmple>:
 8000440:	b510      	push	{r4, lr}
 8000442:	f001 fb7b 	bl	8001b3c <__ledf2>
 8000446:	2800      	cmp	r0, #0
 8000448:	dd01      	ble.n	800044e <__aeabi_dcmple+0xe>
 800044a:	2000      	movs	r0, #0
 800044c:	bd10      	pop	{r4, pc}
 800044e:	2001      	movs	r0, #1
 8000450:	bd10      	pop	{r4, pc}
 8000452:	46c0      	nop			; (mov r8, r8)

08000454 <__aeabi_dcmpgt>:
 8000454:	b510      	push	{r4, lr}
 8000456:	f001 faff 	bl	8001a58 <__gedf2>
 800045a:	2800      	cmp	r0, #0
 800045c:	dc01      	bgt.n	8000462 <__aeabi_dcmpgt+0xe>
 800045e:	2000      	movs	r0, #0
 8000460:	bd10      	pop	{r4, pc}
 8000462:	2001      	movs	r0, #1
 8000464:	bd10      	pop	{r4, pc}
 8000466:	46c0      	nop			; (mov r8, r8)

08000468 <__aeabi_dcmpge>:
 8000468:	b510      	push	{r4, lr}
 800046a:	f001 faf5 	bl	8001a58 <__gedf2>
 800046e:	2800      	cmp	r0, #0
 8000470:	da01      	bge.n	8000476 <__aeabi_dcmpge+0xe>
 8000472:	2000      	movs	r0, #0
 8000474:	bd10      	pop	{r4, pc}
 8000476:	2001      	movs	r0, #1
 8000478:	bd10      	pop	{r4, pc}
 800047a:	46c0      	nop			; (mov r8, r8)

0800047c <__aeabi_uldivmod>:
 800047c:	2b00      	cmp	r3, #0
 800047e:	d111      	bne.n	80004a4 <__aeabi_uldivmod+0x28>
 8000480:	2a00      	cmp	r2, #0
 8000482:	d10f      	bne.n	80004a4 <__aeabi_uldivmod+0x28>
 8000484:	2900      	cmp	r1, #0
 8000486:	d100      	bne.n	800048a <__aeabi_uldivmod+0xe>
 8000488:	2800      	cmp	r0, #0
 800048a:	d002      	beq.n	8000492 <__aeabi_uldivmod+0x16>
 800048c:	2100      	movs	r1, #0
 800048e:	43c9      	mvns	r1, r1
 8000490:	1c08      	adds	r0, r1, #0
 8000492:	b407      	push	{r0, r1, r2}
 8000494:	4802      	ldr	r0, [pc, #8]	; (80004a0 <__aeabi_uldivmod+0x24>)
 8000496:	a102      	add	r1, pc, #8	; (adr r1, 80004a0 <__aeabi_uldivmod+0x24>)
 8000498:	1840      	adds	r0, r0, r1
 800049a:	9002      	str	r0, [sp, #8]
 800049c:	bd03      	pop	{r0, r1, pc}
 800049e:	46c0      	nop			; (mov r8, r8)
 80004a0:	ffffff5d 	.word	0xffffff5d
 80004a4:	b403      	push	{r0, r1}
 80004a6:	4668      	mov	r0, sp
 80004a8:	b501      	push	{r0, lr}
 80004aa:	9802      	ldr	r0, [sp, #8]
 80004ac:	f000 f83c 	bl	8000528 <__udivmoddi4>
 80004b0:	9b01      	ldr	r3, [sp, #4]
 80004b2:	469e      	mov	lr, r3
 80004b4:	b002      	add	sp, #8
 80004b6:	bc0c      	pop	{r2, r3}
 80004b8:	4770      	bx	lr
 80004ba:	46c0      	nop			; (mov r8, r8)

080004bc <__aeabi_f2uiz>:
 80004bc:	219e      	movs	r1, #158	; 0x9e
 80004be:	b510      	push	{r4, lr}
 80004c0:	05c9      	lsls	r1, r1, #23
 80004c2:	1c04      	adds	r4, r0, #0
 80004c4:	f002 fa64 	bl	8002990 <__aeabi_fcmpge>
 80004c8:	2800      	cmp	r0, #0
 80004ca:	d103      	bne.n	80004d4 <__aeabi_f2uiz+0x18>
 80004cc:	1c20      	adds	r0, r4, #0
 80004ce:	f000 fbd9 	bl	8000c84 <__aeabi_f2iz>
 80004d2:	bd10      	pop	{r4, pc}
 80004d4:	219e      	movs	r1, #158	; 0x9e
 80004d6:	1c20      	adds	r0, r4, #0
 80004d8:	05c9      	lsls	r1, r1, #23
 80004da:	f000 fa0b 	bl	80008f4 <__aeabi_fsub>
 80004de:	f000 fbd1 	bl	8000c84 <__aeabi_f2iz>
 80004e2:	2380      	movs	r3, #128	; 0x80
 80004e4:	061b      	lsls	r3, r3, #24
 80004e6:	469c      	mov	ip, r3
 80004e8:	4460      	add	r0, ip
 80004ea:	e7f2      	b.n	80004d2 <__aeabi_f2uiz+0x16>

080004ec <__aeabi_d2uiz>:
 80004ec:	b570      	push	{r4, r5, r6, lr}
 80004ee:	2200      	movs	r2, #0
 80004f0:	4b0c      	ldr	r3, [pc, #48]	; (8000524 <__aeabi_d2uiz+0x38>)
 80004f2:	0004      	movs	r4, r0
 80004f4:	000d      	movs	r5, r1
 80004f6:	f7ff ffb7 	bl	8000468 <__aeabi_dcmpge>
 80004fa:	2800      	cmp	r0, #0
 80004fc:	d104      	bne.n	8000508 <__aeabi_d2uiz+0x1c>
 80004fe:	0020      	movs	r0, r4
 8000500:	0029      	movs	r1, r5
 8000502:	f002 f989 	bl	8002818 <__aeabi_d2iz>
 8000506:	bd70      	pop	{r4, r5, r6, pc}
 8000508:	4b06      	ldr	r3, [pc, #24]	; (8000524 <__aeabi_d2uiz+0x38>)
 800050a:	2200      	movs	r2, #0
 800050c:	0020      	movs	r0, r4
 800050e:	0029      	movs	r1, r5
 8000510:	f001 fdf0 	bl	80020f4 <__aeabi_dsub>
 8000514:	f002 f980 	bl	8002818 <__aeabi_d2iz>
 8000518:	2380      	movs	r3, #128	; 0x80
 800051a:	061b      	lsls	r3, r3, #24
 800051c:	469c      	mov	ip, r3
 800051e:	4460      	add	r0, ip
 8000520:	e7f1      	b.n	8000506 <__aeabi_d2uiz+0x1a>
 8000522:	46c0      	nop			; (mov r8, r8)
 8000524:	41e00000 	.word	0x41e00000

08000528 <__udivmoddi4>:
 8000528:	b5f0      	push	{r4, r5, r6, r7, lr}
 800052a:	4657      	mov	r7, sl
 800052c:	464e      	mov	r6, r9
 800052e:	4645      	mov	r5, r8
 8000530:	46de      	mov	lr, fp
 8000532:	b5e0      	push	{r5, r6, r7, lr}
 8000534:	0004      	movs	r4, r0
 8000536:	000d      	movs	r5, r1
 8000538:	4692      	mov	sl, r2
 800053a:	4699      	mov	r9, r3
 800053c:	b083      	sub	sp, #12
 800053e:	428b      	cmp	r3, r1
 8000540:	d830      	bhi.n	80005a4 <__udivmoddi4+0x7c>
 8000542:	d02d      	beq.n	80005a0 <__udivmoddi4+0x78>
 8000544:	4649      	mov	r1, r9
 8000546:	4650      	mov	r0, sl
 8000548:	f002 fa4a 	bl	80029e0 <__clzdi2>
 800054c:	0029      	movs	r1, r5
 800054e:	0006      	movs	r6, r0
 8000550:	0020      	movs	r0, r4
 8000552:	f002 fa45 	bl	80029e0 <__clzdi2>
 8000556:	1a33      	subs	r3, r6, r0
 8000558:	4698      	mov	r8, r3
 800055a:	3b20      	subs	r3, #32
 800055c:	469b      	mov	fp, r3
 800055e:	d433      	bmi.n	80005c8 <__udivmoddi4+0xa0>
 8000560:	465a      	mov	r2, fp
 8000562:	4653      	mov	r3, sl
 8000564:	4093      	lsls	r3, r2
 8000566:	4642      	mov	r2, r8
 8000568:	001f      	movs	r7, r3
 800056a:	4653      	mov	r3, sl
 800056c:	4093      	lsls	r3, r2
 800056e:	001e      	movs	r6, r3
 8000570:	42af      	cmp	r7, r5
 8000572:	d83a      	bhi.n	80005ea <__udivmoddi4+0xc2>
 8000574:	42af      	cmp	r7, r5
 8000576:	d100      	bne.n	800057a <__udivmoddi4+0x52>
 8000578:	e078      	b.n	800066c <__udivmoddi4+0x144>
 800057a:	465b      	mov	r3, fp
 800057c:	1ba4      	subs	r4, r4, r6
 800057e:	41bd      	sbcs	r5, r7
 8000580:	2b00      	cmp	r3, #0
 8000582:	da00      	bge.n	8000586 <__udivmoddi4+0x5e>
 8000584:	e075      	b.n	8000672 <__udivmoddi4+0x14a>
 8000586:	2200      	movs	r2, #0
 8000588:	2300      	movs	r3, #0
 800058a:	9200      	str	r2, [sp, #0]
 800058c:	9301      	str	r3, [sp, #4]
 800058e:	2301      	movs	r3, #1
 8000590:	465a      	mov	r2, fp
 8000592:	4093      	lsls	r3, r2
 8000594:	9301      	str	r3, [sp, #4]
 8000596:	2301      	movs	r3, #1
 8000598:	4642      	mov	r2, r8
 800059a:	4093      	lsls	r3, r2
 800059c:	9300      	str	r3, [sp, #0]
 800059e:	e028      	b.n	80005f2 <__udivmoddi4+0xca>
 80005a0:	4282      	cmp	r2, r0
 80005a2:	d9cf      	bls.n	8000544 <__udivmoddi4+0x1c>
 80005a4:	2200      	movs	r2, #0
 80005a6:	2300      	movs	r3, #0
 80005a8:	9200      	str	r2, [sp, #0]
 80005aa:	9301      	str	r3, [sp, #4]
 80005ac:	9b0c      	ldr	r3, [sp, #48]	; 0x30
 80005ae:	2b00      	cmp	r3, #0
 80005b0:	d001      	beq.n	80005b6 <__udivmoddi4+0x8e>
 80005b2:	601c      	str	r4, [r3, #0]
 80005b4:	605d      	str	r5, [r3, #4]
 80005b6:	9800      	ldr	r0, [sp, #0]
 80005b8:	9901      	ldr	r1, [sp, #4]
 80005ba:	b003      	add	sp, #12
 80005bc:	bcf0      	pop	{r4, r5, r6, r7}
 80005be:	46bb      	mov	fp, r7
 80005c0:	46b2      	mov	sl, r6
 80005c2:	46a9      	mov	r9, r5
 80005c4:	46a0      	mov	r8, r4
 80005c6:	bdf0      	pop	{r4, r5, r6, r7, pc}
 80005c8:	4642      	mov	r2, r8
 80005ca:	2320      	movs	r3, #32
 80005cc:	1a9b      	subs	r3, r3, r2
 80005ce:	4652      	mov	r2, sl
 80005d0:	40da      	lsrs	r2, r3
 80005d2:	4641      	mov	r1, r8
 80005d4:	0013      	movs	r3, r2
 80005d6:	464a      	mov	r2, r9
 80005d8:	408a      	lsls	r2, r1
 80005da:	0017      	movs	r7, r2
 80005dc:	4642      	mov	r2, r8
 80005de:	431f      	orrs	r7, r3
 80005e0:	4653      	mov	r3, sl
 80005e2:	4093      	lsls	r3, r2
 80005e4:	001e      	movs	r6, r3
 80005e6:	42af      	cmp	r7, r5
 80005e8:	d9c4      	bls.n	8000574 <__udivmoddi4+0x4c>
 80005ea:	2200      	movs	r2, #0
 80005ec:	2300      	movs	r3, #0
 80005ee:	9200      	str	r2, [sp, #0]
 80005f0:	9301      	str	r3, [sp, #4]
 80005f2:	4643      	mov	r3, r8
 80005f4:	2b00      	cmp	r3, #0
 80005f6:	d0d9      	beq.n	80005ac <__udivmoddi4+0x84>
 80005f8:	07fb      	lsls	r3, r7, #31
 80005fa:	0872      	lsrs	r2, r6, #1
 80005fc:	431a      	orrs	r2, r3
 80005fe:	4646      	mov	r6, r8
 8000600:	087b      	lsrs	r3, r7, #1
 8000602:	e00e      	b.n	8000622 <__udivmoddi4+0xfa>
 8000604:	42ab      	cmp	r3, r5
 8000606:	d101      	bne.n	800060c <__udivmoddi4+0xe4>
 8000608:	42a2      	cmp	r2, r4
 800060a:	d80c      	bhi.n	8000626 <__udivmoddi4+0xfe>
 800060c:	1aa4      	subs	r4, r4, r2
 800060e:	419d      	sbcs	r5, r3
 8000610:	2001      	movs	r0, #1
 8000612:	1924      	adds	r4, r4, r4
 8000614:	416d      	adcs	r5, r5
 8000616:	2100      	movs	r1, #0
 8000618:	3e01      	subs	r6, #1
 800061a:	1824      	adds	r4, r4, r0
 800061c:	414d      	adcs	r5, r1
 800061e:	2e00      	cmp	r6, #0
 8000620:	d006      	beq.n	8000630 <__udivmoddi4+0x108>
 8000622:	42ab      	cmp	r3, r5
 8000624:	d9ee      	bls.n	8000604 <__udivmoddi4+0xdc>
 8000626:	3e01      	subs	r6, #1
 8000628:	1924      	adds	r4, r4, r4
 800062a:	416d      	adcs	r5, r5
 800062c:	2e00      	cmp	r6, #0
 800062e:	d1f8      	bne.n	8000622 <__udivmoddi4+0xfa>
 8000630:	9800      	ldr	r0, [sp, #0]
 8000632:	9901      	ldr	r1, [sp, #4]
 8000634:	465b      	mov	r3, fp
 8000636:	1900      	adds	r0, r0, r4
 8000638:	4169      	adcs	r1, r5
 800063a:	2b00      	cmp	r3, #0
 800063c:	db24      	blt.n	8000688 <__udivmoddi4+0x160>
 800063e:	002b      	movs	r3, r5
 8000640:	465a      	mov	r2, fp
 8000642:	4644      	mov	r4, r8
 8000644:	40d3      	lsrs	r3, r2
 8000646:	002a      	movs	r2, r5
 8000648:	40e2      	lsrs	r2, r4
 800064a:	001c      	movs	r4, r3
 800064c:	465b      	mov	r3, fp
 800064e:	0015      	movs	r5, r2
 8000650:	2b00      	cmp	r3, #0
 8000652:	db2a      	blt.n	80006aa <__udivmoddi4+0x182>
 8000654:	0026      	movs	r6, r4
 8000656:	409e      	lsls	r6, r3
 8000658:	0033      	movs	r3, r6
 800065a:	0026      	movs	r6, r4
 800065c:	4647      	mov	r7, r8
 800065e:	40be      	lsls	r6, r7
 8000660:	0032      	movs	r2, r6
 8000662:	1a80      	subs	r0, r0, r2
 8000664:	4199      	sbcs	r1, r3
 8000666:	9000      	str	r0, [sp, #0]
 8000668:	9101      	str	r1, [sp, #4]
 800066a:	e79f      	b.n	80005ac <__udivmoddi4+0x84>
 800066c:	42a3      	cmp	r3, r4
 800066e:	d8bc      	bhi.n	80005ea <__udivmoddi4+0xc2>
 8000670:	e783      	b.n	800057a <__udivmoddi4+0x52>
 8000672:	4642      	mov	r2, r8
 8000674:	2320      	movs	r3, #32
 8000676:	2100      	movs	r1, #0
 8000678:	1a9b      	subs	r3, r3, r2
 800067a:	2200      	movs	r2, #0
 800067c:	9100      	str	r1, [sp, #0]
 800067e:	9201      	str	r2, [sp, #4]
 8000680:	2201      	movs	r2, #1
 8000682:	40da      	lsrs	r2, r3
 8000684:	9201      	str	r2, [sp, #4]
 8000686:	e786      	b.n	8000596 <__udivmoddi4+0x6e>
 8000688:	4642      	mov	r2, r8
 800068a:	2320      	movs	r3, #32
 800068c:	1a9b      	subs	r3, r3, r2
 800068e:	002a      	movs	r2, r5
 8000690:	4646      	mov	r6, r8
 8000692:	409a      	lsls	r2, r3
 8000694:	0023      	movs	r3, r4
 8000696:	40f3      	lsrs	r3, r6
 8000698:	4644      	mov	r4, r8
 800069a:	4313      	orrs	r3, r2
 800069c:	002a      	movs	r2, r5
 800069e:	40e2      	lsrs	r2, r4
 80006a0:	001c      	movs	r4, r3
 80006a2:	465b      	mov	r3, fp
 80006a4:	0015      	movs	r5, r2
 80006a6:	2b00      	cmp	r3, #0
 80006a8:	dad4      	bge.n	8000654 <__udivmoddi4+0x12c>
 80006aa:	4642      	mov	r2, r8
 80006ac:	002f      	movs	r7, r5
 80006ae:	2320      	movs	r3, #32
 80006b0:	0026      	movs	r6, r4
 80006b2:	4097      	lsls	r7, r2
 80006b4:	1a9b      	subs	r3, r3, r2
 80006b6:	40de      	lsrs	r6, r3
 80006b8:	003b      	movs	r3, r7
 80006ba:	4333      	orrs	r3, r6
 80006bc:	e7cd      	b.n	800065a <__udivmoddi4+0x132>
 80006be:	46c0      	nop			; (mov r8, r8)

080006c0 <__aeabi_fmul>:
 80006c0:	b5f8      	push	{r3, r4, r5, r6, r7, lr}
 80006c2:	4657      	mov	r7, sl
 80006c4:	464e      	mov	r6, r9
 80006c6:	4645      	mov	r5, r8
 80006c8:	46de      	mov	lr, fp
 80006ca:	0244      	lsls	r4, r0, #9
 80006cc:	b5e0      	push	{r5, r6, r7, lr}
 80006ce:	0045      	lsls	r5, r0, #1
 80006d0:	1c0f      	adds	r7, r1, #0
 80006d2:	0a64      	lsrs	r4, r4, #9
 80006d4:	0e2d      	lsrs	r5, r5, #24
 80006d6:	0fc6      	lsrs	r6, r0, #31
 80006d8:	2d00      	cmp	r5, #0
 80006da:	d047      	beq.n	800076c <__aeabi_fmul+0xac>
 80006dc:	2dff      	cmp	r5, #255	; 0xff
 80006de:	d04d      	beq.n	800077c <__aeabi_fmul+0xbc>
 80006e0:	2300      	movs	r3, #0
 80006e2:	2080      	movs	r0, #128	; 0x80
 80006e4:	469a      	mov	sl, r3
 80006e6:	469b      	mov	fp, r3
 80006e8:	00e4      	lsls	r4, r4, #3
 80006ea:	04c0      	lsls	r0, r0, #19
 80006ec:	4304      	orrs	r4, r0
 80006ee:	3d7f      	subs	r5, #127	; 0x7f
 80006f0:	0278      	lsls	r0, r7, #9
 80006f2:	0a43      	lsrs	r3, r0, #9
 80006f4:	4699      	mov	r9, r3
 80006f6:	007a      	lsls	r2, r7, #1
 80006f8:	0ffb      	lsrs	r3, r7, #31
 80006fa:	4698      	mov	r8, r3
 80006fc:	0e12      	lsrs	r2, r2, #24
 80006fe:	464b      	mov	r3, r9
 8000700:	d044      	beq.n	800078c <__aeabi_fmul+0xcc>
 8000702:	2aff      	cmp	r2, #255	; 0xff
 8000704:	d011      	beq.n	800072a <__aeabi_fmul+0x6a>
 8000706:	00d8      	lsls	r0, r3, #3
 8000708:	2380      	movs	r3, #128	; 0x80
 800070a:	04db      	lsls	r3, r3, #19
 800070c:	4303      	orrs	r3, r0
 800070e:	4699      	mov	r9, r3
 8000710:	2000      	movs	r0, #0
 8000712:	3a7f      	subs	r2, #127	; 0x7f
 8000714:	18ad      	adds	r5, r5, r2
 8000716:	4647      	mov	r7, r8
 8000718:	4653      	mov	r3, sl
 800071a:	4077      	eors	r7, r6
 800071c:	1c69      	adds	r1, r5, #1
 800071e:	2b0f      	cmp	r3, #15
 8000720:	d83f      	bhi.n	80007a2 <__aeabi_fmul+0xe2>
 8000722:	4a72      	ldr	r2, [pc, #456]	; (80008ec <__aeabi_fmul+0x22c>)
 8000724:	009b      	lsls	r3, r3, #2
 8000726:	58d3      	ldr	r3, [r2, r3]
 8000728:	469f      	mov	pc, r3
 800072a:	35ff      	adds	r5, #255	; 0xff
 800072c:	2b00      	cmp	r3, #0
 800072e:	d000      	beq.n	8000732 <__aeabi_fmul+0x72>
 8000730:	e079      	b.n	8000826 <__aeabi_fmul+0x166>
 8000732:	4652      	mov	r2, sl
 8000734:	2302      	movs	r3, #2
 8000736:	431a      	orrs	r2, r3
 8000738:	4692      	mov	sl, r2
 800073a:	2002      	movs	r0, #2
 800073c:	e7eb      	b.n	8000716 <__aeabi_fmul+0x56>
 800073e:	4647      	mov	r7, r8
 8000740:	464c      	mov	r4, r9
 8000742:	4683      	mov	fp, r0
 8000744:	465b      	mov	r3, fp
 8000746:	2b02      	cmp	r3, #2
 8000748:	d028      	beq.n	800079c <__aeabi_fmul+0xdc>
 800074a:	2b03      	cmp	r3, #3
 800074c:	d100      	bne.n	8000750 <__aeabi_fmul+0x90>
 800074e:	e0c6      	b.n	80008de <__aeabi_fmul+0x21e>
 8000750:	2b01      	cmp	r3, #1
 8000752:	d14f      	bne.n	80007f4 <__aeabi_fmul+0x134>
 8000754:	2000      	movs	r0, #0
 8000756:	2400      	movs	r4, #0
 8000758:	05c0      	lsls	r0, r0, #23
 800075a:	07ff      	lsls	r7, r7, #31
 800075c:	4320      	orrs	r0, r4
 800075e:	4338      	orrs	r0, r7
 8000760:	bcf0      	pop	{r4, r5, r6, r7}
 8000762:	46bb      	mov	fp, r7
 8000764:	46b2      	mov	sl, r6
 8000766:	46a9      	mov	r9, r5
 8000768:	46a0      	mov	r8, r4
 800076a:	bdf8      	pop	{r3, r4, r5, r6, r7, pc}
 800076c:	2c00      	cmp	r4, #0
 800076e:	d171      	bne.n	8000854 <__aeabi_fmul+0x194>
 8000770:	2304      	movs	r3, #4
 8000772:	469a      	mov	sl, r3
 8000774:	3b03      	subs	r3, #3
 8000776:	2500      	movs	r5, #0
 8000778:	469b      	mov	fp, r3
 800077a:	e7b9      	b.n	80006f0 <__aeabi_fmul+0x30>
 800077c:	2c00      	cmp	r4, #0
 800077e:	d163      	bne.n	8000848 <__aeabi_fmul+0x188>
 8000780:	2308      	movs	r3, #8
 8000782:	469a      	mov	sl, r3
 8000784:	3b06      	subs	r3, #6
 8000786:	25ff      	movs	r5, #255	; 0xff
 8000788:	469b      	mov	fp, r3
 800078a:	e7b1      	b.n	80006f0 <__aeabi_fmul+0x30>
 800078c:	2b00      	cmp	r3, #0
 800078e:	d150      	bne.n	8000832 <__aeabi_fmul+0x172>
 8000790:	4652      	mov	r2, sl
 8000792:	3301      	adds	r3, #1
 8000794:	431a      	orrs	r2, r3
 8000796:	4692      	mov	sl, r2
 8000798:	2001      	movs	r0, #1
 800079a:	e7bc      	b.n	8000716 <__aeabi_fmul+0x56>
 800079c:	20ff      	movs	r0, #255	; 0xff
 800079e:	2400      	movs	r4, #0
 80007a0:	e7da      	b.n	8000758 <__aeabi_fmul+0x98>
 80007a2:	4648      	mov	r0, r9
 80007a4:	0c26      	lsrs	r6, r4, #16
 80007a6:	0424      	lsls	r4, r4, #16
 80007a8:	0c22      	lsrs	r2, r4, #16
 80007aa:	0404      	lsls	r4, r0, #16
 80007ac:	0c24      	lsrs	r4, r4, #16
 80007ae:	464b      	mov	r3, r9
 80007b0:	0020      	movs	r0, r4
 80007b2:	0c1b      	lsrs	r3, r3, #16
 80007b4:	4350      	muls	r0, r2
 80007b6:	4374      	muls	r4, r6
 80007b8:	435a      	muls	r2, r3
 80007ba:	435e      	muls	r6, r3
 80007bc:	1912      	adds	r2, r2, r4
 80007be:	0c03      	lsrs	r3, r0, #16
 80007c0:	189b      	adds	r3, r3, r2
 80007c2:	429c      	cmp	r4, r3
 80007c4:	d903      	bls.n	80007ce <__aeabi_fmul+0x10e>
 80007c6:	2280      	movs	r2, #128	; 0x80
 80007c8:	0252      	lsls	r2, r2, #9
 80007ca:	4694      	mov	ip, r2
 80007cc:	4466      	add	r6, ip
 80007ce:	0400      	lsls	r0, r0, #16
 80007d0:	041a      	lsls	r2, r3, #16
 80007d2:	0c00      	lsrs	r0, r0, #16
 80007d4:	1812      	adds	r2, r2, r0
 80007d6:	0194      	lsls	r4, r2, #6
 80007d8:	1e60      	subs	r0, r4, #1
 80007da:	4184      	sbcs	r4, r0
 80007dc:	0c1b      	lsrs	r3, r3, #16
 80007de:	0e92      	lsrs	r2, r2, #26
 80007e0:	199b      	adds	r3, r3, r6
 80007e2:	4314      	orrs	r4, r2
 80007e4:	019b      	lsls	r3, r3, #6
 80007e6:	431c      	orrs	r4, r3
 80007e8:	011b      	lsls	r3, r3, #4
 80007ea:	d572      	bpl.n	80008d2 <__aeabi_fmul+0x212>
 80007ec:	2001      	movs	r0, #1
 80007ee:	0863      	lsrs	r3, r4, #1
 80007f0:	4004      	ands	r4, r0
 80007f2:	431c      	orrs	r4, r3
 80007f4:	0008      	movs	r0, r1
 80007f6:	307f      	adds	r0, #127	; 0x7f
 80007f8:	2800      	cmp	r0, #0
 80007fa:	dd3c      	ble.n	8000876 <__aeabi_fmul+0x1b6>
 80007fc:	0763      	lsls	r3, r4, #29
 80007fe:	d004      	beq.n	800080a <__aeabi_fmul+0x14a>
 8000800:	230f      	movs	r3, #15
 8000802:	4023      	ands	r3, r4
 8000804:	2b04      	cmp	r3, #4
 8000806:	d000      	beq.n	800080a <__aeabi_fmul+0x14a>
 8000808:	3404      	adds	r4, #4
 800080a:	0123      	lsls	r3, r4, #4
 800080c:	d503      	bpl.n	8000816 <__aeabi_fmul+0x156>
 800080e:	3180      	adds	r1, #128	; 0x80
 8000810:	0008      	movs	r0, r1
 8000812:	4b37      	ldr	r3, [pc, #220]	; (80008f0 <__aeabi_fmul+0x230>)
 8000814:	401c      	ands	r4, r3
 8000816:	28fe      	cmp	r0, #254	; 0xfe
 8000818:	dcc0      	bgt.n	800079c <__aeabi_fmul+0xdc>
 800081a:	01a4      	lsls	r4, r4, #6
 800081c:	0a64      	lsrs	r4, r4, #9
 800081e:	b2c0      	uxtb	r0, r0
 8000820:	e79a      	b.n	8000758 <__aeabi_fmul+0x98>
 8000822:	0037      	movs	r7, r6
 8000824:	e78e      	b.n	8000744 <__aeabi_fmul+0x84>
 8000826:	4652      	mov	r2, sl
 8000828:	2303      	movs	r3, #3
 800082a:	431a      	orrs	r2, r3
 800082c:	4692      	mov	sl, r2
 800082e:	2003      	movs	r0, #3
 8000830:	e771      	b.n	8000716 <__aeabi_fmul+0x56>
 8000832:	4648      	mov	r0, r9
 8000834:	f002 f8b6 	bl	80029a4 <__clzsi2>
 8000838:	464a      	mov	r2, r9
 800083a:	1f43      	subs	r3, r0, #5
 800083c:	409a      	lsls	r2, r3
 800083e:	1a2d      	subs	r5, r5, r0
 8000840:	4691      	mov	r9, r2
 8000842:	2000      	movs	r0, #0
 8000844:	3d76      	subs	r5, #118	; 0x76
 8000846:	e766      	b.n	8000716 <__aeabi_fmul+0x56>
 8000848:	230c      	movs	r3, #12
 800084a:	469a      	mov	sl, r3
 800084c:	3b09      	subs	r3, #9
 800084e:	25ff      	movs	r5, #255	; 0xff
 8000850:	469b      	mov	fp, r3
 8000852:	e74d      	b.n	80006f0 <__aeabi_fmul+0x30>
 8000854:	0020      	movs	r0, r4
 8000856:	f002 f8a5 	bl	80029a4 <__clzsi2>
 800085a:	2576      	movs	r5, #118	; 0x76
 800085c:	1f43      	subs	r3, r0, #5
 800085e:	409c      	lsls	r4, r3
 8000860:	2300      	movs	r3, #0
 8000862:	426d      	negs	r5, r5
 8000864:	469a      	mov	sl, r3
 8000866:	469b      	mov	fp, r3
 8000868:	1a2d      	subs	r5, r5, r0
 800086a:	e741      	b.n	80006f0 <__aeabi_fmul+0x30>
 800086c:	2480      	movs	r4, #128	; 0x80
 800086e:	2700      	movs	r7, #0
 8000870:	20ff      	movs	r0, #255	; 0xff
 8000872:	03e4      	lsls	r4, r4, #15
 8000874:	e770      	b.n	8000758 <__aeabi_fmul+0x98>
 8000876:	2301      	movs	r3, #1
 8000878:	1a1b      	subs	r3, r3, r0
 800087a:	2b1b      	cmp	r3, #27
 800087c:	dd00      	ble.n	8000880 <__aeabi_fmul+0x1c0>
 800087e:	e769      	b.n	8000754 <__aeabi_fmul+0x94>
 8000880:	319e      	adds	r1, #158	; 0x9e
 8000882:	0020      	movs	r0, r4
 8000884:	408c      	lsls	r4, r1
 8000886:	40d8      	lsrs	r0, r3
 8000888:	1e63      	subs	r3, r4, #1
 800088a:	419c      	sbcs	r4, r3
 800088c:	4304      	orrs	r4, r0
 800088e:	0763      	lsls	r3, r4, #29
 8000890:	d004      	beq.n	800089c <__aeabi_fmul+0x1dc>
 8000892:	230f      	movs	r3, #15
 8000894:	4023      	ands	r3, r4
 8000896:	2b04      	cmp	r3, #4
 8000898:	d000      	beq.n	800089c <__aeabi_fmul+0x1dc>
 800089a:	3404      	adds	r4, #4
 800089c:	0163      	lsls	r3, r4, #5
 800089e:	d51a      	bpl.n	80008d6 <__aeabi_fmul+0x216>
 80008a0:	2001      	movs	r0, #1
 80008a2:	2400      	movs	r4, #0
 80008a4:	e758      	b.n	8000758 <__aeabi_fmul+0x98>
 80008a6:	2080      	movs	r0, #128	; 0x80
 80008a8:	03c0      	lsls	r0, r0, #15
 80008aa:	4204      	tst	r4, r0
 80008ac:	d009      	beq.n	80008c2 <__aeabi_fmul+0x202>
 80008ae:	464b      	mov	r3, r9
 80008b0:	4203      	tst	r3, r0
 80008b2:	d106      	bne.n	80008c2 <__aeabi_fmul+0x202>
 80008b4:	464c      	mov	r4, r9
 80008b6:	4304      	orrs	r4, r0
 80008b8:	0264      	lsls	r4, r4, #9
 80008ba:	4647      	mov	r7, r8
 80008bc:	20ff      	movs	r0, #255	; 0xff
 80008be:	0a64      	lsrs	r4, r4, #9
 80008c0:	e74a      	b.n	8000758 <__aeabi_fmul+0x98>
 80008c2:	2080      	movs	r0, #128	; 0x80
 80008c4:	03c0      	lsls	r0, r0, #15
 80008c6:	4304      	orrs	r4, r0
 80008c8:	0264      	lsls	r4, r4, #9
 80008ca:	0037      	movs	r7, r6
 80008cc:	20ff      	movs	r0, #255	; 0xff
 80008ce:	0a64      	lsrs	r4, r4, #9
 80008d0:	e742      	b.n	8000758 <__aeabi_fmul+0x98>
 80008d2:	0029      	movs	r1, r5
 80008d4:	e78e      	b.n	80007f4 <__aeabi_fmul+0x134>
 80008d6:	01a4      	lsls	r4, r4, #6
 80008d8:	2000      	movs	r0, #0
 80008da:	0a64      	lsrs	r4, r4, #9
 80008dc:	e73c      	b.n	8000758 <__aeabi_fmul+0x98>
 80008de:	2080      	movs	r0, #128	; 0x80
 80008e0:	03c0      	lsls	r0, r0, #15
 80008e2:	4304      	orrs	r4, r0
 80008e4:	0264      	lsls	r4, r4, #9
 80008e6:	20ff      	movs	r0, #255	; 0xff
 80008e8:	0a64      	lsrs	r4, r4, #9
 80008ea:	e735      	b.n	8000758 <__aeabi_fmul+0x98>
 80008ec:	08006238 	.word	0x08006238
 80008f0:	f7ffffff 	.word	0xf7ffffff

080008f4 <__aeabi_fsub>:
 80008f4:	b5f0      	push	{r4, r5, r6, r7, lr}
 80008f6:	4646      	mov	r6, r8
 80008f8:	46d6      	mov	lr, sl
 80008fa:	464f      	mov	r7, r9
 80008fc:	0243      	lsls	r3, r0, #9
 80008fe:	0a5b      	lsrs	r3, r3, #9
 8000900:	00da      	lsls	r2, r3, #3
 8000902:	4694      	mov	ip, r2
 8000904:	024a      	lsls	r2, r1, #9
 8000906:	b5c0      	push	{r6, r7, lr}
 8000908:	0044      	lsls	r4, r0, #1
 800090a:	0a56      	lsrs	r6, r2, #9
 800090c:	1c05      	adds	r5, r0, #0
 800090e:	46b0      	mov	r8, r6
 8000910:	0e24      	lsrs	r4, r4, #24
 8000912:	004e      	lsls	r6, r1, #1
 8000914:	0992      	lsrs	r2, r2, #6
 8000916:	001f      	movs	r7, r3
 8000918:	0020      	movs	r0, r4
 800091a:	4692      	mov	sl, r2
 800091c:	0fed      	lsrs	r5, r5, #31
 800091e:	0e36      	lsrs	r6, r6, #24
 8000920:	0fc9      	lsrs	r1, r1, #31
 8000922:	2eff      	cmp	r6, #255	; 0xff
 8000924:	d100      	bne.n	8000928 <__aeabi_fsub+0x34>
 8000926:	e07f      	b.n	8000a28 <__aeabi_fsub+0x134>
 8000928:	2201      	movs	r2, #1
 800092a:	4051      	eors	r1, r2
 800092c:	428d      	cmp	r5, r1
 800092e:	d051      	beq.n	80009d4 <__aeabi_fsub+0xe0>
 8000930:	1ba2      	subs	r2, r4, r6
 8000932:	4691      	mov	r9, r2
 8000934:	2a00      	cmp	r2, #0
 8000936:	dc00      	bgt.n	800093a <__aeabi_fsub+0x46>
 8000938:	e07e      	b.n	8000a38 <__aeabi_fsub+0x144>
 800093a:	2e00      	cmp	r6, #0
 800093c:	d100      	bne.n	8000940 <__aeabi_fsub+0x4c>
 800093e:	e099      	b.n	8000a74 <__aeabi_fsub+0x180>
 8000940:	2cff      	cmp	r4, #255	; 0xff
 8000942:	d100      	bne.n	8000946 <__aeabi_fsub+0x52>
 8000944:	e08c      	b.n	8000a60 <__aeabi_fsub+0x16c>
 8000946:	2380      	movs	r3, #128	; 0x80
 8000948:	4652      	mov	r2, sl
 800094a:	04db      	lsls	r3, r3, #19
 800094c:	431a      	orrs	r2, r3
 800094e:	4692      	mov	sl, r2
 8000950:	464a      	mov	r2, r9
 8000952:	2301      	movs	r3, #1
 8000954:	2a1b      	cmp	r2, #27
 8000956:	dc08      	bgt.n	800096a <__aeabi_fsub+0x76>
 8000958:	4653      	mov	r3, sl
 800095a:	2120      	movs	r1, #32
 800095c:	40d3      	lsrs	r3, r2
 800095e:	1a89      	subs	r1, r1, r2
 8000960:	4652      	mov	r2, sl
 8000962:	408a      	lsls	r2, r1
 8000964:	1e51      	subs	r1, r2, #1
 8000966:	418a      	sbcs	r2, r1
 8000968:	4313      	orrs	r3, r2
 800096a:	4662      	mov	r2, ip
 800096c:	1ad3      	subs	r3, r2, r3
 800096e:	015a      	lsls	r2, r3, #5
 8000970:	d400      	bmi.n	8000974 <__aeabi_fsub+0x80>
 8000972:	e0f3      	b.n	8000b5c <__aeabi_fsub+0x268>
 8000974:	019b      	lsls	r3, r3, #6
 8000976:	099e      	lsrs	r6, r3, #6
 8000978:	0030      	movs	r0, r6
 800097a:	f002 f813 	bl	80029a4 <__clzsi2>
 800097e:	3805      	subs	r0, #5
 8000980:	4086      	lsls	r6, r0
 8000982:	4284      	cmp	r4, r0
 8000984:	dd00      	ble.n	8000988 <__aeabi_fsub+0x94>
 8000986:	e0f7      	b.n	8000b78 <__aeabi_fsub+0x284>
 8000988:	0032      	movs	r2, r6
 800098a:	1b04      	subs	r4, r0, r4
 800098c:	2020      	movs	r0, #32
 800098e:	3401      	adds	r4, #1
 8000990:	40e2      	lsrs	r2, r4
 8000992:	1b04      	subs	r4, r0, r4
 8000994:	40a6      	lsls	r6, r4
 8000996:	0033      	movs	r3, r6
 8000998:	1e5e      	subs	r6, r3, #1
 800099a:	41b3      	sbcs	r3, r6
 800099c:	2400      	movs	r4, #0
 800099e:	4313      	orrs	r3, r2
 80009a0:	075a      	lsls	r2, r3, #29
 80009a2:	d004      	beq.n	80009ae <__aeabi_fsub+0xba>
 80009a4:	220f      	movs	r2, #15
 80009a6:	401a      	ands	r2, r3
 80009a8:	2a04      	cmp	r2, #4
 80009aa:	d000      	beq.n	80009ae <__aeabi_fsub+0xba>
 80009ac:	3304      	adds	r3, #4
 80009ae:	015a      	lsls	r2, r3, #5
 80009b0:	d400      	bmi.n	80009b4 <__aeabi_fsub+0xc0>
 80009b2:	e0d6      	b.n	8000b62 <__aeabi_fsub+0x26e>
 80009b4:	1c62      	adds	r2, r4, #1
 80009b6:	2cfe      	cmp	r4, #254	; 0xfe
 80009b8:	d100      	bne.n	80009bc <__aeabi_fsub+0xc8>
 80009ba:	e0da      	b.n	8000b72 <__aeabi_fsub+0x27e>
 80009bc:	019b      	lsls	r3, r3, #6
 80009be:	0a5f      	lsrs	r7, r3, #9
 80009c0:	b2d0      	uxtb	r0, r2
 80009c2:	05c0      	lsls	r0, r0, #23
 80009c4:	4338      	orrs	r0, r7
 80009c6:	07ed      	lsls	r5, r5, #31
 80009c8:	4328      	orrs	r0, r5
 80009ca:	bce0      	pop	{r5, r6, r7}
 80009cc:	46ba      	mov	sl, r7
 80009ce:	46b1      	mov	r9, r6
 80009d0:	46a8      	mov	r8, r5
 80009d2:	bdf0      	pop	{r4, r5, r6, r7, pc}
 80009d4:	1ba2      	subs	r2, r4, r6
 80009d6:	4691      	mov	r9, r2
 80009d8:	2a00      	cmp	r2, #0
 80009da:	dd63      	ble.n	8000aa4 <__aeabi_fsub+0x1b0>
 80009dc:	2e00      	cmp	r6, #0
 80009de:	d100      	bne.n	80009e2 <__aeabi_fsub+0xee>
 80009e0:	e099      	b.n	8000b16 <__aeabi_fsub+0x222>
 80009e2:	2cff      	cmp	r4, #255	; 0xff
 80009e4:	d03c      	beq.n	8000a60 <__aeabi_fsub+0x16c>
 80009e6:	2380      	movs	r3, #128	; 0x80
 80009e8:	4652      	mov	r2, sl
 80009ea:	04db      	lsls	r3, r3, #19
 80009ec:	431a      	orrs	r2, r3
 80009ee:	4692      	mov	sl, r2
 80009f0:	464a      	mov	r2, r9
 80009f2:	2301      	movs	r3, #1
 80009f4:	2a1b      	cmp	r2, #27
 80009f6:	dc08      	bgt.n	8000a0a <__aeabi_fsub+0x116>
 80009f8:	4653      	mov	r3, sl
 80009fa:	2120      	movs	r1, #32
 80009fc:	40d3      	lsrs	r3, r2
 80009fe:	1a89      	subs	r1, r1, r2
 8000a00:	4652      	mov	r2, sl
 8000a02:	408a      	lsls	r2, r1
 8000a04:	1e51      	subs	r1, r2, #1
 8000a06:	418a      	sbcs	r2, r1
 8000a08:	4313      	orrs	r3, r2
 8000a0a:	4463      	add	r3, ip
 8000a0c:	015a      	lsls	r2, r3, #5
 8000a0e:	d400      	bmi.n	8000a12 <__aeabi_fsub+0x11e>
 8000a10:	e0a4      	b.n	8000b5c <__aeabi_fsub+0x268>
 8000a12:	3401      	adds	r4, #1
 8000a14:	2cff      	cmp	r4, #255	; 0xff
 8000a16:	d100      	bne.n	8000a1a <__aeabi_fsub+0x126>
 8000a18:	e0ab      	b.n	8000b72 <__aeabi_fsub+0x27e>
 8000a1a:	2201      	movs	r2, #1
 8000a1c:	4997      	ldr	r1, [pc, #604]	; (8000c7c <__aeabi_fsub+0x388>)
 8000a1e:	401a      	ands	r2, r3
 8000a20:	085b      	lsrs	r3, r3, #1
 8000a22:	400b      	ands	r3, r1
 8000a24:	4313      	orrs	r3, r2
 8000a26:	e7bb      	b.n	80009a0 <__aeabi_fsub+0xac>
 8000a28:	2a00      	cmp	r2, #0
 8000a2a:	d032      	beq.n	8000a92 <__aeabi_fsub+0x19e>
 8000a2c:	428d      	cmp	r5, r1
 8000a2e:	d035      	beq.n	8000a9c <__aeabi_fsub+0x1a8>
 8000a30:	22ff      	movs	r2, #255	; 0xff
 8000a32:	4252      	negs	r2, r2
 8000a34:	4691      	mov	r9, r2
 8000a36:	44a1      	add	r9, r4
 8000a38:	464a      	mov	r2, r9
 8000a3a:	2a00      	cmp	r2, #0
 8000a3c:	d051      	beq.n	8000ae2 <__aeabi_fsub+0x1ee>
 8000a3e:	1b30      	subs	r0, r6, r4
 8000a40:	2c00      	cmp	r4, #0
 8000a42:	d000      	beq.n	8000a46 <__aeabi_fsub+0x152>
 8000a44:	e09c      	b.n	8000b80 <__aeabi_fsub+0x28c>
 8000a46:	4663      	mov	r3, ip
 8000a48:	2b00      	cmp	r3, #0
 8000a4a:	d100      	bne.n	8000a4e <__aeabi_fsub+0x15a>
 8000a4c:	e0df      	b.n	8000c0e <__aeabi_fsub+0x31a>
 8000a4e:	3801      	subs	r0, #1
 8000a50:	2800      	cmp	r0, #0
 8000a52:	d100      	bne.n	8000a56 <__aeabi_fsub+0x162>
 8000a54:	e0f7      	b.n	8000c46 <__aeabi_fsub+0x352>
 8000a56:	2eff      	cmp	r6, #255	; 0xff
 8000a58:	d000      	beq.n	8000a5c <__aeabi_fsub+0x168>
 8000a5a:	e099      	b.n	8000b90 <__aeabi_fsub+0x29c>
 8000a5c:	000d      	movs	r5, r1
 8000a5e:	4643      	mov	r3, r8
 8000a60:	2b00      	cmp	r3, #0
 8000a62:	d100      	bne.n	8000a66 <__aeabi_fsub+0x172>
 8000a64:	e085      	b.n	8000b72 <__aeabi_fsub+0x27e>
 8000a66:	2780      	movs	r7, #128	; 0x80
 8000a68:	03ff      	lsls	r7, r7, #15
 8000a6a:	431f      	orrs	r7, r3
 8000a6c:	027f      	lsls	r7, r7, #9
 8000a6e:	20ff      	movs	r0, #255	; 0xff
 8000a70:	0a7f      	lsrs	r7, r7, #9
 8000a72:	e7a6      	b.n	80009c2 <__aeabi_fsub+0xce>
 8000a74:	4652      	mov	r2, sl
 8000a76:	2a00      	cmp	r2, #0
 8000a78:	d074      	beq.n	8000b64 <__aeabi_fsub+0x270>
 8000a7a:	2201      	movs	r2, #1
 8000a7c:	4252      	negs	r2, r2
 8000a7e:	4690      	mov	r8, r2
 8000a80:	44c1      	add	r9, r8
 8000a82:	464a      	mov	r2, r9
 8000a84:	2a00      	cmp	r2, #0
 8000a86:	d100      	bne.n	8000a8a <__aeabi_fsub+0x196>
 8000a88:	e0c8      	b.n	8000c1c <__aeabi_fsub+0x328>
 8000a8a:	2cff      	cmp	r4, #255	; 0xff
 8000a8c:	d000      	beq.n	8000a90 <__aeabi_fsub+0x19c>
 8000a8e:	e75f      	b.n	8000950 <__aeabi_fsub+0x5c>
 8000a90:	e7e6      	b.n	8000a60 <__aeabi_fsub+0x16c>
 8000a92:	2201      	movs	r2, #1
 8000a94:	4051      	eors	r1, r2
 8000a96:	42a9      	cmp	r1, r5
 8000a98:	d000      	beq.n	8000a9c <__aeabi_fsub+0x1a8>
 8000a9a:	e749      	b.n	8000930 <__aeabi_fsub+0x3c>
 8000a9c:	22ff      	movs	r2, #255	; 0xff
 8000a9e:	4252      	negs	r2, r2
 8000aa0:	4691      	mov	r9, r2
 8000aa2:	44a1      	add	r9, r4
 8000aa4:	464a      	mov	r2, r9
 8000aa6:	2a00      	cmp	r2, #0
 8000aa8:	d043      	beq.n	8000b32 <__aeabi_fsub+0x23e>
 8000aaa:	1b31      	subs	r1, r6, r4
 8000aac:	2c00      	cmp	r4, #0
 8000aae:	d100      	bne.n	8000ab2 <__aeabi_fsub+0x1be>
 8000ab0:	e08c      	b.n	8000bcc <__aeabi_fsub+0x2d8>
 8000ab2:	2eff      	cmp	r6, #255	; 0xff
 8000ab4:	d100      	bne.n	8000ab8 <__aeabi_fsub+0x1c4>
 8000ab6:	e092      	b.n	8000bde <__aeabi_fsub+0x2ea>
 8000ab8:	2380      	movs	r3, #128	; 0x80
 8000aba:	4662      	mov	r2, ip
 8000abc:	04db      	lsls	r3, r3, #19
 8000abe:	431a      	orrs	r2, r3
 8000ac0:	4694      	mov	ip, r2
 8000ac2:	2301      	movs	r3, #1
 8000ac4:	291b      	cmp	r1, #27
 8000ac6:	dc09      	bgt.n	8000adc <__aeabi_fsub+0x1e8>
 8000ac8:	2020      	movs	r0, #32
 8000aca:	4663      	mov	r3, ip
 8000acc:	4662      	mov	r2, ip
 8000ace:	40cb      	lsrs	r3, r1
 8000ad0:	1a41      	subs	r1, r0, r1
 8000ad2:	408a      	lsls	r2, r1
 8000ad4:	0011      	movs	r1, r2
 8000ad6:	1e48      	subs	r0, r1, #1
 8000ad8:	4181      	sbcs	r1, r0
 8000ada:	430b      	orrs	r3, r1
 8000adc:	0034      	movs	r4, r6
 8000ade:	4453      	add	r3, sl
 8000ae0:	e794      	b.n	8000a0c <__aeabi_fsub+0x118>
 8000ae2:	22fe      	movs	r2, #254	; 0xfe
 8000ae4:	1c66      	adds	r6, r4, #1
 8000ae6:	4232      	tst	r2, r6
 8000ae8:	d164      	bne.n	8000bb4 <__aeabi_fsub+0x2c0>
 8000aea:	2c00      	cmp	r4, #0
 8000aec:	d000      	beq.n	8000af0 <__aeabi_fsub+0x1fc>
 8000aee:	e082      	b.n	8000bf6 <__aeabi_fsub+0x302>
 8000af0:	4663      	mov	r3, ip
 8000af2:	2b00      	cmp	r3, #0
 8000af4:	d100      	bne.n	8000af8 <__aeabi_fsub+0x204>
 8000af6:	e0ab      	b.n	8000c50 <__aeabi_fsub+0x35c>
 8000af8:	4653      	mov	r3, sl
 8000afa:	2b00      	cmp	r3, #0
 8000afc:	d100      	bne.n	8000b00 <__aeabi_fsub+0x20c>
 8000afe:	e760      	b.n	80009c2 <__aeabi_fsub+0xce>
 8000b00:	4663      	mov	r3, ip
 8000b02:	4652      	mov	r2, sl
 8000b04:	1a9b      	subs	r3, r3, r2
 8000b06:	015a      	lsls	r2, r3, #5
 8000b08:	d400      	bmi.n	8000b0c <__aeabi_fsub+0x218>
 8000b0a:	e0aa      	b.n	8000c62 <__aeabi_fsub+0x36e>
 8000b0c:	4663      	mov	r3, ip
 8000b0e:	4652      	mov	r2, sl
 8000b10:	000d      	movs	r5, r1
 8000b12:	1ad3      	subs	r3, r2, r3
 8000b14:	e744      	b.n	80009a0 <__aeabi_fsub+0xac>
 8000b16:	4652      	mov	r2, sl
 8000b18:	2a00      	cmp	r2, #0
 8000b1a:	d023      	beq.n	8000b64 <__aeabi_fsub+0x270>
 8000b1c:	2201      	movs	r2, #1
 8000b1e:	4252      	negs	r2, r2
 8000b20:	4690      	mov	r8, r2
 8000b22:	44c1      	add	r9, r8
 8000b24:	464a      	mov	r2, r9
 8000b26:	2a00      	cmp	r2, #0
 8000b28:	d075      	beq.n	8000c16 <__aeabi_fsub+0x322>
 8000b2a:	2cff      	cmp	r4, #255	; 0xff
 8000b2c:	d000      	beq.n	8000b30 <__aeabi_fsub+0x23c>
 8000b2e:	e75f      	b.n	80009f0 <__aeabi_fsub+0xfc>
 8000b30:	e796      	b.n	8000a60 <__aeabi_fsub+0x16c>
 8000b32:	26fe      	movs	r6, #254	; 0xfe
 8000b34:	3401      	adds	r4, #1
 8000b36:	4226      	tst	r6, r4
 8000b38:	d153      	bne.n	8000be2 <__aeabi_fsub+0x2ee>
 8000b3a:	2800      	cmp	r0, #0
 8000b3c:	d172      	bne.n	8000c24 <__aeabi_fsub+0x330>
 8000b3e:	4663      	mov	r3, ip
 8000b40:	2b00      	cmp	r3, #0
 8000b42:	d100      	bne.n	8000b46 <__aeabi_fsub+0x252>
 8000b44:	e093      	b.n	8000c6e <__aeabi_fsub+0x37a>
 8000b46:	4653      	mov	r3, sl
 8000b48:	2b00      	cmp	r3, #0
 8000b4a:	d100      	bne.n	8000b4e <__aeabi_fsub+0x25a>
 8000b4c:	e739      	b.n	80009c2 <__aeabi_fsub+0xce>
 8000b4e:	4463      	add	r3, ip
 8000b50:	2400      	movs	r4, #0
 8000b52:	015a      	lsls	r2, r3, #5
 8000b54:	d502      	bpl.n	8000b5c <__aeabi_fsub+0x268>
 8000b56:	4a4a      	ldr	r2, [pc, #296]	; (8000c80 <__aeabi_fsub+0x38c>)
 8000b58:	3401      	adds	r4, #1
 8000b5a:	4013      	ands	r3, r2
 8000b5c:	075a      	lsls	r2, r3, #29
 8000b5e:	d000      	beq.n	8000b62 <__aeabi_fsub+0x26e>
 8000b60:	e720      	b.n	80009a4 <__aeabi_fsub+0xb0>
 8000b62:	08db      	lsrs	r3, r3, #3
 8000b64:	2cff      	cmp	r4, #255	; 0xff
 8000b66:	d100      	bne.n	8000b6a <__aeabi_fsub+0x276>
 8000b68:	e77a      	b.n	8000a60 <__aeabi_fsub+0x16c>
 8000b6a:	025b      	lsls	r3, r3, #9
 8000b6c:	0a5f      	lsrs	r7, r3, #9
 8000b6e:	b2e0      	uxtb	r0, r4
 8000b70:	e727      	b.n	80009c2 <__aeabi_fsub+0xce>
 8000b72:	20ff      	movs	r0, #255	; 0xff
 8000b74:	2700      	movs	r7, #0
 8000b76:	e724      	b.n	80009c2 <__aeabi_fsub+0xce>
 8000b78:	4b41      	ldr	r3, [pc, #260]	; (8000c80 <__aeabi_fsub+0x38c>)
 8000b7a:	1a24      	subs	r4, r4, r0
 8000b7c:	4033      	ands	r3, r6
 8000b7e:	e70f      	b.n	80009a0 <__aeabi_fsub+0xac>
 8000b80:	2eff      	cmp	r6, #255	; 0xff
 8000b82:	d100      	bne.n	8000b86 <__aeabi_fsub+0x292>
 8000b84:	e76a      	b.n	8000a5c <__aeabi_fsub+0x168>
 8000b86:	2380      	movs	r3, #128	; 0x80
 8000b88:	4662      	mov	r2, ip
 8000b8a:	04db      	lsls	r3, r3, #19
 8000b8c:	431a      	orrs	r2, r3
 8000b8e:	4694      	mov	ip, r2
 8000b90:	2301      	movs	r3, #1
 8000b92:	281b      	cmp	r0, #27
 8000b94:	dc09      	bgt.n	8000baa <__aeabi_fsub+0x2b6>
 8000b96:	2420      	movs	r4, #32
 8000b98:	4663      	mov	r3, ip
 8000b9a:	4662      	mov	r2, ip
 8000b9c:	40c3      	lsrs	r3, r0
 8000b9e:	1a20      	subs	r0, r4, r0
 8000ba0:	4082      	lsls	r2, r0
 8000ba2:	0010      	movs	r0, r2
 8000ba4:	1e44      	subs	r4, r0, #1
 8000ba6:	41a0      	sbcs	r0, r4
 8000ba8:	4303      	orrs	r3, r0
 8000baa:	4652      	mov	r2, sl
 8000bac:	000d      	movs	r5, r1
 8000bae:	0034      	movs	r4, r6
 8000bb0:	1ad3      	subs	r3, r2, r3
 8000bb2:	e6dc      	b.n	800096e <__aeabi_fsub+0x7a>
 8000bb4:	4663      	mov	r3, ip
 8000bb6:	4652      	mov	r2, sl
 8000bb8:	1a9e      	subs	r6, r3, r2
 8000bba:	0173      	lsls	r3, r6, #5
 8000bbc:	d417      	bmi.n	8000bee <__aeabi_fsub+0x2fa>
 8000bbe:	2e00      	cmp	r6, #0
 8000bc0:	d000      	beq.n	8000bc4 <__aeabi_fsub+0x2d0>
 8000bc2:	e6d9      	b.n	8000978 <__aeabi_fsub+0x84>
 8000bc4:	2500      	movs	r5, #0
 8000bc6:	2000      	movs	r0, #0
 8000bc8:	2700      	movs	r7, #0
 8000bca:	e6fa      	b.n	80009c2 <__aeabi_fsub+0xce>
 8000bcc:	4663      	mov	r3, ip
 8000bce:	2b00      	cmp	r3, #0
 8000bd0:	d044      	beq.n	8000c5c <__aeabi_fsub+0x368>
 8000bd2:	3901      	subs	r1, #1
 8000bd4:	2900      	cmp	r1, #0
 8000bd6:	d04c      	beq.n	8000c72 <__aeabi_fsub+0x37e>
 8000bd8:	2eff      	cmp	r6, #255	; 0xff
 8000bda:	d000      	beq.n	8000bde <__aeabi_fsub+0x2ea>
 8000bdc:	e771      	b.n	8000ac2 <__aeabi_fsub+0x1ce>
 8000bde:	4643      	mov	r3, r8
 8000be0:	e73e      	b.n	8000a60 <__aeabi_fsub+0x16c>
 8000be2:	2cff      	cmp	r4, #255	; 0xff
 8000be4:	d0c5      	beq.n	8000b72 <__aeabi_fsub+0x27e>
 8000be6:	4652      	mov	r2, sl
 8000be8:	4462      	add	r2, ip
 8000bea:	0853      	lsrs	r3, r2, #1
 8000bec:	e7b6      	b.n	8000b5c <__aeabi_fsub+0x268>
 8000bee:	4663      	mov	r3, ip
 8000bf0:	000d      	movs	r5, r1
 8000bf2:	1ad6      	subs	r6, r2, r3
 8000bf4:	e6c0      	b.n	8000978 <__aeabi_fsub+0x84>
 8000bf6:	4662      	mov	r2, ip
 8000bf8:	2a00      	cmp	r2, #0
 8000bfa:	d116      	bne.n	8000c2a <__aeabi_fsub+0x336>
 8000bfc:	4653      	mov	r3, sl
 8000bfe:	2b00      	cmp	r3, #0
 8000c00:	d000      	beq.n	8000c04 <__aeabi_fsub+0x310>
 8000c02:	e72b      	b.n	8000a5c <__aeabi_fsub+0x168>
 8000c04:	2780      	movs	r7, #128	; 0x80
 8000c06:	2500      	movs	r5, #0
 8000c08:	20ff      	movs	r0, #255	; 0xff
 8000c0a:	03ff      	lsls	r7, r7, #15
 8000c0c:	e6d9      	b.n	80009c2 <__aeabi_fsub+0xce>
 8000c0e:	000d      	movs	r5, r1
 8000c10:	4643      	mov	r3, r8
 8000c12:	0034      	movs	r4, r6
 8000c14:	e7a6      	b.n	8000b64 <__aeabi_fsub+0x270>
 8000c16:	4653      	mov	r3, sl
 8000c18:	4463      	add	r3, ip
 8000c1a:	e6f7      	b.n	8000a0c <__aeabi_fsub+0x118>
 8000c1c:	4663      	mov	r3, ip
 8000c1e:	4652      	mov	r2, sl
 8000c20:	1a9b      	subs	r3, r3, r2
 8000c22:	e6a4      	b.n	800096e <__aeabi_fsub+0x7a>
 8000c24:	4662      	mov	r2, ip
 8000c26:	2a00      	cmp	r2, #0
 8000c28:	d0d9      	beq.n	8000bde <__aeabi_fsub+0x2ea>
 8000c2a:	4652      	mov	r2, sl
 8000c2c:	2a00      	cmp	r2, #0
 8000c2e:	d100      	bne.n	8000c32 <__aeabi_fsub+0x33e>
 8000c30:	e716      	b.n	8000a60 <__aeabi_fsub+0x16c>
 8000c32:	2280      	movs	r2, #128	; 0x80
 8000c34:	03d2      	lsls	r2, r2, #15
 8000c36:	4213      	tst	r3, r2
 8000c38:	d100      	bne.n	8000c3c <__aeabi_fsub+0x348>
 8000c3a:	e711      	b.n	8000a60 <__aeabi_fsub+0x16c>
 8000c3c:	4640      	mov	r0, r8
 8000c3e:	4210      	tst	r0, r2
 8000c40:	d000      	beq.n	8000c44 <__aeabi_fsub+0x350>
 8000c42:	e70d      	b.n	8000a60 <__aeabi_fsub+0x16c>
 8000c44:	e70a      	b.n	8000a5c <__aeabi_fsub+0x168>
 8000c46:	4652      	mov	r2, sl
 8000c48:	000d      	movs	r5, r1
 8000c4a:	0034      	movs	r4, r6
 8000c4c:	1ad3      	subs	r3, r2, r3
 8000c4e:	e68e      	b.n	800096e <__aeabi_fsub+0x7a>
 8000c50:	4653      	mov	r3, sl
 8000c52:	2b00      	cmp	r3, #0
 8000c54:	d008      	beq.n	8000c68 <__aeabi_fsub+0x374>
 8000c56:	000d      	movs	r5, r1
 8000c58:	4647      	mov	r7, r8
 8000c5a:	e6b2      	b.n	80009c2 <__aeabi_fsub+0xce>
 8000c5c:	4643      	mov	r3, r8
 8000c5e:	0034      	movs	r4, r6
 8000c60:	e780      	b.n	8000b64 <__aeabi_fsub+0x270>
 8000c62:	2b00      	cmp	r3, #0
 8000c64:	d000      	beq.n	8000c68 <__aeabi_fsub+0x374>
 8000c66:	e779      	b.n	8000b5c <__aeabi_fsub+0x268>
 8000c68:	2500      	movs	r5, #0
 8000c6a:	2700      	movs	r7, #0
 8000c6c:	e6a9      	b.n	80009c2 <__aeabi_fsub+0xce>
 8000c6e:	4647      	mov	r7, r8
 8000c70:	e6a7      	b.n	80009c2 <__aeabi_fsub+0xce>
 8000c72:	4653      	mov	r3, sl
 8000c74:	0034      	movs	r4, r6
 8000c76:	4463      	add	r3, ip
 8000c78:	e6c8      	b.n	8000a0c <__aeabi_fsub+0x118>
 8000c7a:	46c0      	nop			; (mov r8, r8)
 8000c7c:	7dffffff 	.word	0x7dffffff
 8000c80:	fbffffff 	.word	0xfbffffff

08000c84 <__aeabi_f2iz>:
 8000c84:	0241      	lsls	r1, r0, #9
 8000c86:	0042      	lsls	r2, r0, #1
 8000c88:	0fc3      	lsrs	r3, r0, #31
 8000c8a:	0a49      	lsrs	r1, r1, #9
 8000c8c:	2000      	movs	r0, #0
 8000c8e:	0e12      	lsrs	r2, r2, #24
 8000c90:	2a7e      	cmp	r2, #126	; 0x7e
 8000c92:	d903      	bls.n	8000c9c <__aeabi_f2iz+0x18>
 8000c94:	2a9d      	cmp	r2, #157	; 0x9d
 8000c96:	d902      	bls.n	8000c9e <__aeabi_f2iz+0x1a>
 8000c98:	4a09      	ldr	r2, [pc, #36]	; (8000cc0 <__aeabi_f2iz+0x3c>)
 8000c9a:	1898      	adds	r0, r3, r2
 8000c9c:	4770      	bx	lr
 8000c9e:	2080      	movs	r0, #128	; 0x80
 8000ca0:	0400      	lsls	r0, r0, #16
 8000ca2:	4301      	orrs	r1, r0
 8000ca4:	2a95      	cmp	r2, #149	; 0x95
 8000ca6:	dc07      	bgt.n	8000cb8 <__aeabi_f2iz+0x34>
 8000ca8:	2096      	movs	r0, #150	; 0x96
 8000caa:	1a82      	subs	r2, r0, r2
 8000cac:	40d1      	lsrs	r1, r2
 8000cae:	4248      	negs	r0, r1
 8000cb0:	2b00      	cmp	r3, #0
 8000cb2:	d1f3      	bne.n	8000c9c <__aeabi_f2iz+0x18>
 8000cb4:	0008      	movs	r0, r1
 8000cb6:	e7f1      	b.n	8000c9c <__aeabi_f2iz+0x18>
 8000cb8:	3a96      	subs	r2, #150	; 0x96
 8000cba:	4091      	lsls	r1, r2
 8000cbc:	e7f7      	b.n	8000cae <__aeabi_f2iz+0x2a>
 8000cbe:	46c0      	nop			; (mov r8, r8)
 8000cc0:	7fffffff 	.word	0x7fffffff

08000cc4 <__aeabi_ui2f>:
 8000cc4:	b570      	push	{r4, r5, r6, lr}
 8000cc6:	1e05      	subs	r5, r0, #0
 8000cc8:	d00e      	beq.n	8000ce8 <__aeabi_ui2f+0x24>
 8000cca:	f001 fe6b 	bl	80029a4 <__clzsi2>
 8000cce:	239e      	movs	r3, #158	; 0x9e
 8000cd0:	0004      	movs	r4, r0
 8000cd2:	1a1b      	subs	r3, r3, r0
 8000cd4:	2b96      	cmp	r3, #150	; 0x96
 8000cd6:	dc0c      	bgt.n	8000cf2 <__aeabi_ui2f+0x2e>
 8000cd8:	2808      	cmp	r0, #8
 8000cda:	dd01      	ble.n	8000ce0 <__aeabi_ui2f+0x1c>
 8000cdc:	3c08      	subs	r4, #8
 8000cde:	40a5      	lsls	r5, r4
 8000ce0:	026d      	lsls	r5, r5, #9
 8000ce2:	0a6d      	lsrs	r5, r5, #9
 8000ce4:	b2d8      	uxtb	r0, r3
 8000ce6:	e001      	b.n	8000cec <__aeabi_ui2f+0x28>
 8000ce8:	2000      	movs	r0, #0
 8000cea:	2500      	movs	r5, #0
 8000cec:	05c0      	lsls	r0, r0, #23
 8000cee:	4328      	orrs	r0, r5
 8000cf0:	bd70      	pop	{r4, r5, r6, pc}
 8000cf2:	2b99      	cmp	r3, #153	; 0x99
 8000cf4:	dd09      	ble.n	8000d0a <__aeabi_ui2f+0x46>
 8000cf6:	0002      	movs	r2, r0
 8000cf8:	0029      	movs	r1, r5
 8000cfa:	321b      	adds	r2, #27
 8000cfc:	4091      	lsls	r1, r2
 8000cfe:	1e4a      	subs	r2, r1, #1
 8000d00:	4191      	sbcs	r1, r2
 8000d02:	2205      	movs	r2, #5
 8000d04:	1a12      	subs	r2, r2, r0
 8000d06:	40d5      	lsrs	r5, r2
 8000d08:	430d      	orrs	r5, r1
 8000d0a:	2c05      	cmp	r4, #5
 8000d0c:	dd01      	ble.n	8000d12 <__aeabi_ui2f+0x4e>
 8000d0e:	1f62      	subs	r2, r4, #5
 8000d10:	4095      	lsls	r5, r2
 8000d12:	0029      	movs	r1, r5
 8000d14:	4e08      	ldr	r6, [pc, #32]	; (8000d38 <__aeabi_ui2f+0x74>)
 8000d16:	4031      	ands	r1, r6
 8000d18:	076a      	lsls	r2, r5, #29
 8000d1a:	d009      	beq.n	8000d30 <__aeabi_ui2f+0x6c>
 8000d1c:	200f      	movs	r0, #15
 8000d1e:	4028      	ands	r0, r5
 8000d20:	2804      	cmp	r0, #4
 8000d22:	d005      	beq.n	8000d30 <__aeabi_ui2f+0x6c>
 8000d24:	3104      	adds	r1, #4
 8000d26:	014a      	lsls	r2, r1, #5
 8000d28:	d502      	bpl.n	8000d30 <__aeabi_ui2f+0x6c>
 8000d2a:	239f      	movs	r3, #159	; 0x9f
 8000d2c:	4031      	ands	r1, r6
 8000d2e:	1b1b      	subs	r3, r3, r4
 8000d30:	0189      	lsls	r1, r1, #6
 8000d32:	0a4d      	lsrs	r5, r1, #9
 8000d34:	b2d8      	uxtb	r0, r3
 8000d36:	e7d9      	b.n	8000cec <__aeabi_ui2f+0x28>
 8000d38:	fbffffff 	.word	0xfbffffff

08000d3c <__aeabi_dadd>:
 8000d3c:	b5f0      	push	{r4, r5, r6, r7, lr}
 8000d3e:	464f      	mov	r7, r9
 8000d40:	46d6      	mov	lr, sl
 8000d42:	4646      	mov	r6, r8
 8000d44:	000d      	movs	r5, r1
 8000d46:	0001      	movs	r1, r0
 8000d48:	0018      	movs	r0, r3
 8000d4a:	b5c0      	push	{r6, r7, lr}
 8000d4c:	0017      	movs	r7, r2
 8000d4e:	032b      	lsls	r3, r5, #12
 8000d50:	0a5a      	lsrs	r2, r3, #9
 8000d52:	0f4b      	lsrs	r3, r1, #29
 8000d54:	4313      	orrs	r3, r2
 8000d56:	00ca      	lsls	r2, r1, #3
 8000d58:	4691      	mov	r9, r2
 8000d5a:	0302      	lsls	r2, r0, #12
 8000d5c:	006e      	lsls	r6, r5, #1
 8000d5e:	0041      	lsls	r1, r0, #1
 8000d60:	0a52      	lsrs	r2, r2, #9
 8000d62:	0fec      	lsrs	r4, r5, #31
 8000d64:	0f7d      	lsrs	r5, r7, #29
 8000d66:	4315      	orrs	r5, r2
 8000d68:	0d76      	lsrs	r6, r6, #21
 8000d6a:	0d49      	lsrs	r1, r1, #21
 8000d6c:	0fc0      	lsrs	r0, r0, #31
 8000d6e:	4682      	mov	sl, r0
 8000d70:	46ac      	mov	ip, r5
 8000d72:	00ff      	lsls	r7, r7, #3
 8000d74:	1a72      	subs	r2, r6, r1
 8000d76:	4284      	cmp	r4, r0
 8000d78:	d100      	bne.n	8000d7c <__aeabi_dadd+0x40>
 8000d7a:	e098      	b.n	8000eae <__aeabi_dadd+0x172>
 8000d7c:	2a00      	cmp	r2, #0
 8000d7e:	dc00      	bgt.n	8000d82 <__aeabi_dadd+0x46>
 8000d80:	e081      	b.n	8000e86 <__aeabi_dadd+0x14a>
 8000d82:	2900      	cmp	r1, #0
 8000d84:	d100      	bne.n	8000d88 <__aeabi_dadd+0x4c>
 8000d86:	e0b6      	b.n	8000ef6 <__aeabi_dadd+0x1ba>
 8000d88:	49c9      	ldr	r1, [pc, #804]	; (80010b0 <__aeabi_dadd+0x374>)
 8000d8a:	428e      	cmp	r6, r1
 8000d8c:	d100      	bne.n	8000d90 <__aeabi_dadd+0x54>
 8000d8e:	e172      	b.n	8001076 <__aeabi_dadd+0x33a>
 8000d90:	2180      	movs	r1, #128	; 0x80
 8000d92:	0028      	movs	r0, r5
 8000d94:	0409      	lsls	r1, r1, #16
 8000d96:	4308      	orrs	r0, r1
 8000d98:	4684      	mov	ip, r0
 8000d9a:	2a38      	cmp	r2, #56	; 0x38
 8000d9c:	dd00      	ble.n	8000da0 <__aeabi_dadd+0x64>
 8000d9e:	e15e      	b.n	800105e <__aeabi_dadd+0x322>
 8000da0:	2a1f      	cmp	r2, #31
 8000da2:	dd00      	ble.n	8000da6 <__aeabi_dadd+0x6a>
 8000da4:	e1ee      	b.n	8001184 <__aeabi_dadd+0x448>
 8000da6:	2020      	movs	r0, #32
 8000da8:	0039      	movs	r1, r7
 8000daa:	4665      	mov	r5, ip
 8000dac:	1a80      	subs	r0, r0, r2
 8000dae:	4087      	lsls	r7, r0
 8000db0:	40d1      	lsrs	r1, r2
 8000db2:	4085      	lsls	r5, r0
 8000db4:	430d      	orrs	r5, r1
 8000db6:	0039      	movs	r1, r7
 8000db8:	1e4f      	subs	r7, r1, #1
 8000dba:	41b9      	sbcs	r1, r7
 8000dbc:	4667      	mov	r7, ip
 8000dbe:	40d7      	lsrs	r7, r2
 8000dc0:	4329      	orrs	r1, r5
 8000dc2:	1bdb      	subs	r3, r3, r7
 8000dc4:	464a      	mov	r2, r9
 8000dc6:	1a55      	subs	r5, r2, r1
 8000dc8:	45a9      	cmp	r9, r5
 8000dca:	4189      	sbcs	r1, r1
 8000dcc:	4249      	negs	r1, r1
 8000dce:	1a5b      	subs	r3, r3, r1
 8000dd0:	4698      	mov	r8, r3
 8000dd2:	4643      	mov	r3, r8
 8000dd4:	021b      	lsls	r3, r3, #8
 8000dd6:	d400      	bmi.n	8000dda <__aeabi_dadd+0x9e>
 8000dd8:	e0cc      	b.n	8000f74 <__aeabi_dadd+0x238>
 8000dda:	4643      	mov	r3, r8
 8000ddc:	025b      	lsls	r3, r3, #9
 8000dde:	0a5b      	lsrs	r3, r3, #9
 8000de0:	4698      	mov	r8, r3
 8000de2:	4643      	mov	r3, r8
 8000de4:	2b00      	cmp	r3, #0
 8000de6:	d100      	bne.n	8000dea <__aeabi_dadd+0xae>
 8000de8:	e12c      	b.n	8001044 <__aeabi_dadd+0x308>
 8000dea:	4640      	mov	r0, r8
 8000dec:	f001 fdda 	bl	80029a4 <__clzsi2>
 8000df0:	0001      	movs	r1, r0
 8000df2:	3908      	subs	r1, #8
 8000df4:	2220      	movs	r2, #32
 8000df6:	0028      	movs	r0, r5
 8000df8:	4643      	mov	r3, r8
 8000dfa:	1a52      	subs	r2, r2, r1
 8000dfc:	408b      	lsls	r3, r1
 8000dfe:	40d0      	lsrs	r0, r2
 8000e00:	408d      	lsls	r5, r1
 8000e02:	4303      	orrs	r3, r0
 8000e04:	428e      	cmp	r6, r1
 8000e06:	dd00      	ble.n	8000e0a <__aeabi_dadd+0xce>
 8000e08:	e117      	b.n	800103a <__aeabi_dadd+0x2fe>
 8000e0a:	1b8e      	subs	r6, r1, r6
 8000e0c:	1c72      	adds	r2, r6, #1
 8000e0e:	2a1f      	cmp	r2, #31
 8000e10:	dd00      	ble.n	8000e14 <__aeabi_dadd+0xd8>
 8000e12:	e1a7      	b.n	8001164 <__aeabi_dadd+0x428>
 8000e14:	2120      	movs	r1, #32
 8000e16:	0018      	movs	r0, r3
 8000e18:	002e      	movs	r6, r5
 8000e1a:	1a89      	subs	r1, r1, r2
 8000e1c:	408d      	lsls	r5, r1
 8000e1e:	4088      	lsls	r0, r1
 8000e20:	40d6      	lsrs	r6, r2
 8000e22:	40d3      	lsrs	r3, r2
 8000e24:	1e69      	subs	r1, r5, #1
 8000e26:	418d      	sbcs	r5, r1
 8000e28:	4330      	orrs	r0, r6
 8000e2a:	4698      	mov	r8, r3
 8000e2c:	2600      	movs	r6, #0
 8000e2e:	4305      	orrs	r5, r0
 8000e30:	076b      	lsls	r3, r5, #29
 8000e32:	d009      	beq.n	8000e48 <__aeabi_dadd+0x10c>
 8000e34:	230f      	movs	r3, #15
 8000e36:	402b      	ands	r3, r5
 8000e38:	2b04      	cmp	r3, #4
 8000e3a:	d005      	beq.n	8000e48 <__aeabi_dadd+0x10c>
 8000e3c:	1d2b      	adds	r3, r5, #4
 8000e3e:	42ab      	cmp	r3, r5
 8000e40:	41ad      	sbcs	r5, r5
 8000e42:	426d      	negs	r5, r5
 8000e44:	44a8      	add	r8, r5
 8000e46:	001d      	movs	r5, r3
 8000e48:	4643      	mov	r3, r8
 8000e4a:	021b      	lsls	r3, r3, #8
 8000e4c:	d400      	bmi.n	8000e50 <__aeabi_dadd+0x114>
 8000e4e:	e094      	b.n	8000f7a <__aeabi_dadd+0x23e>
 8000e50:	4b97      	ldr	r3, [pc, #604]	; (80010b0 <__aeabi_dadd+0x374>)
 8000e52:	1c72      	adds	r2, r6, #1
 8000e54:	429a      	cmp	r2, r3
 8000e56:	d100      	bne.n	8000e5a <__aeabi_dadd+0x11e>
 8000e58:	e09d      	b.n	8000f96 <__aeabi_dadd+0x25a>
 8000e5a:	4641      	mov	r1, r8
 8000e5c:	4b95      	ldr	r3, [pc, #596]	; (80010b4 <__aeabi_dadd+0x378>)
 8000e5e:	08ed      	lsrs	r5, r5, #3
 8000e60:	4019      	ands	r1, r3
 8000e62:	000b      	movs	r3, r1
 8000e64:	0552      	lsls	r2, r2, #21
 8000e66:	0749      	lsls	r1, r1, #29
 8000e68:	025b      	lsls	r3, r3, #9
 8000e6a:	4329      	orrs	r1, r5
 8000e6c:	0b1b      	lsrs	r3, r3, #12
 8000e6e:	0d52      	lsrs	r2, r2, #21
 8000e70:	0512      	lsls	r2, r2, #20
 8000e72:	4313      	orrs	r3, r2
 8000e74:	07e4      	lsls	r4, r4, #31
 8000e76:	4323      	orrs	r3, r4
 8000e78:	0008      	movs	r0, r1
 8000e7a:	0019      	movs	r1, r3
 8000e7c:	bce0      	pop	{r5, r6, r7}
 8000e7e:	46ba      	mov	sl, r7
 8000e80:	46b1      	mov	r9, r6
 8000e82:	46a8      	mov	r8, r5
 8000e84:	bdf0      	pop	{r4, r5, r6, r7, pc}
 8000e86:	2a00      	cmp	r2, #0
 8000e88:	d043      	beq.n	8000f12 <__aeabi_dadd+0x1d6>
 8000e8a:	1b8a      	subs	r2, r1, r6
 8000e8c:	2e00      	cmp	r6, #0
 8000e8e:	d000      	beq.n	8000e92 <__aeabi_dadd+0x156>
 8000e90:	e12a      	b.n	80010e8 <__aeabi_dadd+0x3ac>
 8000e92:	464c      	mov	r4, r9
 8000e94:	431c      	orrs	r4, r3
 8000e96:	d100      	bne.n	8000e9a <__aeabi_dadd+0x15e>
 8000e98:	e1d1      	b.n	800123e <__aeabi_dadd+0x502>
 8000e9a:	1e54      	subs	r4, r2, #1
 8000e9c:	2a01      	cmp	r2, #1
 8000e9e:	d100      	bne.n	8000ea2 <__aeabi_dadd+0x166>
 8000ea0:	e21f      	b.n	80012e2 <__aeabi_dadd+0x5a6>
 8000ea2:	4d83      	ldr	r5, [pc, #524]	; (80010b0 <__aeabi_dadd+0x374>)
 8000ea4:	42aa      	cmp	r2, r5
 8000ea6:	d100      	bne.n	8000eaa <__aeabi_dadd+0x16e>
 8000ea8:	e272      	b.n	8001390 <__aeabi_dadd+0x654>
 8000eaa:	0022      	movs	r2, r4
 8000eac:	e123      	b.n	80010f6 <__aeabi_dadd+0x3ba>
 8000eae:	2a00      	cmp	r2, #0
 8000eb0:	dc00      	bgt.n	8000eb4 <__aeabi_dadd+0x178>
 8000eb2:	e098      	b.n	8000fe6 <__aeabi_dadd+0x2aa>
 8000eb4:	2900      	cmp	r1, #0
 8000eb6:	d042      	beq.n	8000f3e <__aeabi_dadd+0x202>
 8000eb8:	497d      	ldr	r1, [pc, #500]	; (80010b0 <__aeabi_dadd+0x374>)
 8000eba:	428e      	cmp	r6, r1
 8000ebc:	d100      	bne.n	8000ec0 <__aeabi_dadd+0x184>
 8000ebe:	e0da      	b.n	8001076 <__aeabi_dadd+0x33a>
 8000ec0:	2180      	movs	r1, #128	; 0x80
 8000ec2:	0028      	movs	r0, r5
 8000ec4:	0409      	lsls	r1, r1, #16
 8000ec6:	4308      	orrs	r0, r1
 8000ec8:	4684      	mov	ip, r0
 8000eca:	2a38      	cmp	r2, #56	; 0x38
 8000ecc:	dd00      	ble.n	8000ed0 <__aeabi_dadd+0x194>
 8000ece:	e129      	b.n	8001124 <__aeabi_dadd+0x3e8>
 8000ed0:	2a1f      	cmp	r2, #31
 8000ed2:	dc00      	bgt.n	8000ed6 <__aeabi_dadd+0x19a>
 8000ed4:	e187      	b.n	80011e6 <__aeabi_dadd+0x4aa>
 8000ed6:	0011      	movs	r1, r2
 8000ed8:	4665      	mov	r5, ip
 8000eda:	3920      	subs	r1, #32
 8000edc:	40cd      	lsrs	r5, r1
 8000ede:	2a20      	cmp	r2, #32
 8000ee0:	d004      	beq.n	8000eec <__aeabi_dadd+0x1b0>
 8000ee2:	2040      	movs	r0, #64	; 0x40
 8000ee4:	4661      	mov	r1, ip
 8000ee6:	1a82      	subs	r2, r0, r2
 8000ee8:	4091      	lsls	r1, r2
 8000eea:	430f      	orrs	r7, r1
 8000eec:	0039      	movs	r1, r7
 8000eee:	1e4f      	subs	r7, r1, #1
 8000ef0:	41b9      	sbcs	r1, r7
 8000ef2:	430d      	orrs	r5, r1
 8000ef4:	e11b      	b.n	800112e <__aeabi_dadd+0x3f2>
 8000ef6:	0029      	movs	r1, r5
 8000ef8:	4339      	orrs	r1, r7
 8000efa:	d100      	bne.n	8000efe <__aeabi_dadd+0x1c2>
 8000efc:	e0b5      	b.n	800106a <__aeabi_dadd+0x32e>
 8000efe:	1e51      	subs	r1, r2, #1
 8000f00:	2a01      	cmp	r2, #1
 8000f02:	d100      	bne.n	8000f06 <__aeabi_dadd+0x1ca>
 8000f04:	e1ab      	b.n	800125e <__aeabi_dadd+0x522>
 8000f06:	486a      	ldr	r0, [pc, #424]	; (80010b0 <__aeabi_dadd+0x374>)
 8000f08:	4282      	cmp	r2, r0
 8000f0a:	d100      	bne.n	8000f0e <__aeabi_dadd+0x1d2>
 8000f0c:	e1b2      	b.n	8001274 <__aeabi_dadd+0x538>
 8000f0e:	000a      	movs	r2, r1
 8000f10:	e743      	b.n	8000d9a <__aeabi_dadd+0x5e>
 8000f12:	4969      	ldr	r1, [pc, #420]	; (80010b8 <__aeabi_dadd+0x37c>)
 8000f14:	1c75      	adds	r5, r6, #1
 8000f16:	420d      	tst	r5, r1
 8000f18:	d000      	beq.n	8000f1c <__aeabi_dadd+0x1e0>
 8000f1a:	e0cf      	b.n	80010bc <__aeabi_dadd+0x380>
 8000f1c:	2e00      	cmp	r6, #0
 8000f1e:	d000      	beq.n	8000f22 <__aeabi_dadd+0x1e6>
 8000f20:	e193      	b.n	800124a <__aeabi_dadd+0x50e>
 8000f22:	4649      	mov	r1, r9
 8000f24:	4319      	orrs	r1, r3
 8000f26:	d100      	bne.n	8000f2a <__aeabi_dadd+0x1ee>
 8000f28:	e1d1      	b.n	80012ce <__aeabi_dadd+0x592>
 8000f2a:	4661      	mov	r1, ip
 8000f2c:	4339      	orrs	r1, r7
 8000f2e:	d000      	beq.n	8000f32 <__aeabi_dadd+0x1f6>
 8000f30:	e1e3      	b.n	80012fa <__aeabi_dadd+0x5be>
 8000f32:	4649      	mov	r1, r9
 8000f34:	0758      	lsls	r0, r3, #29
 8000f36:	08c9      	lsrs	r1, r1, #3
 8000f38:	4301      	orrs	r1, r0
 8000f3a:	08db      	lsrs	r3, r3, #3
 8000f3c:	e026      	b.n	8000f8c <__aeabi_dadd+0x250>
 8000f3e:	0029      	movs	r1, r5
 8000f40:	4339      	orrs	r1, r7
 8000f42:	d100      	bne.n	8000f46 <__aeabi_dadd+0x20a>
 8000f44:	e091      	b.n	800106a <__aeabi_dadd+0x32e>
 8000f46:	1e51      	subs	r1, r2, #1
 8000f48:	2a01      	cmp	r2, #1
 8000f4a:	d005      	beq.n	8000f58 <__aeabi_dadd+0x21c>
 8000f4c:	4858      	ldr	r0, [pc, #352]	; (80010b0 <__aeabi_dadd+0x374>)
 8000f4e:	4282      	cmp	r2, r0
 8000f50:	d100      	bne.n	8000f54 <__aeabi_dadd+0x218>
 8000f52:	e18f      	b.n	8001274 <__aeabi_dadd+0x538>
 8000f54:	000a      	movs	r2, r1
 8000f56:	e7b8      	b.n	8000eca <__aeabi_dadd+0x18e>
 8000f58:	003d      	movs	r5, r7
 8000f5a:	444d      	add	r5, r9
 8000f5c:	454d      	cmp	r5, r9
 8000f5e:	4189      	sbcs	r1, r1
 8000f60:	4463      	add	r3, ip
 8000f62:	4698      	mov	r8, r3
 8000f64:	4249      	negs	r1, r1
 8000f66:	4488      	add	r8, r1
 8000f68:	4643      	mov	r3, r8
 8000f6a:	2602      	movs	r6, #2
 8000f6c:	021b      	lsls	r3, r3, #8
 8000f6e:	d500      	bpl.n	8000f72 <__aeabi_dadd+0x236>
 8000f70:	e0eb      	b.n	800114a <__aeabi_dadd+0x40e>
 8000f72:	3e01      	subs	r6, #1
 8000f74:	076b      	lsls	r3, r5, #29
 8000f76:	d000      	beq.n	8000f7a <__aeabi_dadd+0x23e>
 8000f78:	e75c      	b.n	8000e34 <__aeabi_dadd+0xf8>
 8000f7a:	4643      	mov	r3, r8
 8000f7c:	08e9      	lsrs	r1, r5, #3
 8000f7e:	075a      	lsls	r2, r3, #29
 8000f80:	4311      	orrs	r1, r2
 8000f82:	0032      	movs	r2, r6
 8000f84:	08db      	lsrs	r3, r3, #3
 8000f86:	484a      	ldr	r0, [pc, #296]	; (80010b0 <__aeabi_dadd+0x374>)
 8000f88:	4282      	cmp	r2, r0
 8000f8a:	d021      	beq.n	8000fd0 <__aeabi_dadd+0x294>
 8000f8c:	031b      	lsls	r3, r3, #12
 8000f8e:	0552      	lsls	r2, r2, #21
 8000f90:	0b1b      	lsrs	r3, r3, #12
 8000f92:	0d52      	lsrs	r2, r2, #21
 8000f94:	e76c      	b.n	8000e70 <__aeabi_dadd+0x134>
 8000f96:	2300      	movs	r3, #0
 8000f98:	2100      	movs	r1, #0
 8000f9a:	e769      	b.n	8000e70 <__aeabi_dadd+0x134>
 8000f9c:	002a      	movs	r2, r5
 8000f9e:	433a      	orrs	r2, r7
 8000fa0:	d069      	beq.n	8001076 <__aeabi_dadd+0x33a>
 8000fa2:	464a      	mov	r2, r9
 8000fa4:	0758      	lsls	r0, r3, #29
 8000fa6:	08d1      	lsrs	r1, r2, #3
 8000fa8:	08da      	lsrs	r2, r3, #3
 8000faa:	2380      	movs	r3, #128	; 0x80
 8000fac:	031b      	lsls	r3, r3, #12
 8000fae:	4308      	orrs	r0, r1
 8000fb0:	421a      	tst	r2, r3
 8000fb2:	d007      	beq.n	8000fc4 <__aeabi_dadd+0x288>
 8000fb4:	0029      	movs	r1, r5
 8000fb6:	08ed      	lsrs	r5, r5, #3
 8000fb8:	421d      	tst	r5, r3
 8000fba:	d103      	bne.n	8000fc4 <__aeabi_dadd+0x288>
 8000fbc:	002a      	movs	r2, r5
 8000fbe:	08ff      	lsrs	r7, r7, #3
 8000fc0:	0748      	lsls	r0, r1, #29
 8000fc2:	4338      	orrs	r0, r7
 8000fc4:	0f43      	lsrs	r3, r0, #29
 8000fc6:	00c1      	lsls	r1, r0, #3
 8000fc8:	075b      	lsls	r3, r3, #29
 8000fca:	08c9      	lsrs	r1, r1, #3
 8000fcc:	4319      	orrs	r1, r3
 8000fce:	0013      	movs	r3, r2
 8000fd0:	000a      	movs	r2, r1
 8000fd2:	431a      	orrs	r2, r3
 8000fd4:	d100      	bne.n	8000fd8 <__aeabi_dadd+0x29c>
 8000fd6:	e213      	b.n	8001400 <__aeabi_dadd+0x6c4>
 8000fd8:	2280      	movs	r2, #128	; 0x80
 8000fda:	0312      	lsls	r2, r2, #12
 8000fdc:	4313      	orrs	r3, r2
 8000fde:	031b      	lsls	r3, r3, #12
 8000fe0:	4a33      	ldr	r2, [pc, #204]	; (80010b0 <__aeabi_dadd+0x374>)
 8000fe2:	0b1b      	lsrs	r3, r3, #12
 8000fe4:	e744      	b.n	8000e70 <__aeabi_dadd+0x134>
 8000fe6:	2a00      	cmp	r2, #0
 8000fe8:	d04b      	beq.n	8001082 <__aeabi_dadd+0x346>
 8000fea:	1b8a      	subs	r2, r1, r6
 8000fec:	2e00      	cmp	r6, #0
 8000fee:	d100      	bne.n	8000ff2 <__aeabi_dadd+0x2b6>
 8000ff0:	e0e7      	b.n	80011c2 <__aeabi_dadd+0x486>
 8000ff2:	482f      	ldr	r0, [pc, #188]	; (80010b0 <__aeabi_dadd+0x374>)
 8000ff4:	4281      	cmp	r1, r0
 8000ff6:	d100      	bne.n	8000ffa <__aeabi_dadd+0x2be>
 8000ff8:	e195      	b.n	8001326 <__aeabi_dadd+0x5ea>
 8000ffa:	2080      	movs	r0, #128	; 0x80
 8000ffc:	0400      	lsls	r0, r0, #16
 8000ffe:	4303      	orrs	r3, r0
 8001000:	2a38      	cmp	r2, #56	; 0x38
 8001002:	dd00      	ble.n	8001006 <__aeabi_dadd+0x2ca>
 8001004:	e143      	b.n	800128e <__aeabi_dadd+0x552>
 8001006:	2a1f      	cmp	r2, #31
 8001008:	dd00      	ble.n	800100c <__aeabi_dadd+0x2d0>
 800100a:	e1db      	b.n	80013c4 <__aeabi_dadd+0x688>
 800100c:	2020      	movs	r0, #32
 800100e:	001d      	movs	r5, r3
 8001010:	464e      	mov	r6, r9
 8001012:	1a80      	subs	r0, r0, r2
 8001014:	4085      	lsls	r5, r0
 8001016:	40d6      	lsrs	r6, r2
 8001018:	4335      	orrs	r5, r6
 800101a:	464e      	mov	r6, r9
 800101c:	4086      	lsls	r6, r0
 800101e:	0030      	movs	r0, r6
 8001020:	40d3      	lsrs	r3, r2
 8001022:	1e46      	subs	r6, r0, #1
 8001024:	41b0      	sbcs	r0, r6
 8001026:	449c      	add	ip, r3
 8001028:	4305      	orrs	r5, r0
 800102a:	19ed      	adds	r5, r5, r7
 800102c:	42bd      	cmp	r5, r7
 800102e:	419b      	sbcs	r3, r3
 8001030:	425b      	negs	r3, r3
 8001032:	4463      	add	r3, ip
 8001034:	4698      	mov	r8, r3
 8001036:	000e      	movs	r6, r1
 8001038:	e07f      	b.n	800113a <__aeabi_dadd+0x3fe>
 800103a:	4a1e      	ldr	r2, [pc, #120]	; (80010b4 <__aeabi_dadd+0x378>)
 800103c:	1a76      	subs	r6, r6, r1
 800103e:	4013      	ands	r3, r2
 8001040:	4698      	mov	r8, r3
 8001042:	e6f5      	b.n	8000e30 <__aeabi_dadd+0xf4>
 8001044:	0028      	movs	r0, r5
 8001046:	f001 fcad 	bl	80029a4 <__clzsi2>
 800104a:	0001      	movs	r1, r0
 800104c:	3118      	adds	r1, #24
 800104e:	291f      	cmp	r1, #31
 8001050:	dc00      	bgt.n	8001054 <__aeabi_dadd+0x318>
 8001052:	e6cf      	b.n	8000df4 <__aeabi_dadd+0xb8>
 8001054:	002b      	movs	r3, r5
 8001056:	3808      	subs	r0, #8
 8001058:	4083      	lsls	r3, r0
 800105a:	2500      	movs	r5, #0
 800105c:	e6d2      	b.n	8000e04 <__aeabi_dadd+0xc8>
 800105e:	4662      	mov	r2, ip
 8001060:	433a      	orrs	r2, r7
 8001062:	0011      	movs	r1, r2
 8001064:	1e4f      	subs	r7, r1, #1
 8001066:	41b9      	sbcs	r1, r7
 8001068:	e6ac      	b.n	8000dc4 <__aeabi_dadd+0x88>
 800106a:	4649      	mov	r1, r9
 800106c:	0758      	lsls	r0, r3, #29
 800106e:	08c9      	lsrs	r1, r1, #3
 8001070:	4301      	orrs	r1, r0
 8001072:	08db      	lsrs	r3, r3, #3
 8001074:	e787      	b.n	8000f86 <__aeabi_dadd+0x24a>
 8001076:	4649      	mov	r1, r9
 8001078:	075a      	lsls	r2, r3, #29
 800107a:	08c9      	lsrs	r1, r1, #3
 800107c:	4311      	orrs	r1, r2
 800107e:	08db      	lsrs	r3, r3, #3
 8001080:	e7a6      	b.n	8000fd0 <__aeabi_dadd+0x294>
 8001082:	490d      	ldr	r1, [pc, #52]	; (80010b8 <__aeabi_dadd+0x37c>)
 8001084:	1c70      	adds	r0, r6, #1
 8001086:	4208      	tst	r0, r1
 8001088:	d000      	beq.n	800108c <__aeabi_dadd+0x350>
 800108a:	e0bb      	b.n	8001204 <__aeabi_dadd+0x4c8>
 800108c:	2e00      	cmp	r6, #0
 800108e:	d000      	beq.n	8001092 <__aeabi_dadd+0x356>
 8001090:	e114      	b.n	80012bc <__aeabi_dadd+0x580>
 8001092:	4649      	mov	r1, r9
 8001094:	4319      	orrs	r1, r3
 8001096:	d100      	bne.n	800109a <__aeabi_dadd+0x35e>
 8001098:	e175      	b.n	8001386 <__aeabi_dadd+0x64a>
 800109a:	0029      	movs	r1, r5
 800109c:	4339      	orrs	r1, r7
 800109e:	d000      	beq.n	80010a2 <__aeabi_dadd+0x366>
 80010a0:	e17e      	b.n	80013a0 <__aeabi_dadd+0x664>
 80010a2:	4649      	mov	r1, r9
 80010a4:	0758      	lsls	r0, r3, #29
 80010a6:	08c9      	lsrs	r1, r1, #3
 80010a8:	4301      	orrs	r1, r0
 80010aa:	08db      	lsrs	r3, r3, #3
 80010ac:	e76e      	b.n	8000f8c <__aeabi_dadd+0x250>
 80010ae:	46c0      	nop			; (mov r8, r8)
 80010b0:	000007ff 	.word	0x000007ff
 80010b4:	ff7fffff 	.word	0xff7fffff
 80010b8:	000007fe 	.word	0x000007fe
 80010bc:	4649      	mov	r1, r9
 80010be:	1bcd      	subs	r5, r1, r7
 80010c0:	4661      	mov	r1, ip
 80010c2:	1a58      	subs	r0, r3, r1
 80010c4:	45a9      	cmp	r9, r5
 80010c6:	4189      	sbcs	r1, r1
 80010c8:	4249      	negs	r1, r1
 80010ca:	4688      	mov	r8, r1
 80010cc:	0001      	movs	r1, r0
 80010ce:	4640      	mov	r0, r8
 80010d0:	1a09      	subs	r1, r1, r0
 80010d2:	4688      	mov	r8, r1
 80010d4:	0209      	lsls	r1, r1, #8
 80010d6:	d500      	bpl.n	80010da <__aeabi_dadd+0x39e>
 80010d8:	e0a6      	b.n	8001228 <__aeabi_dadd+0x4ec>
 80010da:	4641      	mov	r1, r8
 80010dc:	4329      	orrs	r1, r5
 80010de:	d000      	beq.n	80010e2 <__aeabi_dadd+0x3a6>
 80010e0:	e67f      	b.n	8000de2 <__aeabi_dadd+0xa6>
 80010e2:	2300      	movs	r3, #0
 80010e4:	2400      	movs	r4, #0
 80010e6:	e751      	b.n	8000f8c <__aeabi_dadd+0x250>
 80010e8:	4cc7      	ldr	r4, [pc, #796]	; (8001408 <__aeabi_dadd+0x6cc>)
 80010ea:	42a1      	cmp	r1, r4
 80010ec:	d100      	bne.n	80010f0 <__aeabi_dadd+0x3b4>
 80010ee:	e0c7      	b.n	8001280 <__aeabi_dadd+0x544>
 80010f0:	2480      	movs	r4, #128	; 0x80
 80010f2:	0424      	lsls	r4, r4, #16
 80010f4:	4323      	orrs	r3, r4
 80010f6:	2a38      	cmp	r2, #56	; 0x38
 80010f8:	dc54      	bgt.n	80011a4 <__aeabi_dadd+0x468>
 80010fa:	2a1f      	cmp	r2, #31
 80010fc:	dd00      	ble.n	8001100 <__aeabi_dadd+0x3c4>
 80010fe:	e0cc      	b.n	800129a <__aeabi_dadd+0x55e>
 8001100:	2420      	movs	r4, #32
 8001102:	4648      	mov	r0, r9
 8001104:	1aa4      	subs	r4, r4, r2
 8001106:	001d      	movs	r5, r3
 8001108:	464e      	mov	r6, r9
 800110a:	40a0      	lsls	r0, r4
 800110c:	40d6      	lsrs	r6, r2
 800110e:	40a5      	lsls	r5, r4
 8001110:	0004      	movs	r4, r0
 8001112:	40d3      	lsrs	r3, r2
 8001114:	4662      	mov	r2, ip
 8001116:	4335      	orrs	r5, r6
 8001118:	1e66      	subs	r6, r4, #1
 800111a:	41b4      	sbcs	r4, r6
 800111c:	1ad3      	subs	r3, r2, r3
 800111e:	469c      	mov	ip, r3
 8001120:	4325      	orrs	r5, r4
 8001122:	e044      	b.n	80011ae <__aeabi_dadd+0x472>
 8001124:	4662      	mov	r2, ip
 8001126:	433a      	orrs	r2, r7
 8001128:	0015      	movs	r5, r2
 800112a:	1e6f      	subs	r7, r5, #1
 800112c:	41bd      	sbcs	r5, r7
 800112e:	444d      	add	r5, r9
 8001130:	454d      	cmp	r5, r9
 8001132:	4189      	sbcs	r1, r1
 8001134:	4249      	negs	r1, r1
 8001136:	4688      	mov	r8, r1
 8001138:	4498      	add	r8, r3
 800113a:	4643      	mov	r3, r8
 800113c:	021b      	lsls	r3, r3, #8
 800113e:	d400      	bmi.n	8001142 <__aeabi_dadd+0x406>
 8001140:	e718      	b.n	8000f74 <__aeabi_dadd+0x238>
 8001142:	4bb1      	ldr	r3, [pc, #708]	; (8001408 <__aeabi_dadd+0x6cc>)
 8001144:	3601      	adds	r6, #1
 8001146:	429e      	cmp	r6, r3
 8001148:	d049      	beq.n	80011de <__aeabi_dadd+0x4a2>
 800114a:	4642      	mov	r2, r8
 800114c:	4baf      	ldr	r3, [pc, #700]	; (800140c <__aeabi_dadd+0x6d0>)
 800114e:	2101      	movs	r1, #1
 8001150:	401a      	ands	r2, r3
 8001152:	0013      	movs	r3, r2
 8001154:	086a      	lsrs	r2, r5, #1
 8001156:	400d      	ands	r5, r1
 8001158:	4315      	orrs	r5, r2
 800115a:	07d9      	lsls	r1, r3, #31
 800115c:	085b      	lsrs	r3, r3, #1
 800115e:	4698      	mov	r8, r3
 8001160:	430d      	orrs	r5, r1
 8001162:	e665      	b.n	8000e30 <__aeabi_dadd+0xf4>
 8001164:	0018      	movs	r0, r3
 8001166:	3e1f      	subs	r6, #31
 8001168:	40f0      	lsrs	r0, r6
 800116a:	2a20      	cmp	r2, #32
 800116c:	d003      	beq.n	8001176 <__aeabi_dadd+0x43a>
 800116e:	2140      	movs	r1, #64	; 0x40
 8001170:	1a8a      	subs	r2, r1, r2
 8001172:	4093      	lsls	r3, r2
 8001174:	431d      	orrs	r5, r3
 8001176:	1e69      	subs	r1, r5, #1
 8001178:	418d      	sbcs	r5, r1
 800117a:	2300      	movs	r3, #0
 800117c:	2600      	movs	r6, #0
 800117e:	4698      	mov	r8, r3
 8001180:	4305      	orrs	r5, r0
 8001182:	e6f7      	b.n	8000f74 <__aeabi_dadd+0x238>
 8001184:	0011      	movs	r1, r2
 8001186:	4665      	mov	r5, ip
 8001188:	3920      	subs	r1, #32
 800118a:	40cd      	lsrs	r5, r1
 800118c:	2a20      	cmp	r2, #32
 800118e:	d004      	beq.n	800119a <__aeabi_dadd+0x45e>
 8001190:	2040      	movs	r0, #64	; 0x40
 8001192:	4661      	mov	r1, ip
 8001194:	1a82      	subs	r2, r0, r2
 8001196:	4091      	lsls	r1, r2
 8001198:	430f      	orrs	r7, r1
 800119a:	0039      	movs	r1, r7
 800119c:	1e4f      	subs	r7, r1, #1
 800119e:	41b9      	sbcs	r1, r7
 80011a0:	4329      	orrs	r1, r5
 80011a2:	e60f      	b.n	8000dc4 <__aeabi_dadd+0x88>
 80011a4:	464a      	mov	r2, r9
 80011a6:	4313      	orrs	r3, r2
 80011a8:	001d      	movs	r5, r3
 80011aa:	1e6b      	subs	r3, r5, #1
 80011ac:	419d      	sbcs	r5, r3
 80011ae:	1b7d      	subs	r5, r7, r5
 80011b0:	42af      	cmp	r7, r5
 80011b2:	419b      	sbcs	r3, r3
 80011b4:	4662      	mov	r2, ip
 80011b6:	425b      	negs	r3, r3
 80011b8:	1ad3      	subs	r3, r2, r3
 80011ba:	4698      	mov	r8, r3
 80011bc:	4654      	mov	r4, sl
 80011be:	000e      	movs	r6, r1
 80011c0:	e607      	b.n	8000dd2 <__aeabi_dadd+0x96>
 80011c2:	4648      	mov	r0, r9
 80011c4:	4318      	orrs	r0, r3
 80011c6:	d100      	bne.n	80011ca <__aeabi_dadd+0x48e>
 80011c8:	e0b3      	b.n	8001332 <__aeabi_dadd+0x5f6>
 80011ca:	1e50      	subs	r0, r2, #1
 80011cc:	2a01      	cmp	r2, #1
 80011ce:	d100      	bne.n	80011d2 <__aeabi_dadd+0x496>
 80011d0:	e10d      	b.n	80013ee <__aeabi_dadd+0x6b2>
 80011d2:	4d8d      	ldr	r5, [pc, #564]	; (8001408 <__aeabi_dadd+0x6cc>)
 80011d4:	42aa      	cmp	r2, r5
 80011d6:	d100      	bne.n	80011da <__aeabi_dadd+0x49e>
 80011d8:	e0a5      	b.n	8001326 <__aeabi_dadd+0x5ea>
 80011da:	0002      	movs	r2, r0
 80011dc:	e710      	b.n	8001000 <__aeabi_dadd+0x2c4>
 80011de:	0032      	movs	r2, r6
 80011e0:	2300      	movs	r3, #0
 80011e2:	2100      	movs	r1, #0
 80011e4:	e644      	b.n	8000e70 <__aeabi_dadd+0x134>
 80011e6:	2120      	movs	r1, #32
 80011e8:	0038      	movs	r0, r7
 80011ea:	1a89      	subs	r1, r1, r2
 80011ec:	4665      	mov	r5, ip
 80011ee:	408f      	lsls	r7, r1
 80011f0:	408d      	lsls	r5, r1
 80011f2:	40d0      	lsrs	r0, r2
 80011f4:	1e79      	subs	r1, r7, #1
 80011f6:	418f      	sbcs	r7, r1
 80011f8:	4305      	orrs	r5, r0
 80011fa:	433d      	orrs	r5, r7
 80011fc:	4667      	mov	r7, ip
 80011fe:	40d7      	lsrs	r7, r2
 8001200:	19db      	adds	r3, r3, r7
 8001202:	e794      	b.n	800112e <__aeabi_dadd+0x3f2>
 8001204:	4a80      	ldr	r2, [pc, #512]	; (8001408 <__aeabi_dadd+0x6cc>)
 8001206:	4290      	cmp	r0, r2
 8001208:	d100      	bne.n	800120c <__aeabi_dadd+0x4d0>
 800120a:	e0ec      	b.n	80013e6 <__aeabi_dadd+0x6aa>
 800120c:	0039      	movs	r1, r7
 800120e:	4449      	add	r1, r9
 8001210:	4549      	cmp	r1, r9
 8001212:	4192      	sbcs	r2, r2
 8001214:	4463      	add	r3, ip
 8001216:	4252      	negs	r2, r2
 8001218:	189b      	adds	r3, r3, r2
 800121a:	07dd      	lsls	r5, r3, #31
 800121c:	0849      	lsrs	r1, r1, #1
 800121e:	085b      	lsrs	r3, r3, #1
 8001220:	4698      	mov	r8, r3
 8001222:	0006      	movs	r6, r0
 8001224:	430d      	orrs	r5, r1
 8001226:	e6a5      	b.n	8000f74 <__aeabi_dadd+0x238>
 8001228:	464a      	mov	r2, r9
 800122a:	1abd      	subs	r5, r7, r2
 800122c:	42af      	cmp	r7, r5
 800122e:	4189      	sbcs	r1, r1
 8001230:	4662      	mov	r2, ip
 8001232:	4249      	negs	r1, r1
 8001234:	1ad3      	subs	r3, r2, r3
 8001236:	1a5b      	subs	r3, r3, r1
 8001238:	4698      	mov	r8, r3
 800123a:	4654      	mov	r4, sl
 800123c:	e5d1      	b.n	8000de2 <__aeabi_dadd+0xa6>
 800123e:	076c      	lsls	r4, r5, #29
 8001240:	08f9      	lsrs	r1, r7, #3
 8001242:	4321      	orrs	r1, r4
 8001244:	08eb      	lsrs	r3, r5, #3
 8001246:	0004      	movs	r4, r0
 8001248:	e69d      	b.n	8000f86 <__aeabi_dadd+0x24a>
 800124a:	464a      	mov	r2, r9
 800124c:	431a      	orrs	r2, r3
 800124e:	d175      	bne.n	800133c <__aeabi_dadd+0x600>
 8001250:	4661      	mov	r1, ip
 8001252:	4339      	orrs	r1, r7
 8001254:	d114      	bne.n	8001280 <__aeabi_dadd+0x544>
 8001256:	2380      	movs	r3, #128	; 0x80
 8001258:	2400      	movs	r4, #0
 800125a:	031b      	lsls	r3, r3, #12
 800125c:	e6bc      	b.n	8000fd8 <__aeabi_dadd+0x29c>
 800125e:	464a      	mov	r2, r9
 8001260:	1bd5      	subs	r5, r2, r7
 8001262:	45a9      	cmp	r9, r5
 8001264:	4189      	sbcs	r1, r1
 8001266:	4662      	mov	r2, ip
 8001268:	4249      	negs	r1, r1
 800126a:	1a9b      	subs	r3, r3, r2
 800126c:	1a5b      	subs	r3, r3, r1
 800126e:	4698      	mov	r8, r3
 8001270:	2601      	movs	r6, #1
 8001272:	e5ae      	b.n	8000dd2 <__aeabi_dadd+0x96>
 8001274:	464a      	mov	r2, r9
 8001276:	08d1      	lsrs	r1, r2, #3
 8001278:	075a      	lsls	r2, r3, #29
 800127a:	4311      	orrs	r1, r2
 800127c:	08db      	lsrs	r3, r3, #3
 800127e:	e6a7      	b.n	8000fd0 <__aeabi_dadd+0x294>
 8001280:	4663      	mov	r3, ip
 8001282:	08f9      	lsrs	r1, r7, #3
 8001284:	075a      	lsls	r2, r3, #29
 8001286:	4654      	mov	r4, sl
 8001288:	4311      	orrs	r1, r2
 800128a:	08db      	lsrs	r3, r3, #3
 800128c:	e6a0      	b.n	8000fd0 <__aeabi_dadd+0x294>
 800128e:	464a      	mov	r2, r9
 8001290:	4313      	orrs	r3, r2
 8001292:	001d      	movs	r5, r3
 8001294:	1e6b      	subs	r3, r5, #1
 8001296:	419d      	sbcs	r5, r3
 8001298:	e6c7      	b.n	800102a <__aeabi_dadd+0x2ee>
 800129a:	0014      	movs	r4, r2
 800129c:	001e      	movs	r6, r3
 800129e:	3c20      	subs	r4, #32
 80012a0:	40e6      	lsrs	r6, r4
 80012a2:	2a20      	cmp	r2, #32
 80012a4:	d005      	beq.n	80012b2 <__aeabi_dadd+0x576>
 80012a6:	2440      	movs	r4, #64	; 0x40
 80012a8:	1aa2      	subs	r2, r4, r2
 80012aa:	4093      	lsls	r3, r2
 80012ac:	464a      	mov	r2, r9
 80012ae:	431a      	orrs	r2, r3
 80012b0:	4691      	mov	r9, r2
 80012b2:	464d      	mov	r5, r9
 80012b4:	1e6b      	subs	r3, r5, #1
 80012b6:	419d      	sbcs	r5, r3
 80012b8:	4335      	orrs	r5, r6
 80012ba:	e778      	b.n	80011ae <__aeabi_dadd+0x472>
 80012bc:	464a      	mov	r2, r9
 80012be:	431a      	orrs	r2, r3
 80012c0:	d000      	beq.n	80012c4 <__aeabi_dadd+0x588>
 80012c2:	e66b      	b.n	8000f9c <__aeabi_dadd+0x260>
 80012c4:	076b      	lsls	r3, r5, #29
 80012c6:	08f9      	lsrs	r1, r7, #3
 80012c8:	4319      	orrs	r1, r3
 80012ca:	08eb      	lsrs	r3, r5, #3
 80012cc:	e680      	b.n	8000fd0 <__aeabi_dadd+0x294>
 80012ce:	4661      	mov	r1, ip
 80012d0:	4339      	orrs	r1, r7
 80012d2:	d054      	beq.n	800137e <__aeabi_dadd+0x642>
 80012d4:	4663      	mov	r3, ip
 80012d6:	08f9      	lsrs	r1, r7, #3
 80012d8:	075c      	lsls	r4, r3, #29
 80012da:	4321      	orrs	r1, r4
 80012dc:	08db      	lsrs	r3, r3, #3
 80012de:	0004      	movs	r4, r0
 80012e0:	e654      	b.n	8000f8c <__aeabi_dadd+0x250>
 80012e2:	464a      	mov	r2, r9
 80012e4:	1abd      	subs	r5, r7, r2
 80012e6:	42af      	cmp	r7, r5
 80012e8:	4189      	sbcs	r1, r1
 80012ea:	4662      	mov	r2, ip
 80012ec:	4249      	negs	r1, r1
 80012ee:	1ad3      	subs	r3, r2, r3
 80012f0:	1a5b      	subs	r3, r3, r1
 80012f2:	4698      	mov	r8, r3
 80012f4:	0004      	movs	r4, r0
 80012f6:	2601      	movs	r6, #1
 80012f8:	e56b      	b.n	8000dd2 <__aeabi_dadd+0x96>
 80012fa:	464a      	mov	r2, r9
 80012fc:	1bd5      	subs	r5, r2, r7
 80012fe:	45a9      	cmp	r9, r5
 8001300:	4189      	sbcs	r1, r1
 8001302:	4662      	mov	r2, ip
 8001304:	4249      	negs	r1, r1
 8001306:	1a9a      	subs	r2, r3, r2
 8001308:	1a52      	subs	r2, r2, r1
 800130a:	4690      	mov	r8, r2
 800130c:	0212      	lsls	r2, r2, #8
 800130e:	d532      	bpl.n	8001376 <__aeabi_dadd+0x63a>
 8001310:	464a      	mov	r2, r9
 8001312:	1abd      	subs	r5, r7, r2
 8001314:	42af      	cmp	r7, r5
 8001316:	4189      	sbcs	r1, r1
 8001318:	4662      	mov	r2, ip
 800131a:	4249      	negs	r1, r1
 800131c:	1ad3      	subs	r3, r2, r3
 800131e:	1a5b      	subs	r3, r3, r1
 8001320:	4698      	mov	r8, r3
 8001322:	0004      	movs	r4, r0
 8001324:	e584      	b.n	8000e30 <__aeabi_dadd+0xf4>
 8001326:	4663      	mov	r3, ip
 8001328:	08f9      	lsrs	r1, r7, #3
 800132a:	075a      	lsls	r2, r3, #29
 800132c:	4311      	orrs	r1, r2
 800132e:	08db      	lsrs	r3, r3, #3
 8001330:	e64e      	b.n	8000fd0 <__aeabi_dadd+0x294>
 8001332:	08f9      	lsrs	r1, r7, #3
 8001334:	0768      	lsls	r0, r5, #29
 8001336:	4301      	orrs	r1, r0
 8001338:	08eb      	lsrs	r3, r5, #3
 800133a:	e624      	b.n	8000f86 <__aeabi_dadd+0x24a>
 800133c:	4662      	mov	r2, ip
 800133e:	433a      	orrs	r2, r7
 8001340:	d100      	bne.n	8001344 <__aeabi_dadd+0x608>
 8001342:	e698      	b.n	8001076 <__aeabi_dadd+0x33a>
 8001344:	464a      	mov	r2, r9
 8001346:	08d1      	lsrs	r1, r2, #3
 8001348:	075a      	lsls	r2, r3, #29
 800134a:	4311      	orrs	r1, r2
 800134c:	08da      	lsrs	r2, r3, #3
 800134e:	2380      	movs	r3, #128	; 0x80
 8001350:	031b      	lsls	r3, r3, #12
 8001352:	421a      	tst	r2, r3
 8001354:	d008      	beq.n	8001368 <__aeabi_dadd+0x62c>
 8001356:	4660      	mov	r0, ip
 8001358:	08c5      	lsrs	r5, r0, #3
 800135a:	421d      	tst	r5, r3
 800135c:	d104      	bne.n	8001368 <__aeabi_dadd+0x62c>
 800135e:	4654      	mov	r4, sl
 8001360:	002a      	movs	r2, r5
 8001362:	08f9      	lsrs	r1, r7, #3
 8001364:	0743      	lsls	r3, r0, #29
 8001366:	4319      	orrs	r1, r3
 8001368:	0f4b      	lsrs	r3, r1, #29
 800136a:	00c9      	lsls	r1, r1, #3
 800136c:	075b      	lsls	r3, r3, #29
 800136e:	08c9      	lsrs	r1, r1, #3
 8001370:	4319      	orrs	r1, r3
 8001372:	0013      	movs	r3, r2
 8001374:	e62c      	b.n	8000fd0 <__aeabi_dadd+0x294>
 8001376:	4641      	mov	r1, r8
 8001378:	4329      	orrs	r1, r5
 800137a:	d000      	beq.n	800137e <__aeabi_dadd+0x642>
 800137c:	e5fa      	b.n	8000f74 <__aeabi_dadd+0x238>
 800137e:	2300      	movs	r3, #0
 8001380:	000a      	movs	r2, r1
 8001382:	2400      	movs	r4, #0
 8001384:	e602      	b.n	8000f8c <__aeabi_dadd+0x250>
 8001386:	076b      	lsls	r3, r5, #29
 8001388:	08f9      	lsrs	r1, r7, #3
 800138a:	4319      	orrs	r1, r3
 800138c:	08eb      	lsrs	r3, r5, #3
 800138e:	e5fd      	b.n	8000f8c <__aeabi_dadd+0x250>
 8001390:	4663      	mov	r3, ip
 8001392:	08f9      	lsrs	r1, r7, #3
 8001394:	075b      	lsls	r3, r3, #29
 8001396:	4319      	orrs	r1, r3
 8001398:	4663      	mov	r3, ip
 800139a:	0004      	movs	r4, r0
 800139c:	08db      	lsrs	r3, r3, #3
 800139e:	e617      	b.n	8000fd0 <__aeabi_dadd+0x294>
 80013a0:	003d      	movs	r5, r7
 80013a2:	444d      	add	r5, r9
 80013a4:	4463      	add	r3, ip
 80013a6:	454d      	cmp	r5, r9
 80013a8:	4189      	sbcs	r1, r1
 80013aa:	4698      	mov	r8, r3
 80013ac:	4249      	negs	r1, r1
 80013ae:	4488      	add	r8, r1
 80013b0:	4643      	mov	r3, r8
 80013b2:	021b      	lsls	r3, r3, #8
 80013b4:	d400      	bmi.n	80013b8 <__aeabi_dadd+0x67c>
 80013b6:	e5dd      	b.n	8000f74 <__aeabi_dadd+0x238>
 80013b8:	4642      	mov	r2, r8
 80013ba:	4b14      	ldr	r3, [pc, #80]	; (800140c <__aeabi_dadd+0x6d0>)
 80013bc:	2601      	movs	r6, #1
 80013be:	401a      	ands	r2, r3
 80013c0:	4690      	mov	r8, r2
 80013c2:	e5d7      	b.n	8000f74 <__aeabi_dadd+0x238>
 80013c4:	0010      	movs	r0, r2
 80013c6:	001e      	movs	r6, r3
 80013c8:	3820      	subs	r0, #32
 80013ca:	40c6      	lsrs	r6, r0
 80013cc:	2a20      	cmp	r2, #32
 80013ce:	d005      	beq.n	80013dc <__aeabi_dadd+0x6a0>
 80013d0:	2040      	movs	r0, #64	; 0x40
 80013d2:	1a82      	subs	r2, r0, r2
 80013d4:	4093      	lsls	r3, r2
 80013d6:	464a      	mov	r2, r9
 80013d8:	431a      	orrs	r2, r3
 80013da:	4691      	mov	r9, r2
 80013dc:	464d      	mov	r5, r9
 80013de:	1e6b      	subs	r3, r5, #1
 80013e0:	419d      	sbcs	r5, r3
 80013e2:	4335      	orrs	r5, r6
 80013e4:	e621      	b.n	800102a <__aeabi_dadd+0x2ee>
 80013e6:	0002      	movs	r2, r0
 80013e8:	2300      	movs	r3, #0
 80013ea:	2100      	movs	r1, #0
 80013ec:	e540      	b.n	8000e70 <__aeabi_dadd+0x134>
 80013ee:	464a      	mov	r2, r9
 80013f0:	19d5      	adds	r5, r2, r7
 80013f2:	42bd      	cmp	r5, r7
 80013f4:	4189      	sbcs	r1, r1
 80013f6:	4463      	add	r3, ip
 80013f8:	4698      	mov	r8, r3
 80013fa:	4249      	negs	r1, r1
 80013fc:	4488      	add	r8, r1
 80013fe:	e5b3      	b.n	8000f68 <__aeabi_dadd+0x22c>
 8001400:	2100      	movs	r1, #0
 8001402:	4a01      	ldr	r2, [pc, #4]	; (8001408 <__aeabi_dadd+0x6cc>)
 8001404:	000b      	movs	r3, r1
 8001406:	e533      	b.n	8000e70 <__aeabi_dadd+0x134>
 8001408:	000007ff 	.word	0x000007ff
 800140c:	ff7fffff 	.word	0xff7fffff

08001410 <__aeabi_ddiv>:
 8001410:	b5f0      	push	{r4, r5, r6, r7, lr}
 8001412:	4657      	mov	r7, sl
 8001414:	464e      	mov	r6, r9
 8001416:	4645      	mov	r5, r8
 8001418:	46de      	mov	lr, fp
 800141a:	b5e0      	push	{r5, r6, r7, lr}
 800141c:	4681      	mov	r9, r0
 800141e:	0005      	movs	r5, r0
 8001420:	030c      	lsls	r4, r1, #12
 8001422:	0048      	lsls	r0, r1, #1
 8001424:	4692      	mov	sl, r2
 8001426:	001f      	movs	r7, r3
 8001428:	b085      	sub	sp, #20
 800142a:	0b24      	lsrs	r4, r4, #12
 800142c:	0d40      	lsrs	r0, r0, #21
 800142e:	0fce      	lsrs	r6, r1, #31
 8001430:	2800      	cmp	r0, #0
 8001432:	d059      	beq.n	80014e8 <__aeabi_ddiv+0xd8>
 8001434:	4b87      	ldr	r3, [pc, #540]	; (8001654 <__aeabi_ddiv+0x244>)
 8001436:	4298      	cmp	r0, r3
 8001438:	d100      	bne.n	800143c <__aeabi_ddiv+0x2c>
 800143a:	e098      	b.n	800156e <__aeabi_ddiv+0x15e>
 800143c:	0f6b      	lsrs	r3, r5, #29
 800143e:	00e4      	lsls	r4, r4, #3
 8001440:	431c      	orrs	r4, r3
 8001442:	2380      	movs	r3, #128	; 0x80
 8001444:	041b      	lsls	r3, r3, #16
 8001446:	4323      	orrs	r3, r4
 8001448:	4698      	mov	r8, r3
 800144a:	4b83      	ldr	r3, [pc, #524]	; (8001658 <__aeabi_ddiv+0x248>)
 800144c:	00ed      	lsls	r5, r5, #3
 800144e:	469b      	mov	fp, r3
 8001450:	2300      	movs	r3, #0
 8001452:	4699      	mov	r9, r3
 8001454:	4483      	add	fp, r0
 8001456:	9300      	str	r3, [sp, #0]
 8001458:	033c      	lsls	r4, r7, #12
 800145a:	007b      	lsls	r3, r7, #1
 800145c:	4650      	mov	r0, sl
 800145e:	0b24      	lsrs	r4, r4, #12
 8001460:	0d5b      	lsrs	r3, r3, #21
 8001462:	0fff      	lsrs	r7, r7, #31
 8001464:	2b00      	cmp	r3, #0
 8001466:	d067      	beq.n	8001538 <__aeabi_ddiv+0x128>
 8001468:	4a7a      	ldr	r2, [pc, #488]	; (8001654 <__aeabi_ddiv+0x244>)
 800146a:	4293      	cmp	r3, r2
 800146c:	d018      	beq.n	80014a0 <__aeabi_ddiv+0x90>
 800146e:	497a      	ldr	r1, [pc, #488]	; (8001658 <__aeabi_ddiv+0x248>)
 8001470:	0f42      	lsrs	r2, r0, #29
 8001472:	468c      	mov	ip, r1
 8001474:	00e4      	lsls	r4, r4, #3
 8001476:	4659      	mov	r1, fp
 8001478:	4314      	orrs	r4, r2
 800147a:	2280      	movs	r2, #128	; 0x80
 800147c:	4463      	add	r3, ip
 800147e:	0412      	lsls	r2, r2, #16
 8001480:	1acb      	subs	r3, r1, r3
 8001482:	4314      	orrs	r4, r2
 8001484:	469b      	mov	fp, r3
 8001486:	00c2      	lsls	r2, r0, #3
 8001488:	2000      	movs	r0, #0
 800148a:	0033      	movs	r3, r6
 800148c:	407b      	eors	r3, r7
 800148e:	469a      	mov	sl, r3
 8001490:	464b      	mov	r3, r9
 8001492:	2b0f      	cmp	r3, #15
 8001494:	d900      	bls.n	8001498 <__aeabi_ddiv+0x88>
 8001496:	e0ef      	b.n	8001678 <__aeabi_ddiv+0x268>
 8001498:	4970      	ldr	r1, [pc, #448]	; (800165c <__aeabi_ddiv+0x24c>)
 800149a:	009b      	lsls	r3, r3, #2
 800149c:	58cb      	ldr	r3, [r1, r3]
 800149e:	469f      	mov	pc, r3
 80014a0:	4b6f      	ldr	r3, [pc, #444]	; (8001660 <__aeabi_ddiv+0x250>)
 80014a2:	4652      	mov	r2, sl
 80014a4:	469c      	mov	ip, r3
 80014a6:	4322      	orrs	r2, r4
 80014a8:	44e3      	add	fp, ip
 80014aa:	2a00      	cmp	r2, #0
 80014ac:	d000      	beq.n	80014b0 <__aeabi_ddiv+0xa0>
 80014ae:	e095      	b.n	80015dc <__aeabi_ddiv+0x1cc>
 80014b0:	4649      	mov	r1, r9
 80014b2:	2302      	movs	r3, #2
 80014b4:	4319      	orrs	r1, r3
 80014b6:	4689      	mov	r9, r1
 80014b8:	2400      	movs	r4, #0
 80014ba:	2002      	movs	r0, #2
 80014bc:	e7e5      	b.n	800148a <__aeabi_ddiv+0x7a>
 80014be:	2300      	movs	r3, #0
 80014c0:	2400      	movs	r4, #0
 80014c2:	2500      	movs	r5, #0
 80014c4:	4652      	mov	r2, sl
 80014c6:	051b      	lsls	r3, r3, #20
 80014c8:	4323      	orrs	r3, r4
 80014ca:	07d2      	lsls	r2, r2, #31
 80014cc:	4313      	orrs	r3, r2
 80014ce:	0028      	movs	r0, r5
 80014d0:	0019      	movs	r1, r3
 80014d2:	b005      	add	sp, #20
 80014d4:	bcf0      	pop	{r4, r5, r6, r7}
 80014d6:	46bb      	mov	fp, r7
 80014d8:	46b2      	mov	sl, r6
 80014da:	46a9      	mov	r9, r5
 80014dc:	46a0      	mov	r8, r4
 80014de:	bdf0      	pop	{r4, r5, r6, r7, pc}
 80014e0:	2400      	movs	r4, #0
 80014e2:	2500      	movs	r5, #0
 80014e4:	4b5b      	ldr	r3, [pc, #364]	; (8001654 <__aeabi_ddiv+0x244>)
 80014e6:	e7ed      	b.n	80014c4 <__aeabi_ddiv+0xb4>
 80014e8:	464b      	mov	r3, r9
 80014ea:	4323      	orrs	r3, r4
 80014ec:	4698      	mov	r8, r3
 80014ee:	d100      	bne.n	80014f2 <__aeabi_ddiv+0xe2>
 80014f0:	e089      	b.n	8001606 <__aeabi_ddiv+0x1f6>
 80014f2:	2c00      	cmp	r4, #0
 80014f4:	d100      	bne.n	80014f8 <__aeabi_ddiv+0xe8>
 80014f6:	e1e0      	b.n	80018ba <__aeabi_ddiv+0x4aa>
 80014f8:	0020      	movs	r0, r4
 80014fa:	f001 fa53 	bl	80029a4 <__clzsi2>
 80014fe:	0001      	movs	r1, r0
 8001500:	0002      	movs	r2, r0
 8001502:	390b      	subs	r1, #11
 8001504:	231d      	movs	r3, #29
 8001506:	1a5b      	subs	r3, r3, r1
 8001508:	4649      	mov	r1, r9
 800150a:	0010      	movs	r0, r2
 800150c:	40d9      	lsrs	r1, r3
 800150e:	3808      	subs	r0, #8
 8001510:	4084      	lsls	r4, r0
 8001512:	000b      	movs	r3, r1
 8001514:	464d      	mov	r5, r9
 8001516:	4323      	orrs	r3, r4
 8001518:	4698      	mov	r8, r3
 800151a:	4085      	lsls	r5, r0
 800151c:	4851      	ldr	r0, [pc, #324]	; (8001664 <__aeabi_ddiv+0x254>)
 800151e:	033c      	lsls	r4, r7, #12
 8001520:	1a83      	subs	r3, r0, r2
 8001522:	469b      	mov	fp, r3
 8001524:	2300      	movs	r3, #0
 8001526:	4699      	mov	r9, r3
 8001528:	9300      	str	r3, [sp, #0]
 800152a:	007b      	lsls	r3, r7, #1
 800152c:	4650      	mov	r0, sl
 800152e:	0b24      	lsrs	r4, r4, #12
 8001530:	0d5b      	lsrs	r3, r3, #21
 8001532:	0fff      	lsrs	r7, r7, #31
 8001534:	2b00      	cmp	r3, #0
 8001536:	d197      	bne.n	8001468 <__aeabi_ddiv+0x58>
 8001538:	4652      	mov	r2, sl
 800153a:	4322      	orrs	r2, r4
 800153c:	d055      	beq.n	80015ea <__aeabi_ddiv+0x1da>
 800153e:	2c00      	cmp	r4, #0
 8001540:	d100      	bne.n	8001544 <__aeabi_ddiv+0x134>
 8001542:	e1ca      	b.n	80018da <__aeabi_ddiv+0x4ca>
 8001544:	0020      	movs	r0, r4
 8001546:	f001 fa2d 	bl	80029a4 <__clzsi2>
 800154a:	0002      	movs	r2, r0
 800154c:	3a0b      	subs	r2, #11
 800154e:	231d      	movs	r3, #29
 8001550:	0001      	movs	r1, r0
 8001552:	1a9b      	subs	r3, r3, r2
 8001554:	4652      	mov	r2, sl
 8001556:	3908      	subs	r1, #8
 8001558:	40da      	lsrs	r2, r3
 800155a:	408c      	lsls	r4, r1
 800155c:	4314      	orrs	r4, r2
 800155e:	4652      	mov	r2, sl
 8001560:	408a      	lsls	r2, r1
 8001562:	4b41      	ldr	r3, [pc, #260]	; (8001668 <__aeabi_ddiv+0x258>)
 8001564:	4458      	add	r0, fp
 8001566:	469b      	mov	fp, r3
 8001568:	4483      	add	fp, r0
 800156a:	2000      	movs	r0, #0
 800156c:	e78d      	b.n	800148a <__aeabi_ddiv+0x7a>
 800156e:	464b      	mov	r3, r9
 8001570:	4323      	orrs	r3, r4
 8001572:	4698      	mov	r8, r3
 8001574:	d140      	bne.n	80015f8 <__aeabi_ddiv+0x1e8>
 8001576:	2308      	movs	r3, #8
 8001578:	4699      	mov	r9, r3
 800157a:	3b06      	subs	r3, #6
 800157c:	2500      	movs	r5, #0
 800157e:	4683      	mov	fp, r0
 8001580:	9300      	str	r3, [sp, #0]
 8001582:	e769      	b.n	8001458 <__aeabi_ddiv+0x48>
 8001584:	46b2      	mov	sl, r6
 8001586:	9b00      	ldr	r3, [sp, #0]
 8001588:	2b02      	cmp	r3, #2
 800158a:	d0a9      	beq.n	80014e0 <__aeabi_ddiv+0xd0>
 800158c:	2b03      	cmp	r3, #3
 800158e:	d100      	bne.n	8001592 <__aeabi_ddiv+0x182>
 8001590:	e211      	b.n	80019b6 <__aeabi_ddiv+0x5a6>
 8001592:	2b01      	cmp	r3, #1
 8001594:	d093      	beq.n	80014be <__aeabi_ddiv+0xae>
 8001596:	4a35      	ldr	r2, [pc, #212]	; (800166c <__aeabi_ddiv+0x25c>)
 8001598:	445a      	add	r2, fp
 800159a:	2a00      	cmp	r2, #0
 800159c:	dc00      	bgt.n	80015a0 <__aeabi_ddiv+0x190>
 800159e:	e13c      	b.n	800181a <__aeabi_ddiv+0x40a>
 80015a0:	076b      	lsls	r3, r5, #29
 80015a2:	d000      	beq.n	80015a6 <__aeabi_ddiv+0x196>
 80015a4:	e1a7      	b.n	80018f6 <__aeabi_ddiv+0x4e6>
 80015a6:	08ed      	lsrs	r5, r5, #3
 80015a8:	4643      	mov	r3, r8
 80015aa:	01db      	lsls	r3, r3, #7
 80015ac:	d506      	bpl.n	80015bc <__aeabi_ddiv+0x1ac>
 80015ae:	4642      	mov	r2, r8
 80015b0:	4b2f      	ldr	r3, [pc, #188]	; (8001670 <__aeabi_ddiv+0x260>)
 80015b2:	401a      	ands	r2, r3
 80015b4:	4690      	mov	r8, r2
 80015b6:	2280      	movs	r2, #128	; 0x80
 80015b8:	00d2      	lsls	r2, r2, #3
 80015ba:	445a      	add	r2, fp
 80015bc:	4b2d      	ldr	r3, [pc, #180]	; (8001674 <__aeabi_ddiv+0x264>)
 80015be:	429a      	cmp	r2, r3
 80015c0:	dc8e      	bgt.n	80014e0 <__aeabi_ddiv+0xd0>
 80015c2:	4643      	mov	r3, r8
 80015c4:	0552      	lsls	r2, r2, #21
 80015c6:	0758      	lsls	r0, r3, #29
 80015c8:	025c      	lsls	r4, r3, #9
 80015ca:	4305      	orrs	r5, r0
 80015cc:	0b24      	lsrs	r4, r4, #12
 80015ce:	0d53      	lsrs	r3, r2, #21
 80015d0:	e778      	b.n	80014c4 <__aeabi_ddiv+0xb4>
 80015d2:	46ba      	mov	sl, r7
 80015d4:	46a0      	mov	r8, r4
 80015d6:	0015      	movs	r5, r2
 80015d8:	9000      	str	r0, [sp, #0]
 80015da:	e7d4      	b.n	8001586 <__aeabi_ddiv+0x176>
 80015dc:	464a      	mov	r2, r9
 80015de:	2303      	movs	r3, #3
 80015e0:	431a      	orrs	r2, r3
 80015e2:	4691      	mov	r9, r2
 80015e4:	2003      	movs	r0, #3
 80015e6:	4652      	mov	r2, sl
 80015e8:	e74f      	b.n	800148a <__aeabi_ddiv+0x7a>
 80015ea:	4649      	mov	r1, r9
 80015ec:	2301      	movs	r3, #1
 80015ee:	4319      	orrs	r1, r3
 80015f0:	4689      	mov	r9, r1
 80015f2:	2400      	movs	r4, #0
 80015f4:	2001      	movs	r0, #1
 80015f6:	e748      	b.n	800148a <__aeabi_ddiv+0x7a>
 80015f8:	230c      	movs	r3, #12
 80015fa:	4699      	mov	r9, r3
 80015fc:	3b09      	subs	r3, #9
 80015fe:	46a0      	mov	r8, r4
 8001600:	4683      	mov	fp, r0
 8001602:	9300      	str	r3, [sp, #0]
 8001604:	e728      	b.n	8001458 <__aeabi_ddiv+0x48>
 8001606:	2304      	movs	r3, #4
 8001608:	4699      	mov	r9, r3
 800160a:	2300      	movs	r3, #0
 800160c:	469b      	mov	fp, r3
 800160e:	3301      	adds	r3, #1
 8001610:	2500      	movs	r5, #0
 8001612:	9300      	str	r3, [sp, #0]
 8001614:	e720      	b.n	8001458 <__aeabi_ddiv+0x48>
 8001616:	2300      	movs	r3, #0
 8001618:	2480      	movs	r4, #128	; 0x80
 800161a:	469a      	mov	sl, r3
 800161c:	2500      	movs	r5, #0
 800161e:	4b0d      	ldr	r3, [pc, #52]	; (8001654 <__aeabi_ddiv+0x244>)
 8001620:	0324      	lsls	r4, r4, #12
 8001622:	e74f      	b.n	80014c4 <__aeabi_ddiv+0xb4>
 8001624:	2380      	movs	r3, #128	; 0x80
 8001626:	4641      	mov	r1, r8
 8001628:	031b      	lsls	r3, r3, #12
 800162a:	4219      	tst	r1, r3
 800162c:	d008      	beq.n	8001640 <__aeabi_ddiv+0x230>
 800162e:	421c      	tst	r4, r3
 8001630:	d106      	bne.n	8001640 <__aeabi_ddiv+0x230>
 8001632:	431c      	orrs	r4, r3
 8001634:	0324      	lsls	r4, r4, #12
 8001636:	46ba      	mov	sl, r7
 8001638:	0015      	movs	r5, r2
 800163a:	4b06      	ldr	r3, [pc, #24]	; (8001654 <__aeabi_ddiv+0x244>)
 800163c:	0b24      	lsrs	r4, r4, #12
 800163e:	e741      	b.n	80014c4 <__aeabi_ddiv+0xb4>
 8001640:	2480      	movs	r4, #128	; 0x80
 8001642:	4643      	mov	r3, r8
 8001644:	0324      	lsls	r4, r4, #12
 8001646:	431c      	orrs	r4, r3
 8001648:	0324      	lsls	r4, r4, #12
 800164a:	46b2      	mov	sl, r6
 800164c:	4b01      	ldr	r3, [pc, #4]	; (8001654 <__aeabi_ddiv+0x244>)
 800164e:	0b24      	lsrs	r4, r4, #12
 8001650:	e738      	b.n	80014c4 <__aeabi_ddiv+0xb4>
 8001652:	46c0      	nop			; (mov r8, r8)
 8001654:	000007ff 	.word	0x000007ff
 8001658:	fffffc01 	.word	0xfffffc01
 800165c:	08006278 	.word	0x08006278
 8001660:	fffff801 	.word	0xfffff801
 8001664:	fffffc0d 	.word	0xfffffc0d
 8001668:	000003f3 	.word	0x000003f3
 800166c:	000003ff 	.word	0x000003ff
 8001670:	feffffff 	.word	0xfeffffff
 8001674:	000007fe 	.word	0x000007fe
 8001678:	4544      	cmp	r4, r8
 800167a:	d200      	bcs.n	800167e <__aeabi_ddiv+0x26e>
 800167c:	e116      	b.n	80018ac <__aeabi_ddiv+0x49c>
 800167e:	d100      	bne.n	8001682 <__aeabi_ddiv+0x272>
 8001680:	e111      	b.n	80018a6 <__aeabi_ddiv+0x496>
 8001682:	2301      	movs	r3, #1
 8001684:	425b      	negs	r3, r3
 8001686:	469c      	mov	ip, r3
 8001688:	002e      	movs	r6, r5
 800168a:	4640      	mov	r0, r8
 800168c:	2500      	movs	r5, #0
 800168e:	44e3      	add	fp, ip
 8001690:	0223      	lsls	r3, r4, #8
 8001692:	0e14      	lsrs	r4, r2, #24
 8001694:	431c      	orrs	r4, r3
 8001696:	0c1b      	lsrs	r3, r3, #16
 8001698:	4699      	mov	r9, r3
 800169a:	0423      	lsls	r3, r4, #16
 800169c:	0c1f      	lsrs	r7, r3, #16
 800169e:	0212      	lsls	r2, r2, #8
 80016a0:	4649      	mov	r1, r9
 80016a2:	9200      	str	r2, [sp, #0]
 80016a4:	9701      	str	r7, [sp, #4]
 80016a6:	f7fe fdbb 	bl	8000220 <__aeabi_uidivmod>
 80016aa:	0002      	movs	r2, r0
 80016ac:	437a      	muls	r2, r7
 80016ae:	040b      	lsls	r3, r1, #16
 80016b0:	0c31      	lsrs	r1, r6, #16
 80016b2:	4680      	mov	r8, r0
 80016b4:	4319      	orrs	r1, r3
 80016b6:	428a      	cmp	r2, r1
 80016b8:	d90b      	bls.n	80016d2 <__aeabi_ddiv+0x2c2>
 80016ba:	2301      	movs	r3, #1
 80016bc:	425b      	negs	r3, r3
 80016be:	469c      	mov	ip, r3
 80016c0:	1909      	adds	r1, r1, r4
 80016c2:	44e0      	add	r8, ip
 80016c4:	428c      	cmp	r4, r1
 80016c6:	d804      	bhi.n	80016d2 <__aeabi_ddiv+0x2c2>
 80016c8:	428a      	cmp	r2, r1
 80016ca:	d902      	bls.n	80016d2 <__aeabi_ddiv+0x2c2>
 80016cc:	1e83      	subs	r3, r0, #2
 80016ce:	4698      	mov	r8, r3
 80016d0:	1909      	adds	r1, r1, r4
 80016d2:	1a88      	subs	r0, r1, r2
 80016d4:	4649      	mov	r1, r9
 80016d6:	f7fe fda3 	bl	8000220 <__aeabi_uidivmod>
 80016da:	0409      	lsls	r1, r1, #16
 80016dc:	468c      	mov	ip, r1
 80016de:	0431      	lsls	r1, r6, #16
 80016e0:	4666      	mov	r6, ip
 80016e2:	9a01      	ldr	r2, [sp, #4]
 80016e4:	0c09      	lsrs	r1, r1, #16
 80016e6:	4342      	muls	r2, r0
 80016e8:	0003      	movs	r3, r0
 80016ea:	4331      	orrs	r1, r6
 80016ec:	428a      	cmp	r2, r1
 80016ee:	d904      	bls.n	80016fa <__aeabi_ddiv+0x2ea>
 80016f0:	1909      	adds	r1, r1, r4
 80016f2:	3b01      	subs	r3, #1
 80016f4:	428c      	cmp	r4, r1
 80016f6:	d800      	bhi.n	80016fa <__aeabi_ddiv+0x2ea>
 80016f8:	e111      	b.n	800191e <__aeabi_ddiv+0x50e>
 80016fa:	1a89      	subs	r1, r1, r2
 80016fc:	4642      	mov	r2, r8
 80016fe:	9e00      	ldr	r6, [sp, #0]
 8001700:	0412      	lsls	r2, r2, #16
 8001702:	431a      	orrs	r2, r3
 8001704:	0c33      	lsrs	r3, r6, #16
 8001706:	001f      	movs	r7, r3
 8001708:	0c10      	lsrs	r0, r2, #16
 800170a:	4690      	mov	r8, r2
 800170c:	9302      	str	r3, [sp, #8]
 800170e:	0413      	lsls	r3, r2, #16
 8001710:	0432      	lsls	r2, r6, #16
 8001712:	0c16      	lsrs	r6, r2, #16
 8001714:	0032      	movs	r2, r6
 8001716:	0c1b      	lsrs	r3, r3, #16
 8001718:	435a      	muls	r2, r3
 800171a:	9603      	str	r6, [sp, #12]
 800171c:	437b      	muls	r3, r7
 800171e:	4346      	muls	r6, r0
 8001720:	4378      	muls	r0, r7
 8001722:	0c17      	lsrs	r7, r2, #16
 8001724:	46bc      	mov	ip, r7
 8001726:	199b      	adds	r3, r3, r6
 8001728:	4463      	add	r3, ip
 800172a:	429e      	cmp	r6, r3
 800172c:	d903      	bls.n	8001736 <__aeabi_ddiv+0x326>
 800172e:	2680      	movs	r6, #128	; 0x80
 8001730:	0276      	lsls	r6, r6, #9
 8001732:	46b4      	mov	ip, r6
 8001734:	4460      	add	r0, ip
 8001736:	0c1e      	lsrs	r6, r3, #16
 8001738:	1830      	adds	r0, r6, r0
 800173a:	0416      	lsls	r6, r2, #16
 800173c:	041b      	lsls	r3, r3, #16
 800173e:	0c36      	lsrs	r6, r6, #16
 8001740:	199e      	adds	r6, r3, r6
 8001742:	4281      	cmp	r1, r0
 8001744:	d200      	bcs.n	8001748 <__aeabi_ddiv+0x338>
 8001746:	e09c      	b.n	8001882 <__aeabi_ddiv+0x472>
 8001748:	d100      	bne.n	800174c <__aeabi_ddiv+0x33c>
 800174a:	e097      	b.n	800187c <__aeabi_ddiv+0x46c>
 800174c:	1bae      	subs	r6, r5, r6
 800174e:	1a09      	subs	r1, r1, r0
 8001750:	42b5      	cmp	r5, r6
 8001752:	4180      	sbcs	r0, r0
 8001754:	4240      	negs	r0, r0
 8001756:	1a08      	subs	r0, r1, r0
 8001758:	4284      	cmp	r4, r0
 800175a:	d100      	bne.n	800175e <__aeabi_ddiv+0x34e>
 800175c:	e111      	b.n	8001982 <__aeabi_ddiv+0x572>
 800175e:	4649      	mov	r1, r9
 8001760:	f7fe fd5e 	bl	8000220 <__aeabi_uidivmod>
 8001764:	9a01      	ldr	r2, [sp, #4]
 8001766:	040b      	lsls	r3, r1, #16
 8001768:	4342      	muls	r2, r0
 800176a:	0c31      	lsrs	r1, r6, #16
 800176c:	0005      	movs	r5, r0
 800176e:	4319      	orrs	r1, r3
 8001770:	428a      	cmp	r2, r1
 8001772:	d907      	bls.n	8001784 <__aeabi_ddiv+0x374>
 8001774:	1909      	adds	r1, r1, r4
 8001776:	3d01      	subs	r5, #1
 8001778:	428c      	cmp	r4, r1
 800177a:	d803      	bhi.n	8001784 <__aeabi_ddiv+0x374>
 800177c:	428a      	cmp	r2, r1
 800177e:	d901      	bls.n	8001784 <__aeabi_ddiv+0x374>
 8001780:	1e85      	subs	r5, r0, #2
 8001782:	1909      	adds	r1, r1, r4
 8001784:	1a88      	subs	r0, r1, r2
 8001786:	4649      	mov	r1, r9
 8001788:	f7fe fd4a 	bl	8000220 <__aeabi_uidivmod>
 800178c:	0409      	lsls	r1, r1, #16
 800178e:	468c      	mov	ip, r1
 8001790:	0431      	lsls	r1, r6, #16
 8001792:	4666      	mov	r6, ip
 8001794:	9a01      	ldr	r2, [sp, #4]
 8001796:	0c09      	lsrs	r1, r1, #16
 8001798:	4342      	muls	r2, r0
 800179a:	0003      	movs	r3, r0
 800179c:	4331      	orrs	r1, r6
 800179e:	428a      	cmp	r2, r1
 80017a0:	d907      	bls.n	80017b2 <__aeabi_ddiv+0x3a2>
 80017a2:	1909      	adds	r1, r1, r4
 80017a4:	3b01      	subs	r3, #1
 80017a6:	428c      	cmp	r4, r1
 80017a8:	d803      	bhi.n	80017b2 <__aeabi_ddiv+0x3a2>
 80017aa:	428a      	cmp	r2, r1
 80017ac:	d901      	bls.n	80017b2 <__aeabi_ddiv+0x3a2>
 80017ae:	1e83      	subs	r3, r0, #2
 80017b0:	1909      	adds	r1, r1, r4
 80017b2:	9e03      	ldr	r6, [sp, #12]
 80017b4:	1a89      	subs	r1, r1, r2
 80017b6:	0032      	movs	r2, r6
 80017b8:	042d      	lsls	r5, r5, #16
 80017ba:	431d      	orrs	r5, r3
 80017bc:	9f02      	ldr	r7, [sp, #8]
 80017be:	042b      	lsls	r3, r5, #16
 80017c0:	0c1b      	lsrs	r3, r3, #16
 80017c2:	435a      	muls	r2, r3
 80017c4:	437b      	muls	r3, r7
 80017c6:	469c      	mov	ip, r3
 80017c8:	0c28      	lsrs	r0, r5, #16
 80017ca:	4346      	muls	r6, r0
 80017cc:	0c13      	lsrs	r3, r2, #16
 80017ce:	44b4      	add	ip, r6
 80017d0:	4463      	add	r3, ip
 80017d2:	4378      	muls	r0, r7
 80017d4:	429e      	cmp	r6, r3
 80017d6:	d903      	bls.n	80017e0 <__aeabi_ddiv+0x3d0>
 80017d8:	2680      	movs	r6, #128	; 0x80
 80017da:	0276      	lsls	r6, r6, #9
 80017dc:	46b4      	mov	ip, r6
 80017de:	4460      	add	r0, ip
 80017e0:	0c1e      	lsrs	r6, r3, #16
 80017e2:	0412      	lsls	r2, r2, #16
 80017e4:	041b      	lsls	r3, r3, #16
 80017e6:	0c12      	lsrs	r2, r2, #16
 80017e8:	1830      	adds	r0, r6, r0
 80017ea:	189b      	adds	r3, r3, r2
 80017ec:	4281      	cmp	r1, r0
 80017ee:	d306      	bcc.n	80017fe <__aeabi_ddiv+0x3ee>
 80017f0:	d002      	beq.n	80017f8 <__aeabi_ddiv+0x3e8>
 80017f2:	2301      	movs	r3, #1
 80017f4:	431d      	orrs	r5, r3
 80017f6:	e6ce      	b.n	8001596 <__aeabi_ddiv+0x186>
 80017f8:	2b00      	cmp	r3, #0
 80017fa:	d100      	bne.n	80017fe <__aeabi_ddiv+0x3ee>
 80017fc:	e6cb      	b.n	8001596 <__aeabi_ddiv+0x186>
 80017fe:	1861      	adds	r1, r4, r1
 8001800:	1e6e      	subs	r6, r5, #1
 8001802:	42a1      	cmp	r1, r4
 8001804:	d200      	bcs.n	8001808 <__aeabi_ddiv+0x3f8>
 8001806:	e0a4      	b.n	8001952 <__aeabi_ddiv+0x542>
 8001808:	4281      	cmp	r1, r0
 800180a:	d200      	bcs.n	800180e <__aeabi_ddiv+0x3fe>
 800180c:	e0c9      	b.n	80019a2 <__aeabi_ddiv+0x592>
 800180e:	d100      	bne.n	8001812 <__aeabi_ddiv+0x402>
 8001810:	e0d9      	b.n	80019c6 <__aeabi_ddiv+0x5b6>
 8001812:	0035      	movs	r5, r6
 8001814:	e7ed      	b.n	80017f2 <__aeabi_ddiv+0x3e2>
 8001816:	2501      	movs	r5, #1
 8001818:	426d      	negs	r5, r5
 800181a:	2101      	movs	r1, #1
 800181c:	1a89      	subs	r1, r1, r2
 800181e:	2938      	cmp	r1, #56	; 0x38
 8001820:	dd00      	ble.n	8001824 <__aeabi_ddiv+0x414>
 8001822:	e64c      	b.n	80014be <__aeabi_ddiv+0xae>
 8001824:	291f      	cmp	r1, #31
 8001826:	dc00      	bgt.n	800182a <__aeabi_ddiv+0x41a>
 8001828:	e07f      	b.n	800192a <__aeabi_ddiv+0x51a>
 800182a:	231f      	movs	r3, #31
 800182c:	425b      	negs	r3, r3
 800182e:	1a9a      	subs	r2, r3, r2
 8001830:	4643      	mov	r3, r8
 8001832:	40d3      	lsrs	r3, r2
 8001834:	2920      	cmp	r1, #32
 8001836:	d004      	beq.n	8001842 <__aeabi_ddiv+0x432>
 8001838:	4644      	mov	r4, r8
 800183a:	4a65      	ldr	r2, [pc, #404]	; (80019d0 <__aeabi_ddiv+0x5c0>)
 800183c:	445a      	add	r2, fp
 800183e:	4094      	lsls	r4, r2
 8001840:	4325      	orrs	r5, r4
 8001842:	1e6a      	subs	r2, r5, #1
 8001844:	4195      	sbcs	r5, r2
 8001846:	2207      	movs	r2, #7
 8001848:	432b      	orrs	r3, r5
 800184a:	0015      	movs	r5, r2
 800184c:	2400      	movs	r4, #0
 800184e:	401d      	ands	r5, r3
 8001850:	421a      	tst	r2, r3
 8001852:	d100      	bne.n	8001856 <__aeabi_ddiv+0x446>
 8001854:	e0a1      	b.n	800199a <__aeabi_ddiv+0x58a>
 8001856:	220f      	movs	r2, #15
 8001858:	2400      	movs	r4, #0
 800185a:	401a      	ands	r2, r3
 800185c:	2a04      	cmp	r2, #4
 800185e:	d100      	bne.n	8001862 <__aeabi_ddiv+0x452>
 8001860:	e098      	b.n	8001994 <__aeabi_ddiv+0x584>
 8001862:	1d1a      	adds	r2, r3, #4
 8001864:	429a      	cmp	r2, r3
 8001866:	419b      	sbcs	r3, r3
 8001868:	425b      	negs	r3, r3
 800186a:	18e4      	adds	r4, r4, r3
 800186c:	0013      	movs	r3, r2
 800186e:	0222      	lsls	r2, r4, #8
 8001870:	d400      	bmi.n	8001874 <__aeabi_ddiv+0x464>
 8001872:	e08f      	b.n	8001994 <__aeabi_ddiv+0x584>
 8001874:	2301      	movs	r3, #1
 8001876:	2400      	movs	r4, #0
 8001878:	2500      	movs	r5, #0
 800187a:	e623      	b.n	80014c4 <__aeabi_ddiv+0xb4>
 800187c:	42b5      	cmp	r5, r6
 800187e:	d300      	bcc.n	8001882 <__aeabi_ddiv+0x472>
 8001880:	e764      	b.n	800174c <__aeabi_ddiv+0x33c>
 8001882:	4643      	mov	r3, r8
 8001884:	1e5a      	subs	r2, r3, #1
 8001886:	9b00      	ldr	r3, [sp, #0]
 8001888:	469c      	mov	ip, r3
 800188a:	4465      	add	r5, ip
 800188c:	001f      	movs	r7, r3
 800188e:	429d      	cmp	r5, r3
 8001890:	419b      	sbcs	r3, r3
 8001892:	425b      	negs	r3, r3
 8001894:	191b      	adds	r3, r3, r4
 8001896:	18c9      	adds	r1, r1, r3
 8001898:	428c      	cmp	r4, r1
 800189a:	d23a      	bcs.n	8001912 <__aeabi_ddiv+0x502>
 800189c:	4288      	cmp	r0, r1
 800189e:	d863      	bhi.n	8001968 <__aeabi_ddiv+0x558>
 80018a0:	d060      	beq.n	8001964 <__aeabi_ddiv+0x554>
 80018a2:	4690      	mov	r8, r2
 80018a4:	e752      	b.n	800174c <__aeabi_ddiv+0x33c>
 80018a6:	42aa      	cmp	r2, r5
 80018a8:	d900      	bls.n	80018ac <__aeabi_ddiv+0x49c>
 80018aa:	e6ea      	b.n	8001682 <__aeabi_ddiv+0x272>
 80018ac:	4643      	mov	r3, r8
 80018ae:	07de      	lsls	r6, r3, #31
 80018b0:	0858      	lsrs	r0, r3, #1
 80018b2:	086b      	lsrs	r3, r5, #1
 80018b4:	431e      	orrs	r6, r3
 80018b6:	07ed      	lsls	r5, r5, #31
 80018b8:	e6ea      	b.n	8001690 <__aeabi_ddiv+0x280>
 80018ba:	4648      	mov	r0, r9
 80018bc:	f001 f872 	bl	80029a4 <__clzsi2>
 80018c0:	0001      	movs	r1, r0
 80018c2:	0002      	movs	r2, r0
 80018c4:	3115      	adds	r1, #21
 80018c6:	3220      	adds	r2, #32
 80018c8:	291c      	cmp	r1, #28
 80018ca:	dc00      	bgt.n	80018ce <__aeabi_ddiv+0x4be>
 80018cc:	e61a      	b.n	8001504 <__aeabi_ddiv+0xf4>
 80018ce:	464b      	mov	r3, r9
 80018d0:	3808      	subs	r0, #8
 80018d2:	4083      	lsls	r3, r0
 80018d4:	2500      	movs	r5, #0
 80018d6:	4698      	mov	r8, r3
 80018d8:	e620      	b.n	800151c <__aeabi_ddiv+0x10c>
 80018da:	f001 f863 	bl	80029a4 <__clzsi2>
 80018de:	0003      	movs	r3, r0
 80018e0:	001a      	movs	r2, r3
 80018e2:	3215      	adds	r2, #21
 80018e4:	3020      	adds	r0, #32
 80018e6:	2a1c      	cmp	r2, #28
 80018e8:	dc00      	bgt.n	80018ec <__aeabi_ddiv+0x4dc>
 80018ea:	e630      	b.n	800154e <__aeabi_ddiv+0x13e>
 80018ec:	4654      	mov	r4, sl
 80018ee:	3b08      	subs	r3, #8
 80018f0:	2200      	movs	r2, #0
 80018f2:	409c      	lsls	r4, r3
 80018f4:	e635      	b.n	8001562 <__aeabi_ddiv+0x152>
 80018f6:	230f      	movs	r3, #15
 80018f8:	402b      	ands	r3, r5
 80018fa:	2b04      	cmp	r3, #4
 80018fc:	d100      	bne.n	8001900 <__aeabi_ddiv+0x4f0>
 80018fe:	e652      	b.n	80015a6 <__aeabi_ddiv+0x196>
 8001900:	2305      	movs	r3, #5
 8001902:	425b      	negs	r3, r3
 8001904:	42ab      	cmp	r3, r5
 8001906:	419b      	sbcs	r3, r3
 8001908:	3504      	adds	r5, #4
 800190a:	425b      	negs	r3, r3
 800190c:	08ed      	lsrs	r5, r5, #3
 800190e:	4498      	add	r8, r3
 8001910:	e64a      	b.n	80015a8 <__aeabi_ddiv+0x198>
 8001912:	428c      	cmp	r4, r1
 8001914:	d1c5      	bne.n	80018a2 <__aeabi_ddiv+0x492>
 8001916:	42af      	cmp	r7, r5
 8001918:	d9c0      	bls.n	800189c <__aeabi_ddiv+0x48c>
 800191a:	4690      	mov	r8, r2
 800191c:	e716      	b.n	800174c <__aeabi_ddiv+0x33c>
 800191e:	428a      	cmp	r2, r1
 8001920:	d800      	bhi.n	8001924 <__aeabi_ddiv+0x514>
 8001922:	e6ea      	b.n	80016fa <__aeabi_ddiv+0x2ea>
 8001924:	1e83      	subs	r3, r0, #2
 8001926:	1909      	adds	r1, r1, r4
 8001928:	e6e7      	b.n	80016fa <__aeabi_ddiv+0x2ea>
 800192a:	4a2a      	ldr	r2, [pc, #168]	; (80019d4 <__aeabi_ddiv+0x5c4>)
 800192c:	0028      	movs	r0, r5
 800192e:	445a      	add	r2, fp
 8001930:	4643      	mov	r3, r8
 8001932:	4095      	lsls	r5, r2
 8001934:	4093      	lsls	r3, r2
 8001936:	40c8      	lsrs	r0, r1
 8001938:	1e6a      	subs	r2, r5, #1
 800193a:	4195      	sbcs	r5, r2
 800193c:	4644      	mov	r4, r8
 800193e:	4303      	orrs	r3, r0
 8001940:	432b      	orrs	r3, r5
 8001942:	40cc      	lsrs	r4, r1
 8001944:	075a      	lsls	r2, r3, #29
 8001946:	d092      	beq.n	800186e <__aeabi_ddiv+0x45e>
 8001948:	220f      	movs	r2, #15
 800194a:	401a      	ands	r2, r3
 800194c:	2a04      	cmp	r2, #4
 800194e:	d188      	bne.n	8001862 <__aeabi_ddiv+0x452>
 8001950:	e78d      	b.n	800186e <__aeabi_ddiv+0x45e>
 8001952:	0035      	movs	r5, r6
 8001954:	4281      	cmp	r1, r0
 8001956:	d000      	beq.n	800195a <__aeabi_ddiv+0x54a>
 8001958:	e74b      	b.n	80017f2 <__aeabi_ddiv+0x3e2>
 800195a:	9a00      	ldr	r2, [sp, #0]
 800195c:	4293      	cmp	r3, r2
 800195e:	d000      	beq.n	8001962 <__aeabi_ddiv+0x552>
 8001960:	e747      	b.n	80017f2 <__aeabi_ddiv+0x3e2>
 8001962:	e618      	b.n	8001596 <__aeabi_ddiv+0x186>
 8001964:	42ae      	cmp	r6, r5
 8001966:	d99c      	bls.n	80018a2 <__aeabi_ddiv+0x492>
 8001968:	2302      	movs	r3, #2
 800196a:	425b      	negs	r3, r3
 800196c:	469c      	mov	ip, r3
 800196e:	9b00      	ldr	r3, [sp, #0]
 8001970:	44e0      	add	r8, ip
 8001972:	469c      	mov	ip, r3
 8001974:	4465      	add	r5, ip
 8001976:	429d      	cmp	r5, r3
 8001978:	419b      	sbcs	r3, r3
 800197a:	425b      	negs	r3, r3
 800197c:	191b      	adds	r3, r3, r4
 800197e:	18c9      	adds	r1, r1, r3
 8001980:	e6e4      	b.n	800174c <__aeabi_ddiv+0x33c>
 8001982:	4a15      	ldr	r2, [pc, #84]	; (80019d8 <__aeabi_ddiv+0x5c8>)
 8001984:	445a      	add	r2, fp
 8001986:	2a00      	cmp	r2, #0
 8001988:	dc00      	bgt.n	800198c <__aeabi_ddiv+0x57c>
 800198a:	e744      	b.n	8001816 <__aeabi_ddiv+0x406>
 800198c:	2301      	movs	r3, #1
 800198e:	2500      	movs	r5, #0
 8001990:	4498      	add	r8, r3
 8001992:	e609      	b.n	80015a8 <__aeabi_ddiv+0x198>
 8001994:	0765      	lsls	r5, r4, #29
 8001996:	0264      	lsls	r4, r4, #9
 8001998:	0b24      	lsrs	r4, r4, #12
 800199a:	08db      	lsrs	r3, r3, #3
 800199c:	431d      	orrs	r5, r3
 800199e:	2300      	movs	r3, #0
 80019a0:	e590      	b.n	80014c4 <__aeabi_ddiv+0xb4>
 80019a2:	9e00      	ldr	r6, [sp, #0]
 80019a4:	3d02      	subs	r5, #2
 80019a6:	0072      	lsls	r2, r6, #1
 80019a8:	42b2      	cmp	r2, r6
 80019aa:	41bf      	sbcs	r7, r7
 80019ac:	427f      	negs	r7, r7
 80019ae:	193c      	adds	r4, r7, r4
 80019b0:	1909      	adds	r1, r1, r4
 80019b2:	9200      	str	r2, [sp, #0]
 80019b4:	e7ce      	b.n	8001954 <__aeabi_ddiv+0x544>
 80019b6:	2480      	movs	r4, #128	; 0x80
 80019b8:	4643      	mov	r3, r8
 80019ba:	0324      	lsls	r4, r4, #12
 80019bc:	431c      	orrs	r4, r3
 80019be:	0324      	lsls	r4, r4, #12
 80019c0:	4b06      	ldr	r3, [pc, #24]	; (80019dc <__aeabi_ddiv+0x5cc>)
 80019c2:	0b24      	lsrs	r4, r4, #12
 80019c4:	e57e      	b.n	80014c4 <__aeabi_ddiv+0xb4>
 80019c6:	9a00      	ldr	r2, [sp, #0]
 80019c8:	429a      	cmp	r2, r3
 80019ca:	d3ea      	bcc.n	80019a2 <__aeabi_ddiv+0x592>
 80019cc:	0035      	movs	r5, r6
 80019ce:	e7c4      	b.n	800195a <__aeabi_ddiv+0x54a>
 80019d0:	0000043e 	.word	0x0000043e
 80019d4:	0000041e 	.word	0x0000041e
 80019d8:	000003ff 	.word	0x000003ff
 80019dc:	000007ff 	.word	0x000007ff

080019e0 <__eqdf2>:
 80019e0:	b5f0      	push	{r4, r5, r6, r7, lr}
 80019e2:	464f      	mov	r7, r9
 80019e4:	4646      	mov	r6, r8
 80019e6:	46d6      	mov	lr, sl
 80019e8:	4694      	mov	ip, r2
 80019ea:	4691      	mov	r9, r2
 80019ec:	031a      	lsls	r2, r3, #12
 80019ee:	0b12      	lsrs	r2, r2, #12
 80019f0:	4d18      	ldr	r5, [pc, #96]	; (8001a54 <__eqdf2+0x74>)
 80019f2:	b5c0      	push	{r6, r7, lr}
 80019f4:	004c      	lsls	r4, r1, #1
 80019f6:	030f      	lsls	r7, r1, #12
 80019f8:	4692      	mov	sl, r2
 80019fa:	005a      	lsls	r2, r3, #1
 80019fc:	0006      	movs	r6, r0
 80019fe:	4680      	mov	r8, r0
 8001a00:	0b3f      	lsrs	r7, r7, #12
 8001a02:	2001      	movs	r0, #1
 8001a04:	0d64      	lsrs	r4, r4, #21
 8001a06:	0fc9      	lsrs	r1, r1, #31
 8001a08:	0d52      	lsrs	r2, r2, #21
 8001a0a:	0fdb      	lsrs	r3, r3, #31
 8001a0c:	42ac      	cmp	r4, r5
 8001a0e:	d00a      	beq.n	8001a26 <__eqdf2+0x46>
 8001a10:	42aa      	cmp	r2, r5
 8001a12:	d003      	beq.n	8001a1c <__eqdf2+0x3c>
 8001a14:	4294      	cmp	r4, r2
 8001a16:	d101      	bne.n	8001a1c <__eqdf2+0x3c>
 8001a18:	4557      	cmp	r7, sl
 8001a1a:	d00d      	beq.n	8001a38 <__eqdf2+0x58>
 8001a1c:	bce0      	pop	{r5, r6, r7}
 8001a1e:	46ba      	mov	sl, r7
 8001a20:	46b1      	mov	r9, r6
 8001a22:	46a8      	mov	r8, r5
 8001a24:	bdf0      	pop	{r4, r5, r6, r7, pc}
 8001a26:	003d      	movs	r5, r7
 8001a28:	4335      	orrs	r5, r6
 8001a2a:	d1f7      	bne.n	8001a1c <__eqdf2+0x3c>
 8001a2c:	42a2      	cmp	r2, r4
 8001a2e:	d1f5      	bne.n	8001a1c <__eqdf2+0x3c>
 8001a30:	4652      	mov	r2, sl
 8001a32:	4665      	mov	r5, ip
 8001a34:	432a      	orrs	r2, r5
 8001a36:	d1f1      	bne.n	8001a1c <__eqdf2+0x3c>
 8001a38:	2001      	movs	r0, #1
 8001a3a:	45c8      	cmp	r8, r9
 8001a3c:	d1ee      	bne.n	8001a1c <__eqdf2+0x3c>
 8001a3e:	4299      	cmp	r1, r3
 8001a40:	d006      	beq.n	8001a50 <__eqdf2+0x70>
 8001a42:	2c00      	cmp	r4, #0
 8001a44:	d1ea      	bne.n	8001a1c <__eqdf2+0x3c>
 8001a46:	433e      	orrs	r6, r7
 8001a48:	0030      	movs	r0, r6
 8001a4a:	1e46      	subs	r6, r0, #1
 8001a4c:	41b0      	sbcs	r0, r6
 8001a4e:	e7e5      	b.n	8001a1c <__eqdf2+0x3c>
 8001a50:	2000      	movs	r0, #0
 8001a52:	e7e3      	b.n	8001a1c <__eqdf2+0x3c>
 8001a54:	000007ff 	.word	0x000007ff

08001a58 <__gedf2>:
 8001a58:	b5f0      	push	{r4, r5, r6, r7, lr}
 8001a5a:	464e      	mov	r6, r9
 8001a5c:	4645      	mov	r5, r8
 8001a5e:	4657      	mov	r7, sl
 8001a60:	46de      	mov	lr, fp
 8001a62:	0004      	movs	r4, r0
 8001a64:	0018      	movs	r0, r3
 8001a66:	b5e0      	push	{r5, r6, r7, lr}
 8001a68:	0016      	movs	r6, r2
 8001a6a:	031b      	lsls	r3, r3, #12
 8001a6c:	0b1b      	lsrs	r3, r3, #12
 8001a6e:	4d32      	ldr	r5, [pc, #200]	; (8001b38 <__gedf2+0xe0>)
 8001a70:	030f      	lsls	r7, r1, #12
 8001a72:	004a      	lsls	r2, r1, #1
 8001a74:	4699      	mov	r9, r3
 8001a76:	0043      	lsls	r3, r0, #1
 8001a78:	46a4      	mov	ip, r4
 8001a7a:	46b0      	mov	r8, r6
 8001a7c:	0b3f      	lsrs	r7, r7, #12
 8001a7e:	0d52      	lsrs	r2, r2, #21
 8001a80:	0fc9      	lsrs	r1, r1, #31
 8001a82:	0d5b      	lsrs	r3, r3, #21
 8001a84:	0fc0      	lsrs	r0, r0, #31
 8001a86:	42aa      	cmp	r2, r5
 8001a88:	d029      	beq.n	8001ade <__gedf2+0x86>
 8001a8a:	42ab      	cmp	r3, r5
 8001a8c:	d018      	beq.n	8001ac0 <__gedf2+0x68>
 8001a8e:	2a00      	cmp	r2, #0
 8001a90:	d12a      	bne.n	8001ae8 <__gedf2+0x90>
 8001a92:	433c      	orrs	r4, r7
 8001a94:	46a3      	mov	fp, r4
 8001a96:	4265      	negs	r5, r4
 8001a98:	4165      	adcs	r5, r4
 8001a9a:	2b00      	cmp	r3, #0
 8001a9c:	d102      	bne.n	8001aa4 <__gedf2+0x4c>
 8001a9e:	464c      	mov	r4, r9
 8001aa0:	4326      	orrs	r6, r4
 8001aa2:	d027      	beq.n	8001af4 <__gedf2+0x9c>
 8001aa4:	2d00      	cmp	r5, #0
 8001aa6:	d115      	bne.n	8001ad4 <__gedf2+0x7c>
 8001aa8:	4281      	cmp	r1, r0
 8001aaa:	d028      	beq.n	8001afe <__gedf2+0xa6>
 8001aac:	2002      	movs	r0, #2
 8001aae:	3901      	subs	r1, #1
 8001ab0:	4008      	ands	r0, r1
 8001ab2:	3801      	subs	r0, #1
 8001ab4:	bcf0      	pop	{r4, r5, r6, r7}
 8001ab6:	46bb      	mov	fp, r7
 8001ab8:	46b2      	mov	sl, r6
 8001aba:	46a9      	mov	r9, r5
 8001abc:	46a0      	mov	r8, r4
 8001abe:	bdf0      	pop	{r4, r5, r6, r7, pc}
 8001ac0:	464d      	mov	r5, r9
 8001ac2:	432e      	orrs	r6, r5
 8001ac4:	d12f      	bne.n	8001b26 <__gedf2+0xce>
 8001ac6:	2a00      	cmp	r2, #0
 8001ac8:	d1ee      	bne.n	8001aa8 <__gedf2+0x50>
 8001aca:	433c      	orrs	r4, r7
 8001acc:	4265      	negs	r5, r4
 8001ace:	4165      	adcs	r5, r4
 8001ad0:	2d00      	cmp	r5, #0
 8001ad2:	d0e9      	beq.n	8001aa8 <__gedf2+0x50>
 8001ad4:	2800      	cmp	r0, #0
 8001ad6:	d1ed      	bne.n	8001ab4 <__gedf2+0x5c>
 8001ad8:	2001      	movs	r0, #1
 8001ada:	4240      	negs	r0, r0
 8001adc:	e7ea      	b.n	8001ab4 <__gedf2+0x5c>
 8001ade:	003d      	movs	r5, r7
 8001ae0:	4325      	orrs	r5, r4
 8001ae2:	d120      	bne.n	8001b26 <__gedf2+0xce>
 8001ae4:	4293      	cmp	r3, r2
 8001ae6:	d0eb      	beq.n	8001ac0 <__gedf2+0x68>
 8001ae8:	2b00      	cmp	r3, #0
 8001aea:	d1dd      	bne.n	8001aa8 <__gedf2+0x50>
 8001aec:	464c      	mov	r4, r9
 8001aee:	4326      	orrs	r6, r4
 8001af0:	d1da      	bne.n	8001aa8 <__gedf2+0x50>
 8001af2:	e7db      	b.n	8001aac <__gedf2+0x54>
 8001af4:	465b      	mov	r3, fp
 8001af6:	2000      	movs	r0, #0
 8001af8:	2b00      	cmp	r3, #0
 8001afa:	d0db      	beq.n	8001ab4 <__gedf2+0x5c>
 8001afc:	e7d6      	b.n	8001aac <__gedf2+0x54>
 8001afe:	429a      	cmp	r2, r3
 8001b00:	dc0a      	bgt.n	8001b18 <__gedf2+0xc0>
 8001b02:	dbe7      	blt.n	8001ad4 <__gedf2+0x7c>
 8001b04:	454f      	cmp	r7, r9
 8001b06:	d8d1      	bhi.n	8001aac <__gedf2+0x54>
 8001b08:	d010      	beq.n	8001b2c <__gedf2+0xd4>
 8001b0a:	2000      	movs	r0, #0
 8001b0c:	454f      	cmp	r7, r9
 8001b0e:	d2d1      	bcs.n	8001ab4 <__gedf2+0x5c>
 8001b10:	2900      	cmp	r1, #0
 8001b12:	d0e1      	beq.n	8001ad8 <__gedf2+0x80>
 8001b14:	0008      	movs	r0, r1
 8001b16:	e7cd      	b.n	8001ab4 <__gedf2+0x5c>
 8001b18:	4243      	negs	r3, r0
 8001b1a:	4158      	adcs	r0, r3
 8001b1c:	2302      	movs	r3, #2
 8001b1e:	4240      	negs	r0, r0
 8001b20:	4018      	ands	r0, r3
 8001b22:	3801      	subs	r0, #1
 8001b24:	e7c6      	b.n	8001ab4 <__gedf2+0x5c>
 8001b26:	2002      	movs	r0, #2
 8001b28:	4240      	negs	r0, r0
 8001b2a:	e7c3      	b.n	8001ab4 <__gedf2+0x5c>
 8001b2c:	45c4      	cmp	ip, r8
 8001b2e:	d8bd      	bhi.n	8001aac <__gedf2+0x54>
 8001b30:	2000      	movs	r0, #0
 8001b32:	45c4      	cmp	ip, r8
 8001b34:	d2be      	bcs.n	8001ab4 <__gedf2+0x5c>
 8001b36:	e7eb      	b.n	8001b10 <__gedf2+0xb8>
 8001b38:	000007ff 	.word	0x000007ff

08001b3c <__ledf2>:
 8001b3c:	b5f0      	push	{r4, r5, r6, r7, lr}
 8001b3e:	464e      	mov	r6, r9
 8001b40:	4645      	mov	r5, r8
 8001b42:	4657      	mov	r7, sl
 8001b44:	46de      	mov	lr, fp
 8001b46:	0004      	movs	r4, r0
 8001b48:	0018      	movs	r0, r3
 8001b4a:	b5e0      	push	{r5, r6, r7, lr}
 8001b4c:	0016      	movs	r6, r2
 8001b4e:	031b      	lsls	r3, r3, #12
 8001b50:	0b1b      	lsrs	r3, r3, #12
 8001b52:	4d31      	ldr	r5, [pc, #196]	; (8001c18 <__ledf2+0xdc>)
 8001b54:	030f      	lsls	r7, r1, #12
 8001b56:	004a      	lsls	r2, r1, #1
 8001b58:	4699      	mov	r9, r3
 8001b5a:	0043      	lsls	r3, r0, #1
 8001b5c:	46a4      	mov	ip, r4
 8001b5e:	46b0      	mov	r8, r6
 8001b60:	0b3f      	lsrs	r7, r7, #12
 8001b62:	0d52      	lsrs	r2, r2, #21
 8001b64:	0fc9      	lsrs	r1, r1, #31
 8001b66:	0d5b      	lsrs	r3, r3, #21
 8001b68:	0fc0      	lsrs	r0, r0, #31
 8001b6a:	42aa      	cmp	r2, r5
 8001b6c:	d011      	beq.n	8001b92 <__ledf2+0x56>
 8001b6e:	42ab      	cmp	r3, r5
 8001b70:	d014      	beq.n	8001b9c <__ledf2+0x60>
 8001b72:	2a00      	cmp	r2, #0
 8001b74:	d12f      	bne.n	8001bd6 <__ledf2+0x9a>
 8001b76:	433c      	orrs	r4, r7
 8001b78:	46a3      	mov	fp, r4
 8001b7a:	4265      	negs	r5, r4
 8001b7c:	4165      	adcs	r5, r4
 8001b7e:	2b00      	cmp	r3, #0
 8001b80:	d114      	bne.n	8001bac <__ledf2+0x70>
 8001b82:	464c      	mov	r4, r9
 8001b84:	4326      	orrs	r6, r4
 8001b86:	d111      	bne.n	8001bac <__ledf2+0x70>
 8001b88:	465b      	mov	r3, fp
 8001b8a:	2000      	movs	r0, #0
 8001b8c:	2b00      	cmp	r3, #0
 8001b8e:	d017      	beq.n	8001bc0 <__ledf2+0x84>
 8001b90:	e010      	b.n	8001bb4 <__ledf2+0x78>
 8001b92:	003d      	movs	r5, r7
 8001b94:	4325      	orrs	r5, r4
 8001b96:	d112      	bne.n	8001bbe <__ledf2+0x82>
 8001b98:	4293      	cmp	r3, r2
 8001b9a:	d11c      	bne.n	8001bd6 <__ledf2+0x9a>
 8001b9c:	464d      	mov	r5, r9
 8001b9e:	432e      	orrs	r6, r5
 8001ba0:	d10d      	bne.n	8001bbe <__ledf2+0x82>
 8001ba2:	2a00      	cmp	r2, #0
 8001ba4:	d104      	bne.n	8001bb0 <__ledf2+0x74>
 8001ba6:	433c      	orrs	r4, r7
 8001ba8:	4265      	negs	r5, r4
 8001baa:	4165      	adcs	r5, r4
 8001bac:	2d00      	cmp	r5, #0
 8001bae:	d10d      	bne.n	8001bcc <__ledf2+0x90>
 8001bb0:	4281      	cmp	r1, r0
 8001bb2:	d016      	beq.n	8001be2 <__ledf2+0xa6>
 8001bb4:	2002      	movs	r0, #2
 8001bb6:	3901      	subs	r1, #1
 8001bb8:	4008      	ands	r0, r1
 8001bba:	3801      	subs	r0, #1
 8001bbc:	e000      	b.n	8001bc0 <__ledf2+0x84>
 8001bbe:	2002      	movs	r0, #2
 8001bc0:	bcf0      	pop	{r4, r5, r6, r7}
 8001bc2:	46bb      	mov	fp, r7
 8001bc4:	46b2      	mov	sl, r6
 8001bc6:	46a9      	mov	r9, r5
 8001bc8:	46a0      	mov	r8, r4
 8001bca:	bdf0      	pop	{r4, r5, r6, r7, pc}
 8001bcc:	2800      	cmp	r0, #0
 8001bce:	d1f7      	bne.n	8001bc0 <__ledf2+0x84>
 8001bd0:	2001      	movs	r0, #1
 8001bd2:	4240      	negs	r0, r0
 8001bd4:	e7f4      	b.n	8001bc0 <__ledf2+0x84>
 8001bd6:	2b00      	cmp	r3, #0
 8001bd8:	d1ea      	bne.n	8001bb0 <__ledf2+0x74>
 8001bda:	464c      	mov	r4, r9
 8001bdc:	4326      	orrs	r6, r4
 8001bde:	d1e7      	bne.n	8001bb0 <__ledf2+0x74>
 8001be0:	e7e8      	b.n	8001bb4 <__ledf2+0x78>
 8001be2:	429a      	cmp	r2, r3
 8001be4:	dd06      	ble.n	8001bf4 <__ledf2+0xb8>
 8001be6:	4243      	negs	r3, r0
 8001be8:	4158      	adcs	r0, r3
 8001bea:	2302      	movs	r3, #2
 8001bec:	4240      	negs	r0, r0
 8001bee:	4018      	ands	r0, r3
 8001bf0:	3801      	subs	r0, #1
 8001bf2:	e7e5      	b.n	8001bc0 <__ledf2+0x84>
 8001bf4:	429a      	cmp	r2, r3
 8001bf6:	dbe9      	blt.n	8001bcc <__ledf2+0x90>
 8001bf8:	454f      	cmp	r7, r9
 8001bfa:	d8db      	bhi.n	8001bb4 <__ledf2+0x78>
 8001bfc:	d006      	beq.n	8001c0c <__ledf2+0xd0>
 8001bfe:	2000      	movs	r0, #0
 8001c00:	454f      	cmp	r7, r9
 8001c02:	d2dd      	bcs.n	8001bc0 <__ledf2+0x84>
 8001c04:	2900      	cmp	r1, #0
 8001c06:	d0e3      	beq.n	8001bd0 <__ledf2+0x94>
 8001c08:	0008      	movs	r0, r1
 8001c0a:	e7d9      	b.n	8001bc0 <__ledf2+0x84>
 8001c0c:	45c4      	cmp	ip, r8
 8001c0e:	d8d1      	bhi.n	8001bb4 <__ledf2+0x78>
 8001c10:	2000      	movs	r0, #0
 8001c12:	45c4      	cmp	ip, r8
 8001c14:	d2d4      	bcs.n	8001bc0 <__ledf2+0x84>
 8001c16:	e7f5      	b.n	8001c04 <__ledf2+0xc8>
 8001c18:	000007ff 	.word	0x000007ff

08001c1c <__aeabi_dmul>:
 8001c1c:	b5f0      	push	{r4, r5, r6, r7, lr}
 8001c1e:	4657      	mov	r7, sl
 8001c20:	464e      	mov	r6, r9
 8001c22:	4645      	mov	r5, r8
 8001c24:	46de      	mov	lr, fp
 8001c26:	b5e0      	push	{r5, r6, r7, lr}
 8001c28:	4698      	mov	r8, r3
 8001c2a:	030c      	lsls	r4, r1, #12
 8001c2c:	004b      	lsls	r3, r1, #1
 8001c2e:	0006      	movs	r6, r0
 8001c30:	4692      	mov	sl, r2
 8001c32:	b087      	sub	sp, #28
 8001c34:	0b24      	lsrs	r4, r4, #12
 8001c36:	0d5b      	lsrs	r3, r3, #21
 8001c38:	0fcf      	lsrs	r7, r1, #31
 8001c3a:	2b00      	cmp	r3, #0
 8001c3c:	d06c      	beq.n	8001d18 <__aeabi_dmul+0xfc>
 8001c3e:	4add      	ldr	r2, [pc, #884]	; (8001fb4 <__aeabi_dmul+0x398>)
 8001c40:	4293      	cmp	r3, r2
 8001c42:	d100      	bne.n	8001c46 <__aeabi_dmul+0x2a>
 8001c44:	e086      	b.n	8001d54 <__aeabi_dmul+0x138>
 8001c46:	0f42      	lsrs	r2, r0, #29
 8001c48:	00e4      	lsls	r4, r4, #3
 8001c4a:	4314      	orrs	r4, r2
 8001c4c:	2280      	movs	r2, #128	; 0x80
 8001c4e:	0412      	lsls	r2, r2, #16
 8001c50:	4314      	orrs	r4, r2
 8001c52:	4ad9      	ldr	r2, [pc, #868]	; (8001fb8 <__aeabi_dmul+0x39c>)
 8001c54:	00c5      	lsls	r5, r0, #3
 8001c56:	4694      	mov	ip, r2
 8001c58:	4463      	add	r3, ip
 8001c5a:	9300      	str	r3, [sp, #0]
 8001c5c:	2300      	movs	r3, #0
 8001c5e:	4699      	mov	r9, r3
 8001c60:	469b      	mov	fp, r3
 8001c62:	4643      	mov	r3, r8
 8001c64:	4642      	mov	r2, r8
 8001c66:	031e      	lsls	r6, r3, #12
 8001c68:	0fd2      	lsrs	r2, r2, #31
 8001c6a:	005b      	lsls	r3, r3, #1
 8001c6c:	4650      	mov	r0, sl
 8001c6e:	4690      	mov	r8, r2
 8001c70:	0b36      	lsrs	r6, r6, #12
 8001c72:	0d5b      	lsrs	r3, r3, #21
 8001c74:	d100      	bne.n	8001c78 <__aeabi_dmul+0x5c>
 8001c76:	e078      	b.n	8001d6a <__aeabi_dmul+0x14e>
 8001c78:	4ace      	ldr	r2, [pc, #824]	; (8001fb4 <__aeabi_dmul+0x398>)
 8001c7a:	4293      	cmp	r3, r2
 8001c7c:	d01d      	beq.n	8001cba <__aeabi_dmul+0x9e>
 8001c7e:	49ce      	ldr	r1, [pc, #824]	; (8001fb8 <__aeabi_dmul+0x39c>)
 8001c80:	0f42      	lsrs	r2, r0, #29
 8001c82:	468c      	mov	ip, r1
 8001c84:	9900      	ldr	r1, [sp, #0]
 8001c86:	4463      	add	r3, ip
 8001c88:	00f6      	lsls	r6, r6, #3
 8001c8a:	468c      	mov	ip, r1
 8001c8c:	4316      	orrs	r6, r2
 8001c8e:	2280      	movs	r2, #128	; 0x80
 8001c90:	449c      	add	ip, r3
 8001c92:	0412      	lsls	r2, r2, #16
 8001c94:	4663      	mov	r3, ip
 8001c96:	4316      	orrs	r6, r2
 8001c98:	00c2      	lsls	r2, r0, #3
 8001c9a:	2000      	movs	r0, #0
 8001c9c:	9300      	str	r3, [sp, #0]
 8001c9e:	9900      	ldr	r1, [sp, #0]
 8001ca0:	4643      	mov	r3, r8
 8001ca2:	3101      	adds	r1, #1
 8001ca4:	468c      	mov	ip, r1
 8001ca6:	4649      	mov	r1, r9
 8001ca8:	407b      	eors	r3, r7
 8001caa:	9301      	str	r3, [sp, #4]
 8001cac:	290f      	cmp	r1, #15
 8001cae:	d900      	bls.n	8001cb2 <__aeabi_dmul+0x96>
 8001cb0:	e07e      	b.n	8001db0 <__aeabi_dmul+0x194>
 8001cb2:	4bc2      	ldr	r3, [pc, #776]	; (8001fbc <__aeabi_dmul+0x3a0>)
 8001cb4:	0089      	lsls	r1, r1, #2
 8001cb6:	5859      	ldr	r1, [r3, r1]
 8001cb8:	468f      	mov	pc, r1
 8001cba:	4652      	mov	r2, sl
 8001cbc:	9b00      	ldr	r3, [sp, #0]
 8001cbe:	4332      	orrs	r2, r6
 8001cc0:	d000      	beq.n	8001cc4 <__aeabi_dmul+0xa8>
 8001cc2:	e156      	b.n	8001f72 <__aeabi_dmul+0x356>
 8001cc4:	49bb      	ldr	r1, [pc, #748]	; (8001fb4 <__aeabi_dmul+0x398>)
 8001cc6:	2600      	movs	r6, #0
 8001cc8:	468c      	mov	ip, r1
 8001cca:	4463      	add	r3, ip
 8001ccc:	4649      	mov	r1, r9
 8001cce:	9300      	str	r3, [sp, #0]
 8001cd0:	2302      	movs	r3, #2
 8001cd2:	4319      	orrs	r1, r3
 8001cd4:	4689      	mov	r9, r1
 8001cd6:	2002      	movs	r0, #2
 8001cd8:	e7e1      	b.n	8001c9e <__aeabi_dmul+0x82>
 8001cda:	4643      	mov	r3, r8
 8001cdc:	9301      	str	r3, [sp, #4]
 8001cde:	0034      	movs	r4, r6
 8001ce0:	0015      	movs	r5, r2
 8001ce2:	4683      	mov	fp, r0
 8001ce4:	465b      	mov	r3, fp
 8001ce6:	2b02      	cmp	r3, #2
 8001ce8:	d05e      	beq.n	8001da8 <__aeabi_dmul+0x18c>
 8001cea:	2b03      	cmp	r3, #3
 8001cec:	d100      	bne.n	8001cf0 <__aeabi_dmul+0xd4>
 8001cee:	e1f3      	b.n	80020d8 <__aeabi_dmul+0x4bc>
 8001cf0:	2b01      	cmp	r3, #1
 8001cf2:	d000      	beq.n	8001cf6 <__aeabi_dmul+0xda>
 8001cf4:	e118      	b.n	8001f28 <__aeabi_dmul+0x30c>
 8001cf6:	2200      	movs	r2, #0
 8001cf8:	2400      	movs	r4, #0
 8001cfa:	2500      	movs	r5, #0
 8001cfc:	9b01      	ldr	r3, [sp, #4]
 8001cfe:	0512      	lsls	r2, r2, #20
 8001d00:	4322      	orrs	r2, r4
 8001d02:	07db      	lsls	r3, r3, #31
 8001d04:	431a      	orrs	r2, r3
 8001d06:	0028      	movs	r0, r5
 8001d08:	0011      	movs	r1, r2
 8001d0a:	b007      	add	sp, #28
 8001d0c:	bcf0      	pop	{r4, r5, r6, r7}
 8001d0e:	46bb      	mov	fp, r7
 8001d10:	46b2      	mov	sl, r6
 8001d12:	46a9      	mov	r9, r5
 8001d14:	46a0      	mov	r8, r4
 8001d16:	bdf0      	pop	{r4, r5, r6, r7, pc}
 8001d18:	0025      	movs	r5, r4
 8001d1a:	4305      	orrs	r5, r0
 8001d1c:	d100      	bne.n	8001d20 <__aeabi_dmul+0x104>
 8001d1e:	e141      	b.n	8001fa4 <__aeabi_dmul+0x388>
 8001d20:	2c00      	cmp	r4, #0
 8001d22:	d100      	bne.n	8001d26 <__aeabi_dmul+0x10a>
 8001d24:	e1ad      	b.n	8002082 <__aeabi_dmul+0x466>
 8001d26:	0020      	movs	r0, r4
 8001d28:	f000 fe3c 	bl	80029a4 <__clzsi2>
 8001d2c:	0001      	movs	r1, r0
 8001d2e:	0002      	movs	r2, r0
 8001d30:	390b      	subs	r1, #11
 8001d32:	231d      	movs	r3, #29
 8001d34:	0010      	movs	r0, r2
 8001d36:	1a5b      	subs	r3, r3, r1
 8001d38:	0031      	movs	r1, r6
 8001d3a:	0035      	movs	r5, r6
 8001d3c:	3808      	subs	r0, #8
 8001d3e:	4084      	lsls	r4, r0
 8001d40:	40d9      	lsrs	r1, r3
 8001d42:	4085      	lsls	r5, r0
 8001d44:	430c      	orrs	r4, r1
 8001d46:	489e      	ldr	r0, [pc, #632]	; (8001fc0 <__aeabi_dmul+0x3a4>)
 8001d48:	1a83      	subs	r3, r0, r2
 8001d4a:	9300      	str	r3, [sp, #0]
 8001d4c:	2300      	movs	r3, #0
 8001d4e:	4699      	mov	r9, r3
 8001d50:	469b      	mov	fp, r3
 8001d52:	e786      	b.n	8001c62 <__aeabi_dmul+0x46>
 8001d54:	0005      	movs	r5, r0
 8001d56:	4325      	orrs	r5, r4
 8001d58:	d000      	beq.n	8001d5c <__aeabi_dmul+0x140>
 8001d5a:	e11c      	b.n	8001f96 <__aeabi_dmul+0x37a>
 8001d5c:	2208      	movs	r2, #8
 8001d5e:	9300      	str	r3, [sp, #0]
 8001d60:	2302      	movs	r3, #2
 8001d62:	2400      	movs	r4, #0
 8001d64:	4691      	mov	r9, r2
 8001d66:	469b      	mov	fp, r3
 8001d68:	e77b      	b.n	8001c62 <__aeabi_dmul+0x46>
 8001d6a:	4652      	mov	r2, sl
 8001d6c:	4332      	orrs	r2, r6
 8001d6e:	d100      	bne.n	8001d72 <__aeabi_dmul+0x156>
 8001d70:	e10a      	b.n	8001f88 <__aeabi_dmul+0x36c>
 8001d72:	2e00      	cmp	r6, #0
 8001d74:	d100      	bne.n	8001d78 <__aeabi_dmul+0x15c>
 8001d76:	e176      	b.n	8002066 <__aeabi_dmul+0x44a>
 8001d78:	0030      	movs	r0, r6
 8001d7a:	f000 fe13 	bl	80029a4 <__clzsi2>
 8001d7e:	0002      	movs	r2, r0
 8001d80:	3a0b      	subs	r2, #11
 8001d82:	231d      	movs	r3, #29
 8001d84:	0001      	movs	r1, r0
 8001d86:	1a9b      	subs	r3, r3, r2
 8001d88:	4652      	mov	r2, sl
 8001d8a:	3908      	subs	r1, #8
 8001d8c:	40da      	lsrs	r2, r3
 8001d8e:	408e      	lsls	r6, r1
 8001d90:	4316      	orrs	r6, r2
 8001d92:	4652      	mov	r2, sl
 8001d94:	408a      	lsls	r2, r1
 8001d96:	9b00      	ldr	r3, [sp, #0]
 8001d98:	4989      	ldr	r1, [pc, #548]	; (8001fc0 <__aeabi_dmul+0x3a4>)
 8001d9a:	1a18      	subs	r0, r3, r0
 8001d9c:	0003      	movs	r3, r0
 8001d9e:	468c      	mov	ip, r1
 8001da0:	4463      	add	r3, ip
 8001da2:	2000      	movs	r0, #0
 8001da4:	9300      	str	r3, [sp, #0]
 8001da6:	e77a      	b.n	8001c9e <__aeabi_dmul+0x82>
 8001da8:	2400      	movs	r4, #0
 8001daa:	2500      	movs	r5, #0
 8001dac:	4a81      	ldr	r2, [pc, #516]	; (8001fb4 <__aeabi_dmul+0x398>)
 8001dae:	e7a5      	b.n	8001cfc <__aeabi_dmul+0xe0>
 8001db0:	0c2f      	lsrs	r7, r5, #16
 8001db2:	042d      	lsls	r5, r5, #16
 8001db4:	0c2d      	lsrs	r5, r5, #16
 8001db6:	002b      	movs	r3, r5
 8001db8:	0c11      	lsrs	r1, r2, #16
 8001dba:	0412      	lsls	r2, r2, #16
 8001dbc:	0c12      	lsrs	r2, r2, #16
 8001dbe:	4353      	muls	r3, r2
 8001dc0:	4698      	mov	r8, r3
 8001dc2:	0013      	movs	r3, r2
 8001dc4:	0028      	movs	r0, r5
 8001dc6:	437b      	muls	r3, r7
 8001dc8:	4699      	mov	r9, r3
 8001dca:	4348      	muls	r0, r1
 8001dcc:	4448      	add	r0, r9
 8001dce:	4683      	mov	fp, r0
 8001dd0:	4640      	mov	r0, r8
 8001dd2:	000b      	movs	r3, r1
 8001dd4:	0c00      	lsrs	r0, r0, #16
 8001dd6:	4682      	mov	sl, r0
 8001dd8:	4658      	mov	r0, fp
 8001dda:	437b      	muls	r3, r7
 8001ddc:	4450      	add	r0, sl
 8001dde:	9302      	str	r3, [sp, #8]
 8001de0:	4581      	cmp	r9, r0
 8001de2:	d906      	bls.n	8001df2 <__aeabi_dmul+0x1d6>
 8001de4:	469a      	mov	sl, r3
 8001de6:	2380      	movs	r3, #128	; 0x80
 8001de8:	025b      	lsls	r3, r3, #9
 8001dea:	4699      	mov	r9, r3
 8001dec:	44ca      	add	sl, r9
 8001dee:	4653      	mov	r3, sl
 8001df0:	9302      	str	r3, [sp, #8]
 8001df2:	0c03      	lsrs	r3, r0, #16
 8001df4:	469b      	mov	fp, r3
 8001df6:	4643      	mov	r3, r8
 8001df8:	041b      	lsls	r3, r3, #16
 8001dfa:	0400      	lsls	r0, r0, #16
 8001dfc:	0c1b      	lsrs	r3, r3, #16
 8001dfe:	4698      	mov	r8, r3
 8001e00:	0003      	movs	r3, r0
 8001e02:	4443      	add	r3, r8
 8001e04:	9304      	str	r3, [sp, #16]
 8001e06:	0c33      	lsrs	r3, r6, #16
 8001e08:	4699      	mov	r9, r3
 8001e0a:	002b      	movs	r3, r5
 8001e0c:	0436      	lsls	r6, r6, #16
 8001e0e:	0c36      	lsrs	r6, r6, #16
 8001e10:	4373      	muls	r3, r6
 8001e12:	4698      	mov	r8, r3
 8001e14:	0033      	movs	r3, r6
 8001e16:	437b      	muls	r3, r7
 8001e18:	469a      	mov	sl, r3
 8001e1a:	464b      	mov	r3, r9
 8001e1c:	435d      	muls	r5, r3
 8001e1e:	435f      	muls	r7, r3
 8001e20:	4643      	mov	r3, r8
 8001e22:	4455      	add	r5, sl
 8001e24:	0c18      	lsrs	r0, r3, #16
 8001e26:	1940      	adds	r0, r0, r5
 8001e28:	4582      	cmp	sl, r0
 8001e2a:	d903      	bls.n	8001e34 <__aeabi_dmul+0x218>
 8001e2c:	2380      	movs	r3, #128	; 0x80
 8001e2e:	025b      	lsls	r3, r3, #9
 8001e30:	469a      	mov	sl, r3
 8001e32:	4457      	add	r7, sl
 8001e34:	0c05      	lsrs	r5, r0, #16
 8001e36:	19eb      	adds	r3, r5, r7
 8001e38:	9305      	str	r3, [sp, #20]
 8001e3a:	4643      	mov	r3, r8
 8001e3c:	041d      	lsls	r5, r3, #16
 8001e3e:	0c2d      	lsrs	r5, r5, #16
 8001e40:	0400      	lsls	r0, r0, #16
 8001e42:	1940      	adds	r0, r0, r5
 8001e44:	0c25      	lsrs	r5, r4, #16
 8001e46:	0424      	lsls	r4, r4, #16
 8001e48:	0c24      	lsrs	r4, r4, #16
 8001e4a:	0027      	movs	r7, r4
 8001e4c:	4357      	muls	r7, r2
 8001e4e:	436a      	muls	r2, r5
 8001e50:	4690      	mov	r8, r2
 8001e52:	002a      	movs	r2, r5
 8001e54:	0c3b      	lsrs	r3, r7, #16
 8001e56:	469a      	mov	sl, r3
 8001e58:	434a      	muls	r2, r1
 8001e5a:	4361      	muls	r1, r4
 8001e5c:	4441      	add	r1, r8
 8001e5e:	4451      	add	r1, sl
 8001e60:	4483      	add	fp, r0
 8001e62:	4588      	cmp	r8, r1
 8001e64:	d903      	bls.n	8001e6e <__aeabi_dmul+0x252>
 8001e66:	2380      	movs	r3, #128	; 0x80
 8001e68:	025b      	lsls	r3, r3, #9
 8001e6a:	4698      	mov	r8, r3
 8001e6c:	4442      	add	r2, r8
 8001e6e:	043f      	lsls	r7, r7, #16
 8001e70:	0c0b      	lsrs	r3, r1, #16
 8001e72:	0c3f      	lsrs	r7, r7, #16
 8001e74:	0409      	lsls	r1, r1, #16
 8001e76:	19c9      	adds	r1, r1, r7
 8001e78:	0027      	movs	r7, r4
 8001e7a:	4698      	mov	r8, r3
 8001e7c:	464b      	mov	r3, r9
 8001e7e:	4377      	muls	r7, r6
 8001e80:	435c      	muls	r4, r3
 8001e82:	436e      	muls	r6, r5
 8001e84:	435d      	muls	r5, r3
 8001e86:	0c3b      	lsrs	r3, r7, #16
 8001e88:	4699      	mov	r9, r3
 8001e8a:	19a4      	adds	r4, r4, r6
 8001e8c:	444c      	add	r4, r9
 8001e8e:	4442      	add	r2, r8
 8001e90:	9503      	str	r5, [sp, #12]
 8001e92:	42a6      	cmp	r6, r4
 8001e94:	d904      	bls.n	8001ea0 <__aeabi_dmul+0x284>
 8001e96:	2380      	movs	r3, #128	; 0x80
 8001e98:	025b      	lsls	r3, r3, #9
 8001e9a:	4698      	mov	r8, r3
 8001e9c:	4445      	add	r5, r8
 8001e9e:	9503      	str	r5, [sp, #12]
 8001ea0:	9b02      	ldr	r3, [sp, #8]
 8001ea2:	043f      	lsls	r7, r7, #16
 8001ea4:	445b      	add	r3, fp
 8001ea6:	001e      	movs	r6, r3
 8001ea8:	4283      	cmp	r3, r0
 8001eaa:	4180      	sbcs	r0, r0
 8001eac:	0423      	lsls	r3, r4, #16
 8001eae:	4698      	mov	r8, r3
 8001eb0:	9b05      	ldr	r3, [sp, #20]
 8001eb2:	0c3f      	lsrs	r7, r7, #16
 8001eb4:	4447      	add	r7, r8
 8001eb6:	4698      	mov	r8, r3
 8001eb8:	1876      	adds	r6, r6, r1
 8001eba:	428e      	cmp	r6, r1
 8001ebc:	4189      	sbcs	r1, r1
 8001ebe:	4447      	add	r7, r8
 8001ec0:	4240      	negs	r0, r0
 8001ec2:	183d      	adds	r5, r7, r0
 8001ec4:	46a8      	mov	r8, r5
 8001ec6:	4693      	mov	fp, r2
 8001ec8:	4249      	negs	r1, r1
 8001eca:	468a      	mov	sl, r1
 8001ecc:	44c3      	add	fp, r8
 8001ece:	429f      	cmp	r7, r3
 8001ed0:	41bf      	sbcs	r7, r7
 8001ed2:	4580      	cmp	r8, r0
 8001ed4:	4180      	sbcs	r0, r0
 8001ed6:	9b03      	ldr	r3, [sp, #12]
 8001ed8:	44da      	add	sl, fp
 8001eda:	4698      	mov	r8, r3
 8001edc:	4653      	mov	r3, sl
 8001ede:	4240      	negs	r0, r0
 8001ee0:	427f      	negs	r7, r7
 8001ee2:	4307      	orrs	r7, r0
 8001ee4:	0c24      	lsrs	r4, r4, #16
 8001ee6:	4593      	cmp	fp, r2
 8001ee8:	4192      	sbcs	r2, r2
 8001eea:	458a      	cmp	sl, r1
 8001eec:	4189      	sbcs	r1, r1
 8001eee:	193f      	adds	r7, r7, r4
 8001ef0:	0ddc      	lsrs	r4, r3, #23
 8001ef2:	9b04      	ldr	r3, [sp, #16]
 8001ef4:	0275      	lsls	r5, r6, #9
 8001ef6:	431d      	orrs	r5, r3
 8001ef8:	1e68      	subs	r0, r5, #1
 8001efa:	4185      	sbcs	r5, r0
 8001efc:	4653      	mov	r3, sl
 8001efe:	4252      	negs	r2, r2
 8001f00:	4249      	negs	r1, r1
 8001f02:	430a      	orrs	r2, r1
 8001f04:	18bf      	adds	r7, r7, r2
 8001f06:	4447      	add	r7, r8
 8001f08:	0df6      	lsrs	r6, r6, #23
 8001f0a:	027f      	lsls	r7, r7, #9
 8001f0c:	4335      	orrs	r5, r6
 8001f0e:	025a      	lsls	r2, r3, #9
 8001f10:	433c      	orrs	r4, r7
 8001f12:	4315      	orrs	r5, r2
 8001f14:	01fb      	lsls	r3, r7, #7
 8001f16:	d400      	bmi.n	8001f1a <__aeabi_dmul+0x2fe>
 8001f18:	e0c1      	b.n	800209e <__aeabi_dmul+0x482>
 8001f1a:	2101      	movs	r1, #1
 8001f1c:	086a      	lsrs	r2, r5, #1
 8001f1e:	400d      	ands	r5, r1
 8001f20:	4315      	orrs	r5, r2
 8001f22:	07e2      	lsls	r2, r4, #31
 8001f24:	4315      	orrs	r5, r2
 8001f26:	0864      	lsrs	r4, r4, #1
 8001f28:	4926      	ldr	r1, [pc, #152]	; (8001fc4 <__aeabi_dmul+0x3a8>)
 8001f2a:	4461      	add	r1, ip
 8001f2c:	2900      	cmp	r1, #0
 8001f2e:	dd56      	ble.n	8001fde <__aeabi_dmul+0x3c2>
 8001f30:	076b      	lsls	r3, r5, #29
 8001f32:	d009      	beq.n	8001f48 <__aeabi_dmul+0x32c>
 8001f34:	220f      	movs	r2, #15
 8001f36:	402a      	ands	r2, r5
 8001f38:	2a04      	cmp	r2, #4
 8001f3a:	d005      	beq.n	8001f48 <__aeabi_dmul+0x32c>
 8001f3c:	1d2a      	adds	r2, r5, #4
 8001f3e:	42aa      	cmp	r2, r5
 8001f40:	41ad      	sbcs	r5, r5
 8001f42:	426d      	negs	r5, r5
 8001f44:	1964      	adds	r4, r4, r5
 8001f46:	0015      	movs	r5, r2
 8001f48:	01e3      	lsls	r3, r4, #7
 8001f4a:	d504      	bpl.n	8001f56 <__aeabi_dmul+0x33a>
 8001f4c:	2180      	movs	r1, #128	; 0x80
 8001f4e:	4a1e      	ldr	r2, [pc, #120]	; (8001fc8 <__aeabi_dmul+0x3ac>)
 8001f50:	00c9      	lsls	r1, r1, #3
 8001f52:	4014      	ands	r4, r2
 8001f54:	4461      	add	r1, ip
 8001f56:	4a1d      	ldr	r2, [pc, #116]	; (8001fcc <__aeabi_dmul+0x3b0>)
 8001f58:	4291      	cmp	r1, r2
 8001f5a:	dd00      	ble.n	8001f5e <__aeabi_dmul+0x342>
 8001f5c:	e724      	b.n	8001da8 <__aeabi_dmul+0x18c>
 8001f5e:	0762      	lsls	r2, r4, #29
 8001f60:	08ed      	lsrs	r5, r5, #3
 8001f62:	0264      	lsls	r4, r4, #9
 8001f64:	0549      	lsls	r1, r1, #21
 8001f66:	4315      	orrs	r5, r2
 8001f68:	0b24      	lsrs	r4, r4, #12
 8001f6a:	0d4a      	lsrs	r2, r1, #21
 8001f6c:	e6c6      	b.n	8001cfc <__aeabi_dmul+0xe0>
 8001f6e:	9701      	str	r7, [sp, #4]
 8001f70:	e6b8      	b.n	8001ce4 <__aeabi_dmul+0xc8>
 8001f72:	4a10      	ldr	r2, [pc, #64]	; (8001fb4 <__aeabi_dmul+0x398>)
 8001f74:	2003      	movs	r0, #3
 8001f76:	4694      	mov	ip, r2
 8001f78:	4463      	add	r3, ip
 8001f7a:	464a      	mov	r2, r9
 8001f7c:	9300      	str	r3, [sp, #0]
 8001f7e:	2303      	movs	r3, #3
 8001f80:	431a      	orrs	r2, r3
 8001f82:	4691      	mov	r9, r2
 8001f84:	4652      	mov	r2, sl
 8001f86:	e68a      	b.n	8001c9e <__aeabi_dmul+0x82>
 8001f88:	4649      	mov	r1, r9
 8001f8a:	2301      	movs	r3, #1
 8001f8c:	4319      	orrs	r1, r3
 8001f8e:	4689      	mov	r9, r1
 8001f90:	2600      	movs	r6, #0
 8001f92:	2001      	movs	r0, #1
 8001f94:	e683      	b.n	8001c9e <__aeabi_dmul+0x82>
 8001f96:	220c      	movs	r2, #12
 8001f98:	9300      	str	r3, [sp, #0]
 8001f9a:	2303      	movs	r3, #3
 8001f9c:	0005      	movs	r5, r0
 8001f9e:	4691      	mov	r9, r2
 8001fa0:	469b      	mov	fp, r3
 8001fa2:	e65e      	b.n	8001c62 <__aeabi_dmul+0x46>
 8001fa4:	2304      	movs	r3, #4
 8001fa6:	4699      	mov	r9, r3
 8001fa8:	2300      	movs	r3, #0
 8001faa:	9300      	str	r3, [sp, #0]
 8001fac:	3301      	adds	r3, #1
 8001fae:	2400      	movs	r4, #0
 8001fb0:	469b      	mov	fp, r3
 8001fb2:	e656      	b.n	8001c62 <__aeabi_dmul+0x46>
 8001fb4:	000007ff 	.word	0x000007ff
 8001fb8:	fffffc01 	.word	0xfffffc01
 8001fbc:	080062b8 	.word	0x080062b8
 8001fc0:	fffffc0d 	.word	0xfffffc0d
 8001fc4:	000003ff 	.word	0x000003ff
 8001fc8:	feffffff 	.word	0xfeffffff
 8001fcc:	000007fe 	.word	0x000007fe
 8001fd0:	2300      	movs	r3, #0
 8001fd2:	2480      	movs	r4, #128	; 0x80
 8001fd4:	2500      	movs	r5, #0
 8001fd6:	4a44      	ldr	r2, [pc, #272]	; (80020e8 <__aeabi_dmul+0x4cc>)
 8001fd8:	9301      	str	r3, [sp, #4]
 8001fda:	0324      	lsls	r4, r4, #12
 8001fdc:	e68e      	b.n	8001cfc <__aeabi_dmul+0xe0>
 8001fde:	2001      	movs	r0, #1
 8001fe0:	1a40      	subs	r0, r0, r1
 8001fe2:	2838      	cmp	r0, #56	; 0x38
 8001fe4:	dd00      	ble.n	8001fe8 <__aeabi_dmul+0x3cc>
 8001fe6:	e686      	b.n	8001cf6 <__aeabi_dmul+0xda>
 8001fe8:	281f      	cmp	r0, #31
 8001fea:	dd5b      	ble.n	80020a4 <__aeabi_dmul+0x488>
 8001fec:	221f      	movs	r2, #31
 8001fee:	0023      	movs	r3, r4
 8001ff0:	4252      	negs	r2, r2
 8001ff2:	1a51      	subs	r1, r2, r1
 8001ff4:	40cb      	lsrs	r3, r1
 8001ff6:	0019      	movs	r1, r3
 8001ff8:	2820      	cmp	r0, #32
 8001ffa:	d003      	beq.n	8002004 <__aeabi_dmul+0x3e8>
 8001ffc:	4a3b      	ldr	r2, [pc, #236]	; (80020ec <__aeabi_dmul+0x4d0>)
 8001ffe:	4462      	add	r2, ip
 8002000:	4094      	lsls	r4, r2
 8002002:	4325      	orrs	r5, r4
 8002004:	1e6a      	subs	r2, r5, #1
 8002006:	4195      	sbcs	r5, r2
 8002008:	002a      	movs	r2, r5
 800200a:	430a      	orrs	r2, r1
 800200c:	2107      	movs	r1, #7
 800200e:	000d      	movs	r5, r1
 8002010:	2400      	movs	r4, #0
 8002012:	4015      	ands	r5, r2
 8002014:	4211      	tst	r1, r2
 8002016:	d05b      	beq.n	80020d0 <__aeabi_dmul+0x4b4>
 8002018:	210f      	movs	r1, #15
 800201a:	2400      	movs	r4, #0
 800201c:	4011      	ands	r1, r2
 800201e:	2904      	cmp	r1, #4
 8002020:	d053      	beq.n	80020ca <__aeabi_dmul+0x4ae>
 8002022:	1d11      	adds	r1, r2, #4
 8002024:	4291      	cmp	r1, r2
 8002026:	4192      	sbcs	r2, r2
 8002028:	4252      	negs	r2, r2
 800202a:	18a4      	adds	r4, r4, r2
 800202c:	000a      	movs	r2, r1
 800202e:	0223      	lsls	r3, r4, #8
 8002030:	d54b      	bpl.n	80020ca <__aeabi_dmul+0x4ae>
 8002032:	2201      	movs	r2, #1
 8002034:	2400      	movs	r4, #0
 8002036:	2500      	movs	r5, #0
 8002038:	e660      	b.n	8001cfc <__aeabi_dmul+0xe0>
 800203a:	2380      	movs	r3, #128	; 0x80
 800203c:	031b      	lsls	r3, r3, #12
 800203e:	421c      	tst	r4, r3
 8002040:	d009      	beq.n	8002056 <__aeabi_dmul+0x43a>
 8002042:	421e      	tst	r6, r3
 8002044:	d107      	bne.n	8002056 <__aeabi_dmul+0x43a>
 8002046:	4333      	orrs	r3, r6
 8002048:	031c      	lsls	r4, r3, #12
 800204a:	4643      	mov	r3, r8
 800204c:	0015      	movs	r5, r2
 800204e:	0b24      	lsrs	r4, r4, #12
 8002050:	4a25      	ldr	r2, [pc, #148]	; (80020e8 <__aeabi_dmul+0x4cc>)
 8002052:	9301      	str	r3, [sp, #4]
 8002054:	e652      	b.n	8001cfc <__aeabi_dmul+0xe0>
 8002056:	2280      	movs	r2, #128	; 0x80
 8002058:	0312      	lsls	r2, r2, #12
 800205a:	4314      	orrs	r4, r2
 800205c:	0324      	lsls	r4, r4, #12
 800205e:	4a22      	ldr	r2, [pc, #136]	; (80020e8 <__aeabi_dmul+0x4cc>)
 8002060:	0b24      	lsrs	r4, r4, #12
 8002062:	9701      	str	r7, [sp, #4]
 8002064:	e64a      	b.n	8001cfc <__aeabi_dmul+0xe0>
 8002066:	f000 fc9d 	bl	80029a4 <__clzsi2>
 800206a:	0003      	movs	r3, r0
 800206c:	001a      	movs	r2, r3
 800206e:	3215      	adds	r2, #21
 8002070:	3020      	adds	r0, #32
 8002072:	2a1c      	cmp	r2, #28
 8002074:	dc00      	bgt.n	8002078 <__aeabi_dmul+0x45c>
 8002076:	e684      	b.n	8001d82 <__aeabi_dmul+0x166>
 8002078:	4656      	mov	r6, sl
 800207a:	3b08      	subs	r3, #8
 800207c:	2200      	movs	r2, #0
 800207e:	409e      	lsls	r6, r3
 8002080:	e689      	b.n	8001d96 <__aeabi_dmul+0x17a>
 8002082:	f000 fc8f 	bl	80029a4 <__clzsi2>
 8002086:	0001      	movs	r1, r0
 8002088:	0002      	movs	r2, r0
 800208a:	3115      	adds	r1, #21
 800208c:	3220      	adds	r2, #32
 800208e:	291c      	cmp	r1, #28
 8002090:	dc00      	bgt.n	8002094 <__aeabi_dmul+0x478>
 8002092:	e64e      	b.n	8001d32 <__aeabi_dmul+0x116>
 8002094:	0034      	movs	r4, r6
 8002096:	3808      	subs	r0, #8
 8002098:	2500      	movs	r5, #0
 800209a:	4084      	lsls	r4, r0
 800209c:	e653      	b.n	8001d46 <__aeabi_dmul+0x12a>
 800209e:	9b00      	ldr	r3, [sp, #0]
 80020a0:	469c      	mov	ip, r3
 80020a2:	e741      	b.n	8001f28 <__aeabi_dmul+0x30c>
 80020a4:	4912      	ldr	r1, [pc, #72]	; (80020f0 <__aeabi_dmul+0x4d4>)
 80020a6:	0022      	movs	r2, r4
 80020a8:	4461      	add	r1, ip
 80020aa:	002e      	movs	r6, r5
 80020ac:	408d      	lsls	r5, r1
 80020ae:	408a      	lsls	r2, r1
 80020b0:	40c6      	lsrs	r6, r0
 80020b2:	1e69      	subs	r1, r5, #1
 80020b4:	418d      	sbcs	r5, r1
 80020b6:	4332      	orrs	r2, r6
 80020b8:	432a      	orrs	r2, r5
 80020ba:	40c4      	lsrs	r4, r0
 80020bc:	0753      	lsls	r3, r2, #29
 80020be:	d0b6      	beq.n	800202e <__aeabi_dmul+0x412>
 80020c0:	210f      	movs	r1, #15
 80020c2:	4011      	ands	r1, r2
 80020c4:	2904      	cmp	r1, #4
 80020c6:	d1ac      	bne.n	8002022 <__aeabi_dmul+0x406>
 80020c8:	e7b1      	b.n	800202e <__aeabi_dmul+0x412>
 80020ca:	0765      	lsls	r5, r4, #29
 80020cc:	0264      	lsls	r4, r4, #9
 80020ce:	0b24      	lsrs	r4, r4, #12
 80020d0:	08d2      	lsrs	r2, r2, #3
 80020d2:	4315      	orrs	r5, r2
 80020d4:	2200      	movs	r2, #0
 80020d6:	e611      	b.n	8001cfc <__aeabi_dmul+0xe0>
 80020d8:	2280      	movs	r2, #128	; 0x80
 80020da:	0312      	lsls	r2, r2, #12
 80020dc:	4314      	orrs	r4, r2
 80020de:	0324      	lsls	r4, r4, #12
 80020e0:	4a01      	ldr	r2, [pc, #4]	; (80020e8 <__aeabi_dmul+0x4cc>)
 80020e2:	0b24      	lsrs	r4, r4, #12
 80020e4:	e60a      	b.n	8001cfc <__aeabi_dmul+0xe0>
 80020e6:	46c0      	nop			; (mov r8, r8)
 80020e8:	000007ff 	.word	0x000007ff
 80020ec:	0000043e 	.word	0x0000043e
 80020f0:	0000041e 	.word	0x0000041e

080020f4 <__aeabi_dsub>:
 80020f4:	b5f8      	push	{r3, r4, r5, r6, r7, lr}
 80020f6:	4657      	mov	r7, sl
 80020f8:	464e      	mov	r6, r9
 80020fa:	4645      	mov	r5, r8
 80020fc:	46de      	mov	lr, fp
 80020fe:	0004      	movs	r4, r0
 8002100:	b5e0      	push	{r5, r6, r7, lr}
 8002102:	001f      	movs	r7, r3
 8002104:	0010      	movs	r0, r2
 8002106:	030b      	lsls	r3, r1, #12
 8002108:	0f62      	lsrs	r2, r4, #29
 800210a:	004e      	lsls	r6, r1, #1
 800210c:	0fcd      	lsrs	r5, r1, #31
 800210e:	0a5b      	lsrs	r3, r3, #9
 8002110:	0339      	lsls	r1, r7, #12
 8002112:	4313      	orrs	r3, r2
 8002114:	0a49      	lsrs	r1, r1, #9
 8002116:	00e2      	lsls	r2, r4, #3
 8002118:	0f44      	lsrs	r4, r0, #29
 800211a:	4321      	orrs	r1, r4
 800211c:	4cc2      	ldr	r4, [pc, #776]	; (8002428 <__aeabi_dsub+0x334>)
 800211e:	4691      	mov	r9, r2
 8002120:	4692      	mov	sl, r2
 8002122:	00c0      	lsls	r0, r0, #3
 8002124:	007a      	lsls	r2, r7, #1
 8002126:	4680      	mov	r8, r0
 8002128:	0d76      	lsrs	r6, r6, #21
 800212a:	0d52      	lsrs	r2, r2, #21
 800212c:	0fff      	lsrs	r7, r7, #31
 800212e:	42a2      	cmp	r2, r4
 8002130:	d100      	bne.n	8002134 <__aeabi_dsub+0x40>
 8002132:	e0b4      	b.n	800229e <__aeabi_dsub+0x1aa>
 8002134:	2401      	movs	r4, #1
 8002136:	4067      	eors	r7, r4
 8002138:	46bb      	mov	fp, r7
 800213a:	42bd      	cmp	r5, r7
 800213c:	d100      	bne.n	8002140 <__aeabi_dsub+0x4c>
 800213e:	e088      	b.n	8002252 <__aeabi_dsub+0x15e>
 8002140:	1ab4      	subs	r4, r6, r2
 8002142:	46a4      	mov	ip, r4
 8002144:	2c00      	cmp	r4, #0
 8002146:	dc00      	bgt.n	800214a <__aeabi_dsub+0x56>
 8002148:	e0b2      	b.n	80022b0 <__aeabi_dsub+0x1bc>
 800214a:	2a00      	cmp	r2, #0
 800214c:	d100      	bne.n	8002150 <__aeabi_dsub+0x5c>
 800214e:	e0c5      	b.n	80022dc <__aeabi_dsub+0x1e8>
 8002150:	4ab5      	ldr	r2, [pc, #724]	; (8002428 <__aeabi_dsub+0x334>)
 8002152:	4296      	cmp	r6, r2
 8002154:	d100      	bne.n	8002158 <__aeabi_dsub+0x64>
 8002156:	e28b      	b.n	8002670 <__aeabi_dsub+0x57c>
 8002158:	2280      	movs	r2, #128	; 0x80
 800215a:	0412      	lsls	r2, r2, #16
 800215c:	4311      	orrs	r1, r2
 800215e:	4662      	mov	r2, ip
 8002160:	2a38      	cmp	r2, #56	; 0x38
 8002162:	dd00      	ble.n	8002166 <__aeabi_dsub+0x72>
 8002164:	e1a1      	b.n	80024aa <__aeabi_dsub+0x3b6>
 8002166:	2a1f      	cmp	r2, #31
 8002168:	dd00      	ble.n	800216c <__aeabi_dsub+0x78>
 800216a:	e216      	b.n	800259a <__aeabi_dsub+0x4a6>
 800216c:	2720      	movs	r7, #32
 800216e:	000c      	movs	r4, r1
 8002170:	1abf      	subs	r7, r7, r2
 8002172:	40bc      	lsls	r4, r7
 8002174:	0002      	movs	r2, r0
 8002176:	46a0      	mov	r8, r4
 8002178:	4664      	mov	r4, ip
 800217a:	40b8      	lsls	r0, r7
 800217c:	40e2      	lsrs	r2, r4
 800217e:	4644      	mov	r4, r8
 8002180:	4314      	orrs	r4, r2
 8002182:	0002      	movs	r2, r0
 8002184:	1e50      	subs	r0, r2, #1
 8002186:	4182      	sbcs	r2, r0
 8002188:	4660      	mov	r0, ip
 800218a:	40c1      	lsrs	r1, r0
 800218c:	4322      	orrs	r2, r4
 800218e:	1a5b      	subs	r3, r3, r1
 8002190:	4649      	mov	r1, r9
 8002192:	1a8c      	subs	r4, r1, r2
 8002194:	45a1      	cmp	r9, r4
 8002196:	4192      	sbcs	r2, r2
 8002198:	4252      	negs	r2, r2
 800219a:	1a9b      	subs	r3, r3, r2
 800219c:	4698      	mov	r8, r3
 800219e:	4643      	mov	r3, r8
 80021a0:	021b      	lsls	r3, r3, #8
 80021a2:	d400      	bmi.n	80021a6 <__aeabi_dsub+0xb2>
 80021a4:	e117      	b.n	80023d6 <__aeabi_dsub+0x2e2>
 80021a6:	4643      	mov	r3, r8
 80021a8:	025b      	lsls	r3, r3, #9
 80021aa:	0a5b      	lsrs	r3, r3, #9
 80021ac:	4698      	mov	r8, r3
 80021ae:	4643      	mov	r3, r8
 80021b0:	2b00      	cmp	r3, #0
 80021b2:	d100      	bne.n	80021b6 <__aeabi_dsub+0xc2>
 80021b4:	e16c      	b.n	8002490 <__aeabi_dsub+0x39c>
 80021b6:	4640      	mov	r0, r8
 80021b8:	f000 fbf4 	bl	80029a4 <__clzsi2>
 80021bc:	0002      	movs	r2, r0
 80021be:	3a08      	subs	r2, #8
 80021c0:	2120      	movs	r1, #32
 80021c2:	0020      	movs	r0, r4
 80021c4:	4643      	mov	r3, r8
 80021c6:	1a89      	subs	r1, r1, r2
 80021c8:	4093      	lsls	r3, r2
 80021ca:	40c8      	lsrs	r0, r1
 80021cc:	4094      	lsls	r4, r2
 80021ce:	4303      	orrs	r3, r0
 80021d0:	4296      	cmp	r6, r2
 80021d2:	dd00      	ble.n	80021d6 <__aeabi_dsub+0xe2>
 80021d4:	e157      	b.n	8002486 <__aeabi_dsub+0x392>
 80021d6:	1b96      	subs	r6, r2, r6
 80021d8:	1c71      	adds	r1, r6, #1
 80021da:	291f      	cmp	r1, #31
 80021dc:	dd00      	ble.n	80021e0 <__aeabi_dsub+0xec>
 80021de:	e1cb      	b.n	8002578 <__aeabi_dsub+0x484>
 80021e0:	2220      	movs	r2, #32
 80021e2:	0018      	movs	r0, r3
 80021e4:	0026      	movs	r6, r4
 80021e6:	1a52      	subs	r2, r2, r1
 80021e8:	4094      	lsls	r4, r2
 80021ea:	4090      	lsls	r0, r2
 80021ec:	40ce      	lsrs	r6, r1
 80021ee:	40cb      	lsrs	r3, r1
 80021f0:	1e62      	subs	r2, r4, #1
 80021f2:	4194      	sbcs	r4, r2
 80021f4:	4330      	orrs	r0, r6
 80021f6:	4698      	mov	r8, r3
 80021f8:	2600      	movs	r6, #0
 80021fa:	4304      	orrs	r4, r0
 80021fc:	0763      	lsls	r3, r4, #29
 80021fe:	d009      	beq.n	8002214 <__aeabi_dsub+0x120>
 8002200:	230f      	movs	r3, #15
 8002202:	4023      	ands	r3, r4
 8002204:	2b04      	cmp	r3, #4
 8002206:	d005      	beq.n	8002214 <__aeabi_dsub+0x120>
 8002208:	1d23      	adds	r3, r4, #4
 800220a:	42a3      	cmp	r3, r4
 800220c:	41a4      	sbcs	r4, r4
 800220e:	4264      	negs	r4, r4
 8002210:	44a0      	add	r8, r4
 8002212:	001c      	movs	r4, r3
 8002214:	4643      	mov	r3, r8
 8002216:	021b      	lsls	r3, r3, #8
 8002218:	d400      	bmi.n	800221c <__aeabi_dsub+0x128>
 800221a:	e0df      	b.n	80023dc <__aeabi_dsub+0x2e8>
 800221c:	4b82      	ldr	r3, [pc, #520]	; (8002428 <__aeabi_dsub+0x334>)
 800221e:	3601      	adds	r6, #1
 8002220:	429e      	cmp	r6, r3
 8002222:	d100      	bne.n	8002226 <__aeabi_dsub+0x132>
 8002224:	e0fb      	b.n	800241e <__aeabi_dsub+0x32a>
 8002226:	4642      	mov	r2, r8
 8002228:	4b80      	ldr	r3, [pc, #512]	; (800242c <__aeabi_dsub+0x338>)
 800222a:	08e4      	lsrs	r4, r4, #3
 800222c:	401a      	ands	r2, r3
 800222e:	0013      	movs	r3, r2
 8002230:	0571      	lsls	r1, r6, #21
 8002232:	0752      	lsls	r2, r2, #29
 8002234:	025b      	lsls	r3, r3, #9
 8002236:	4322      	orrs	r2, r4
 8002238:	0b1b      	lsrs	r3, r3, #12
 800223a:	0d49      	lsrs	r1, r1, #21
 800223c:	0509      	lsls	r1, r1, #20
 800223e:	07ed      	lsls	r5, r5, #31
 8002240:	4319      	orrs	r1, r3
 8002242:	4329      	orrs	r1, r5
 8002244:	0010      	movs	r0, r2
 8002246:	bcf0      	pop	{r4, r5, r6, r7}
 8002248:	46bb      	mov	fp, r7
 800224a:	46b2      	mov	sl, r6
 800224c:	46a9      	mov	r9, r5
 800224e:	46a0      	mov	r8, r4
 8002250:	bdf8      	pop	{r3, r4, r5, r6, r7, pc}
 8002252:	1ab4      	subs	r4, r6, r2
 8002254:	46a4      	mov	ip, r4
 8002256:	2c00      	cmp	r4, #0
 8002258:	dd58      	ble.n	800230c <__aeabi_dsub+0x218>
 800225a:	2a00      	cmp	r2, #0
 800225c:	d100      	bne.n	8002260 <__aeabi_dsub+0x16c>
 800225e:	e09e      	b.n	800239e <__aeabi_dsub+0x2aa>
 8002260:	4a71      	ldr	r2, [pc, #452]	; (8002428 <__aeabi_dsub+0x334>)
 8002262:	4296      	cmp	r6, r2
 8002264:	d100      	bne.n	8002268 <__aeabi_dsub+0x174>
 8002266:	e13b      	b.n	80024e0 <__aeabi_dsub+0x3ec>
 8002268:	2280      	movs	r2, #128	; 0x80
 800226a:	0412      	lsls	r2, r2, #16
 800226c:	4311      	orrs	r1, r2
 800226e:	4662      	mov	r2, ip
 8002270:	2a38      	cmp	r2, #56	; 0x38
 8002272:	dd00      	ble.n	8002276 <__aeabi_dsub+0x182>
 8002274:	e0c1      	b.n	80023fa <__aeabi_dsub+0x306>
 8002276:	2a1f      	cmp	r2, #31
 8002278:	dc00      	bgt.n	800227c <__aeabi_dsub+0x188>
 800227a:	e1bb      	b.n	80025f4 <__aeabi_dsub+0x500>
 800227c:	000c      	movs	r4, r1
 800227e:	3a20      	subs	r2, #32
 8002280:	40d4      	lsrs	r4, r2
 8002282:	0022      	movs	r2, r4
 8002284:	4664      	mov	r4, ip
 8002286:	2c20      	cmp	r4, #32
 8002288:	d004      	beq.n	8002294 <__aeabi_dsub+0x1a0>
 800228a:	2740      	movs	r7, #64	; 0x40
 800228c:	1b3f      	subs	r7, r7, r4
 800228e:	40b9      	lsls	r1, r7
 8002290:	4308      	orrs	r0, r1
 8002292:	4680      	mov	r8, r0
 8002294:	4644      	mov	r4, r8
 8002296:	1e61      	subs	r1, r4, #1
 8002298:	418c      	sbcs	r4, r1
 800229a:	4314      	orrs	r4, r2
 800229c:	e0b1      	b.n	8002402 <__aeabi_dsub+0x30e>
 800229e:	000c      	movs	r4, r1
 80022a0:	4304      	orrs	r4, r0
 80022a2:	d02a      	beq.n	80022fa <__aeabi_dsub+0x206>
 80022a4:	46bb      	mov	fp, r7
 80022a6:	42bd      	cmp	r5, r7
 80022a8:	d02d      	beq.n	8002306 <__aeabi_dsub+0x212>
 80022aa:	4c61      	ldr	r4, [pc, #388]	; (8002430 <__aeabi_dsub+0x33c>)
 80022ac:	46a4      	mov	ip, r4
 80022ae:	44b4      	add	ip, r6
 80022b0:	4664      	mov	r4, ip
 80022b2:	2c00      	cmp	r4, #0
 80022b4:	d05c      	beq.n	8002370 <__aeabi_dsub+0x27c>
 80022b6:	1b94      	subs	r4, r2, r6
 80022b8:	46a4      	mov	ip, r4
 80022ba:	2e00      	cmp	r6, #0
 80022bc:	d000      	beq.n	80022c0 <__aeabi_dsub+0x1cc>
 80022be:	e115      	b.n	80024ec <__aeabi_dsub+0x3f8>
 80022c0:	464d      	mov	r5, r9
 80022c2:	431d      	orrs	r5, r3
 80022c4:	d100      	bne.n	80022c8 <__aeabi_dsub+0x1d4>
 80022c6:	e1c3      	b.n	8002650 <__aeabi_dsub+0x55c>
 80022c8:	1e65      	subs	r5, r4, #1
 80022ca:	2c01      	cmp	r4, #1
 80022cc:	d100      	bne.n	80022d0 <__aeabi_dsub+0x1dc>
 80022ce:	e20c      	b.n	80026ea <__aeabi_dsub+0x5f6>
 80022d0:	4e55      	ldr	r6, [pc, #340]	; (8002428 <__aeabi_dsub+0x334>)
 80022d2:	42b4      	cmp	r4, r6
 80022d4:	d100      	bne.n	80022d8 <__aeabi_dsub+0x1e4>
 80022d6:	e1f8      	b.n	80026ca <__aeabi_dsub+0x5d6>
 80022d8:	46ac      	mov	ip, r5
 80022da:	e10e      	b.n	80024fa <__aeabi_dsub+0x406>
 80022dc:	000a      	movs	r2, r1
 80022de:	4302      	orrs	r2, r0
 80022e0:	d100      	bne.n	80022e4 <__aeabi_dsub+0x1f0>
 80022e2:	e136      	b.n	8002552 <__aeabi_dsub+0x45e>
 80022e4:	0022      	movs	r2, r4
 80022e6:	3a01      	subs	r2, #1
 80022e8:	2c01      	cmp	r4, #1
 80022ea:	d100      	bne.n	80022ee <__aeabi_dsub+0x1fa>
 80022ec:	e1c6      	b.n	800267c <__aeabi_dsub+0x588>
 80022ee:	4c4e      	ldr	r4, [pc, #312]	; (8002428 <__aeabi_dsub+0x334>)
 80022f0:	45a4      	cmp	ip, r4
 80022f2:	d100      	bne.n	80022f6 <__aeabi_dsub+0x202>
 80022f4:	e0f4      	b.n	80024e0 <__aeabi_dsub+0x3ec>
 80022f6:	4694      	mov	ip, r2
 80022f8:	e731      	b.n	800215e <__aeabi_dsub+0x6a>
 80022fa:	2401      	movs	r4, #1
 80022fc:	4067      	eors	r7, r4
 80022fe:	46bb      	mov	fp, r7
 8002300:	42bd      	cmp	r5, r7
 8002302:	d000      	beq.n	8002306 <__aeabi_dsub+0x212>
 8002304:	e71c      	b.n	8002140 <__aeabi_dsub+0x4c>
 8002306:	4c4a      	ldr	r4, [pc, #296]	; (8002430 <__aeabi_dsub+0x33c>)
 8002308:	46a4      	mov	ip, r4
 800230a:	44b4      	add	ip, r6
 800230c:	4664      	mov	r4, ip
 800230e:	2c00      	cmp	r4, #0
 8002310:	d100      	bne.n	8002314 <__aeabi_dsub+0x220>
 8002312:	e0cf      	b.n	80024b4 <__aeabi_dsub+0x3c0>
 8002314:	1b94      	subs	r4, r2, r6
 8002316:	46a4      	mov	ip, r4
 8002318:	2e00      	cmp	r6, #0
 800231a:	d100      	bne.n	800231e <__aeabi_dsub+0x22a>
 800231c:	e15c      	b.n	80025d8 <__aeabi_dsub+0x4e4>
 800231e:	4e42      	ldr	r6, [pc, #264]	; (8002428 <__aeabi_dsub+0x334>)
 8002320:	42b2      	cmp	r2, r6
 8002322:	d100      	bne.n	8002326 <__aeabi_dsub+0x232>
 8002324:	e1ec      	b.n	8002700 <__aeabi_dsub+0x60c>
 8002326:	2680      	movs	r6, #128	; 0x80
 8002328:	0436      	lsls	r6, r6, #16
 800232a:	4333      	orrs	r3, r6
 800232c:	4664      	mov	r4, ip
 800232e:	2c38      	cmp	r4, #56	; 0x38
 8002330:	dd00      	ble.n	8002334 <__aeabi_dsub+0x240>
 8002332:	e1b3      	b.n	800269c <__aeabi_dsub+0x5a8>
 8002334:	2c1f      	cmp	r4, #31
 8002336:	dd00      	ble.n	800233a <__aeabi_dsub+0x246>
 8002338:	e238      	b.n	80027ac <__aeabi_dsub+0x6b8>
 800233a:	2620      	movs	r6, #32
 800233c:	1b36      	subs	r6, r6, r4
 800233e:	001c      	movs	r4, r3
 8002340:	40b4      	lsls	r4, r6
 8002342:	464f      	mov	r7, r9
 8002344:	46a0      	mov	r8, r4
 8002346:	4664      	mov	r4, ip
 8002348:	40e7      	lsrs	r7, r4
 800234a:	4644      	mov	r4, r8
 800234c:	433c      	orrs	r4, r7
 800234e:	464f      	mov	r7, r9
 8002350:	40b7      	lsls	r7, r6
 8002352:	003e      	movs	r6, r7
 8002354:	1e77      	subs	r7, r6, #1
 8002356:	41be      	sbcs	r6, r7
 8002358:	4334      	orrs	r4, r6
 800235a:	4666      	mov	r6, ip
 800235c:	40f3      	lsrs	r3, r6
 800235e:	18c9      	adds	r1, r1, r3
 8002360:	1824      	adds	r4, r4, r0
 8002362:	4284      	cmp	r4, r0
 8002364:	419b      	sbcs	r3, r3
 8002366:	425b      	negs	r3, r3
 8002368:	4698      	mov	r8, r3
 800236a:	0016      	movs	r6, r2
 800236c:	4488      	add	r8, r1
 800236e:	e04e      	b.n	800240e <__aeabi_dsub+0x31a>
 8002370:	4a30      	ldr	r2, [pc, #192]	; (8002434 <__aeabi_dsub+0x340>)
 8002372:	1c74      	adds	r4, r6, #1
 8002374:	4214      	tst	r4, r2
 8002376:	d000      	beq.n	800237a <__aeabi_dsub+0x286>
 8002378:	e0d6      	b.n	8002528 <__aeabi_dsub+0x434>
 800237a:	464a      	mov	r2, r9
 800237c:	431a      	orrs	r2, r3
 800237e:	2e00      	cmp	r6, #0
 8002380:	d000      	beq.n	8002384 <__aeabi_dsub+0x290>
 8002382:	e15b      	b.n	800263c <__aeabi_dsub+0x548>
 8002384:	2a00      	cmp	r2, #0
 8002386:	d100      	bne.n	800238a <__aeabi_dsub+0x296>
 8002388:	e1a5      	b.n	80026d6 <__aeabi_dsub+0x5e2>
 800238a:	000a      	movs	r2, r1
 800238c:	4302      	orrs	r2, r0
 800238e:	d000      	beq.n	8002392 <__aeabi_dsub+0x29e>
 8002390:	e1bb      	b.n	800270a <__aeabi_dsub+0x616>
 8002392:	464a      	mov	r2, r9
 8002394:	0759      	lsls	r1, r3, #29
 8002396:	08d2      	lsrs	r2, r2, #3
 8002398:	430a      	orrs	r2, r1
 800239a:	08db      	lsrs	r3, r3, #3
 800239c:	e027      	b.n	80023ee <__aeabi_dsub+0x2fa>
 800239e:	000a      	movs	r2, r1
 80023a0:	4302      	orrs	r2, r0
 80023a2:	d100      	bne.n	80023a6 <__aeabi_dsub+0x2b2>
 80023a4:	e174      	b.n	8002690 <__aeabi_dsub+0x59c>
 80023a6:	0022      	movs	r2, r4
 80023a8:	3a01      	subs	r2, #1
 80023aa:	2c01      	cmp	r4, #1
 80023ac:	d005      	beq.n	80023ba <__aeabi_dsub+0x2c6>
 80023ae:	4c1e      	ldr	r4, [pc, #120]	; (8002428 <__aeabi_dsub+0x334>)
 80023b0:	45a4      	cmp	ip, r4
 80023b2:	d100      	bne.n	80023b6 <__aeabi_dsub+0x2c2>
 80023b4:	e094      	b.n	80024e0 <__aeabi_dsub+0x3ec>
 80023b6:	4694      	mov	ip, r2
 80023b8:	e759      	b.n	800226e <__aeabi_dsub+0x17a>
 80023ba:	4448      	add	r0, r9
 80023bc:	4548      	cmp	r0, r9
 80023be:	4192      	sbcs	r2, r2
 80023c0:	185b      	adds	r3, r3, r1
 80023c2:	4698      	mov	r8, r3
 80023c4:	0004      	movs	r4, r0
 80023c6:	4252      	negs	r2, r2
 80023c8:	4490      	add	r8, r2
 80023ca:	4643      	mov	r3, r8
 80023cc:	2602      	movs	r6, #2
 80023ce:	021b      	lsls	r3, r3, #8
 80023d0:	d500      	bpl.n	80023d4 <__aeabi_dsub+0x2e0>
 80023d2:	e0c4      	b.n	800255e <__aeabi_dsub+0x46a>
 80023d4:	3e01      	subs	r6, #1
 80023d6:	0763      	lsls	r3, r4, #29
 80023d8:	d000      	beq.n	80023dc <__aeabi_dsub+0x2e8>
 80023da:	e711      	b.n	8002200 <__aeabi_dsub+0x10c>
 80023dc:	4643      	mov	r3, r8
 80023de:	46b4      	mov	ip, r6
 80023e0:	0759      	lsls	r1, r3, #29
 80023e2:	08e2      	lsrs	r2, r4, #3
 80023e4:	430a      	orrs	r2, r1
 80023e6:	08db      	lsrs	r3, r3, #3
 80023e8:	490f      	ldr	r1, [pc, #60]	; (8002428 <__aeabi_dsub+0x334>)
 80023ea:	458c      	cmp	ip, r1
 80023ec:	d040      	beq.n	8002470 <__aeabi_dsub+0x37c>
 80023ee:	4661      	mov	r1, ip
 80023f0:	031b      	lsls	r3, r3, #12
 80023f2:	0549      	lsls	r1, r1, #21
 80023f4:	0b1b      	lsrs	r3, r3, #12
 80023f6:	0d49      	lsrs	r1, r1, #21
 80023f8:	e720      	b.n	800223c <__aeabi_dsub+0x148>
 80023fa:	4301      	orrs	r1, r0
 80023fc:	000c      	movs	r4, r1
 80023fe:	1e61      	subs	r1, r4, #1
 8002400:	418c      	sbcs	r4, r1
 8002402:	444c      	add	r4, r9
 8002404:	454c      	cmp	r4, r9
 8002406:	4192      	sbcs	r2, r2
 8002408:	4252      	negs	r2, r2
 800240a:	4690      	mov	r8, r2
 800240c:	4498      	add	r8, r3
 800240e:	4643      	mov	r3, r8
 8002410:	021b      	lsls	r3, r3, #8
 8002412:	d5e0      	bpl.n	80023d6 <__aeabi_dsub+0x2e2>
 8002414:	4b04      	ldr	r3, [pc, #16]	; (8002428 <__aeabi_dsub+0x334>)
 8002416:	3601      	adds	r6, #1
 8002418:	429e      	cmp	r6, r3
 800241a:	d000      	beq.n	800241e <__aeabi_dsub+0x32a>
 800241c:	e09f      	b.n	800255e <__aeabi_dsub+0x46a>
 800241e:	0031      	movs	r1, r6
 8002420:	2300      	movs	r3, #0
 8002422:	2200      	movs	r2, #0
 8002424:	e70a      	b.n	800223c <__aeabi_dsub+0x148>
 8002426:	46c0      	nop			; (mov r8, r8)
 8002428:	000007ff 	.word	0x000007ff
 800242c:	ff7fffff 	.word	0xff7fffff
 8002430:	fffff801 	.word	0xfffff801
 8002434:	000007fe 	.word	0x000007fe
 8002438:	2a00      	cmp	r2, #0
 800243a:	d100      	bne.n	800243e <__aeabi_dsub+0x34a>
 800243c:	e160      	b.n	8002700 <__aeabi_dsub+0x60c>
 800243e:	000a      	movs	r2, r1
 8002440:	4302      	orrs	r2, r0
 8002442:	d04d      	beq.n	80024e0 <__aeabi_dsub+0x3ec>
 8002444:	464a      	mov	r2, r9
 8002446:	075c      	lsls	r4, r3, #29
 8002448:	08d2      	lsrs	r2, r2, #3
 800244a:	4322      	orrs	r2, r4
 800244c:	2480      	movs	r4, #128	; 0x80
 800244e:	08db      	lsrs	r3, r3, #3
 8002450:	0324      	lsls	r4, r4, #12
 8002452:	4223      	tst	r3, r4
 8002454:	d007      	beq.n	8002466 <__aeabi_dsub+0x372>
 8002456:	08ce      	lsrs	r6, r1, #3
 8002458:	4226      	tst	r6, r4
 800245a:	d104      	bne.n	8002466 <__aeabi_dsub+0x372>
 800245c:	465d      	mov	r5, fp
 800245e:	0033      	movs	r3, r6
 8002460:	08c2      	lsrs	r2, r0, #3
 8002462:	0749      	lsls	r1, r1, #29
 8002464:	430a      	orrs	r2, r1
 8002466:	0f51      	lsrs	r1, r2, #29
 8002468:	00d2      	lsls	r2, r2, #3
 800246a:	08d2      	lsrs	r2, r2, #3
 800246c:	0749      	lsls	r1, r1, #29
 800246e:	430a      	orrs	r2, r1
 8002470:	0011      	movs	r1, r2
 8002472:	4319      	orrs	r1, r3
 8002474:	d100      	bne.n	8002478 <__aeabi_dsub+0x384>
 8002476:	e1c8      	b.n	800280a <__aeabi_dsub+0x716>
 8002478:	2180      	movs	r1, #128	; 0x80
 800247a:	0309      	lsls	r1, r1, #12
 800247c:	430b      	orrs	r3, r1
 800247e:	031b      	lsls	r3, r3, #12
 8002480:	49d5      	ldr	r1, [pc, #852]	; (80027d8 <__aeabi_dsub+0x6e4>)
 8002482:	0b1b      	lsrs	r3, r3, #12
 8002484:	e6da      	b.n	800223c <__aeabi_dsub+0x148>
 8002486:	49d5      	ldr	r1, [pc, #852]	; (80027dc <__aeabi_dsub+0x6e8>)
 8002488:	1ab6      	subs	r6, r6, r2
 800248a:	400b      	ands	r3, r1
 800248c:	4698      	mov	r8, r3
 800248e:	e6b5      	b.n	80021fc <__aeabi_dsub+0x108>
 8002490:	0020      	movs	r0, r4
 8002492:	f000 fa87 	bl	80029a4 <__clzsi2>
 8002496:	0002      	movs	r2, r0
 8002498:	3218      	adds	r2, #24
 800249a:	2a1f      	cmp	r2, #31
 800249c:	dc00      	bgt.n	80024a0 <__aeabi_dsub+0x3ac>
 800249e:	e68f      	b.n	80021c0 <__aeabi_dsub+0xcc>
 80024a0:	0023      	movs	r3, r4
 80024a2:	3808      	subs	r0, #8
 80024a4:	4083      	lsls	r3, r0
 80024a6:	2400      	movs	r4, #0
 80024a8:	e692      	b.n	80021d0 <__aeabi_dsub+0xdc>
 80024aa:	4308      	orrs	r0, r1
 80024ac:	0002      	movs	r2, r0
 80024ae:	1e50      	subs	r0, r2, #1
 80024b0:	4182      	sbcs	r2, r0
 80024b2:	e66d      	b.n	8002190 <__aeabi_dsub+0x9c>
 80024b4:	4cca      	ldr	r4, [pc, #808]	; (80027e0 <__aeabi_dsub+0x6ec>)
 80024b6:	1c72      	adds	r2, r6, #1
 80024b8:	4222      	tst	r2, r4
 80024ba:	d000      	beq.n	80024be <__aeabi_dsub+0x3ca>
 80024bc:	e0ad      	b.n	800261a <__aeabi_dsub+0x526>
 80024be:	464a      	mov	r2, r9
 80024c0:	431a      	orrs	r2, r3
 80024c2:	2e00      	cmp	r6, #0
 80024c4:	d1b8      	bne.n	8002438 <__aeabi_dsub+0x344>
 80024c6:	2a00      	cmp	r2, #0
 80024c8:	d100      	bne.n	80024cc <__aeabi_dsub+0x3d8>
 80024ca:	e158      	b.n	800277e <__aeabi_dsub+0x68a>
 80024cc:	000a      	movs	r2, r1
 80024ce:	4302      	orrs	r2, r0
 80024d0:	d000      	beq.n	80024d4 <__aeabi_dsub+0x3e0>
 80024d2:	e159      	b.n	8002788 <__aeabi_dsub+0x694>
 80024d4:	464a      	mov	r2, r9
 80024d6:	0759      	lsls	r1, r3, #29
 80024d8:	08d2      	lsrs	r2, r2, #3
 80024da:	430a      	orrs	r2, r1
 80024dc:	08db      	lsrs	r3, r3, #3
 80024de:	e786      	b.n	80023ee <__aeabi_dsub+0x2fa>
 80024e0:	464a      	mov	r2, r9
 80024e2:	0759      	lsls	r1, r3, #29
 80024e4:	08d2      	lsrs	r2, r2, #3
 80024e6:	430a      	orrs	r2, r1
 80024e8:	08db      	lsrs	r3, r3, #3
 80024ea:	e7c1      	b.n	8002470 <__aeabi_dsub+0x37c>
 80024ec:	4dba      	ldr	r5, [pc, #744]	; (80027d8 <__aeabi_dsub+0x6e4>)
 80024ee:	42aa      	cmp	r2, r5
 80024f0:	d100      	bne.n	80024f4 <__aeabi_dsub+0x400>
 80024f2:	e11e      	b.n	8002732 <__aeabi_dsub+0x63e>
 80024f4:	2580      	movs	r5, #128	; 0x80
 80024f6:	042d      	lsls	r5, r5, #16
 80024f8:	432b      	orrs	r3, r5
 80024fa:	4664      	mov	r4, ip
 80024fc:	2c38      	cmp	r4, #56	; 0x38
 80024fe:	dc5d      	bgt.n	80025bc <__aeabi_dsub+0x4c8>
 8002500:	2c1f      	cmp	r4, #31
 8002502:	dd00      	ble.n	8002506 <__aeabi_dsub+0x412>
 8002504:	e0d0      	b.n	80026a8 <__aeabi_dsub+0x5b4>
 8002506:	2520      	movs	r5, #32
 8002508:	4667      	mov	r7, ip
 800250a:	1b2d      	subs	r5, r5, r4
 800250c:	464e      	mov	r6, r9
 800250e:	001c      	movs	r4, r3
 8002510:	40fe      	lsrs	r6, r7
 8002512:	40ac      	lsls	r4, r5
 8002514:	4334      	orrs	r4, r6
 8002516:	464e      	mov	r6, r9
 8002518:	40ae      	lsls	r6, r5
 800251a:	0035      	movs	r5, r6
 800251c:	40fb      	lsrs	r3, r7
 800251e:	1e6e      	subs	r6, r5, #1
 8002520:	41b5      	sbcs	r5, r6
 8002522:	1ac9      	subs	r1, r1, r3
 8002524:	432c      	orrs	r4, r5
 8002526:	e04e      	b.n	80025c6 <__aeabi_dsub+0x4d2>
 8002528:	464a      	mov	r2, r9
 800252a:	1a14      	subs	r4, r2, r0
 800252c:	45a1      	cmp	r9, r4
 800252e:	4192      	sbcs	r2, r2
 8002530:	4252      	negs	r2, r2
 8002532:	4690      	mov	r8, r2
 8002534:	1a5f      	subs	r7, r3, r1
 8002536:	003a      	movs	r2, r7
 8002538:	4647      	mov	r7, r8
 800253a:	1bd2      	subs	r2, r2, r7
 800253c:	4690      	mov	r8, r2
 800253e:	0212      	lsls	r2, r2, #8
 8002540:	d500      	bpl.n	8002544 <__aeabi_dsub+0x450>
 8002542:	e08b      	b.n	800265c <__aeabi_dsub+0x568>
 8002544:	4642      	mov	r2, r8
 8002546:	4322      	orrs	r2, r4
 8002548:	d000      	beq.n	800254c <__aeabi_dsub+0x458>
 800254a:	e630      	b.n	80021ae <__aeabi_dsub+0xba>
 800254c:	2300      	movs	r3, #0
 800254e:	2500      	movs	r5, #0
 8002550:	e74d      	b.n	80023ee <__aeabi_dsub+0x2fa>
 8002552:	464a      	mov	r2, r9
 8002554:	0759      	lsls	r1, r3, #29
 8002556:	08d2      	lsrs	r2, r2, #3
 8002558:	430a      	orrs	r2, r1
 800255a:	08db      	lsrs	r3, r3, #3
 800255c:	e744      	b.n	80023e8 <__aeabi_dsub+0x2f4>
 800255e:	4642      	mov	r2, r8
 8002560:	4b9e      	ldr	r3, [pc, #632]	; (80027dc <__aeabi_dsub+0x6e8>)
 8002562:	0861      	lsrs	r1, r4, #1
 8002564:	401a      	ands	r2, r3
 8002566:	0013      	movs	r3, r2
 8002568:	2201      	movs	r2, #1
 800256a:	4014      	ands	r4, r2
 800256c:	430c      	orrs	r4, r1
 800256e:	07da      	lsls	r2, r3, #31
 8002570:	085b      	lsrs	r3, r3, #1
 8002572:	4698      	mov	r8, r3
 8002574:	4314      	orrs	r4, r2
 8002576:	e641      	b.n	80021fc <__aeabi_dsub+0x108>
 8002578:	001a      	movs	r2, r3
 800257a:	3e1f      	subs	r6, #31
 800257c:	40f2      	lsrs	r2, r6
 800257e:	0016      	movs	r6, r2
 8002580:	2920      	cmp	r1, #32
 8002582:	d003      	beq.n	800258c <__aeabi_dsub+0x498>
 8002584:	2240      	movs	r2, #64	; 0x40
 8002586:	1a51      	subs	r1, r2, r1
 8002588:	408b      	lsls	r3, r1
 800258a:	431c      	orrs	r4, r3
 800258c:	1e62      	subs	r2, r4, #1
 800258e:	4194      	sbcs	r4, r2
 8002590:	2300      	movs	r3, #0
 8002592:	4334      	orrs	r4, r6
 8002594:	4698      	mov	r8, r3
 8002596:	2600      	movs	r6, #0
 8002598:	e71d      	b.n	80023d6 <__aeabi_dsub+0x2e2>
 800259a:	000c      	movs	r4, r1
 800259c:	3a20      	subs	r2, #32
 800259e:	40d4      	lsrs	r4, r2
 80025a0:	0022      	movs	r2, r4
 80025a2:	4664      	mov	r4, ip
 80025a4:	2c20      	cmp	r4, #32
 80025a6:	d004      	beq.n	80025b2 <__aeabi_dsub+0x4be>
 80025a8:	2740      	movs	r7, #64	; 0x40
 80025aa:	1b3f      	subs	r7, r7, r4
 80025ac:	40b9      	lsls	r1, r7
 80025ae:	4308      	orrs	r0, r1
 80025b0:	4680      	mov	r8, r0
 80025b2:	4644      	mov	r4, r8
 80025b4:	1e61      	subs	r1, r4, #1
 80025b6:	418c      	sbcs	r4, r1
 80025b8:	4322      	orrs	r2, r4
 80025ba:	e5e9      	b.n	8002190 <__aeabi_dsub+0x9c>
 80025bc:	464c      	mov	r4, r9
 80025be:	4323      	orrs	r3, r4
 80025c0:	001c      	movs	r4, r3
 80025c2:	1e63      	subs	r3, r4, #1
 80025c4:	419c      	sbcs	r4, r3
 80025c6:	1b04      	subs	r4, r0, r4
 80025c8:	42a0      	cmp	r0, r4
 80025ca:	419b      	sbcs	r3, r3
 80025cc:	425b      	negs	r3, r3
 80025ce:	1acb      	subs	r3, r1, r3
 80025d0:	4698      	mov	r8, r3
 80025d2:	465d      	mov	r5, fp
 80025d4:	0016      	movs	r6, r2
 80025d6:	e5e2      	b.n	800219e <__aeabi_dsub+0xaa>
 80025d8:	464e      	mov	r6, r9
 80025da:	431e      	orrs	r6, r3
 80025dc:	d100      	bne.n	80025e0 <__aeabi_dsub+0x4ec>
 80025de:	e0ae      	b.n	800273e <__aeabi_dsub+0x64a>
 80025e0:	1e66      	subs	r6, r4, #1
 80025e2:	2c01      	cmp	r4, #1
 80025e4:	d100      	bne.n	80025e8 <__aeabi_dsub+0x4f4>
 80025e6:	e0fd      	b.n	80027e4 <__aeabi_dsub+0x6f0>
 80025e8:	4f7b      	ldr	r7, [pc, #492]	; (80027d8 <__aeabi_dsub+0x6e4>)
 80025ea:	42bc      	cmp	r4, r7
 80025ec:	d100      	bne.n	80025f0 <__aeabi_dsub+0x4fc>
 80025ee:	e107      	b.n	8002800 <__aeabi_dsub+0x70c>
 80025f0:	46b4      	mov	ip, r6
 80025f2:	e69b      	b.n	800232c <__aeabi_dsub+0x238>
 80025f4:	4664      	mov	r4, ip
 80025f6:	2220      	movs	r2, #32
 80025f8:	1b12      	subs	r2, r2, r4
 80025fa:	000c      	movs	r4, r1
 80025fc:	4094      	lsls	r4, r2
 80025fe:	0007      	movs	r7, r0
 8002600:	4090      	lsls	r0, r2
 8002602:	46a0      	mov	r8, r4
 8002604:	4664      	mov	r4, ip
 8002606:	1e42      	subs	r2, r0, #1
 8002608:	4190      	sbcs	r0, r2
 800260a:	4662      	mov	r2, ip
 800260c:	40e7      	lsrs	r7, r4
 800260e:	4644      	mov	r4, r8
 8002610:	40d1      	lsrs	r1, r2
 8002612:	433c      	orrs	r4, r7
 8002614:	4304      	orrs	r4, r0
 8002616:	185b      	adds	r3, r3, r1
 8002618:	e6f3      	b.n	8002402 <__aeabi_dsub+0x30e>
 800261a:	4c6f      	ldr	r4, [pc, #444]	; (80027d8 <__aeabi_dsub+0x6e4>)
 800261c:	42a2      	cmp	r2, r4
 800261e:	d100      	bne.n	8002622 <__aeabi_dsub+0x52e>
 8002620:	e0d5      	b.n	80027ce <__aeabi_dsub+0x6da>
 8002622:	4448      	add	r0, r9
 8002624:	185b      	adds	r3, r3, r1
 8002626:	4548      	cmp	r0, r9
 8002628:	4189      	sbcs	r1, r1
 800262a:	4249      	negs	r1, r1
 800262c:	185b      	adds	r3, r3, r1
 800262e:	07dc      	lsls	r4, r3, #31
 8002630:	0840      	lsrs	r0, r0, #1
 8002632:	085b      	lsrs	r3, r3, #1
 8002634:	4698      	mov	r8, r3
 8002636:	0016      	movs	r6, r2
 8002638:	4304      	orrs	r4, r0
 800263a:	e6cc      	b.n	80023d6 <__aeabi_dsub+0x2e2>
 800263c:	2a00      	cmp	r2, #0
 800263e:	d000      	beq.n	8002642 <__aeabi_dsub+0x54e>
 8002640:	e082      	b.n	8002748 <__aeabi_dsub+0x654>
 8002642:	000a      	movs	r2, r1
 8002644:	4302      	orrs	r2, r0
 8002646:	d140      	bne.n	80026ca <__aeabi_dsub+0x5d6>
 8002648:	2380      	movs	r3, #128	; 0x80
 800264a:	2500      	movs	r5, #0
 800264c:	031b      	lsls	r3, r3, #12
 800264e:	e713      	b.n	8002478 <__aeabi_dsub+0x384>
 8002650:	074b      	lsls	r3, r1, #29
 8002652:	08c2      	lsrs	r2, r0, #3
 8002654:	431a      	orrs	r2, r3
 8002656:	465d      	mov	r5, fp
 8002658:	08cb      	lsrs	r3, r1, #3
 800265a:	e6c5      	b.n	80023e8 <__aeabi_dsub+0x2f4>
 800265c:	464a      	mov	r2, r9
 800265e:	1a84      	subs	r4, r0, r2
 8002660:	42a0      	cmp	r0, r4
 8002662:	4192      	sbcs	r2, r2
 8002664:	1acb      	subs	r3, r1, r3
 8002666:	4252      	negs	r2, r2
 8002668:	1a9b      	subs	r3, r3, r2
 800266a:	4698      	mov	r8, r3
 800266c:	465d      	mov	r5, fp
 800266e:	e59e      	b.n	80021ae <__aeabi_dsub+0xba>
 8002670:	464a      	mov	r2, r9
 8002672:	0759      	lsls	r1, r3, #29
 8002674:	08d2      	lsrs	r2, r2, #3
 8002676:	430a      	orrs	r2, r1
 8002678:	08db      	lsrs	r3, r3, #3
 800267a:	e6f9      	b.n	8002470 <__aeabi_dsub+0x37c>
 800267c:	464a      	mov	r2, r9
 800267e:	1a14      	subs	r4, r2, r0
 8002680:	45a1      	cmp	r9, r4
 8002682:	4192      	sbcs	r2, r2
 8002684:	1a5b      	subs	r3, r3, r1
 8002686:	4252      	negs	r2, r2
 8002688:	1a9b      	subs	r3, r3, r2
 800268a:	4698      	mov	r8, r3
 800268c:	2601      	movs	r6, #1
 800268e:	e586      	b.n	800219e <__aeabi_dsub+0xaa>
 8002690:	464a      	mov	r2, r9
 8002692:	0759      	lsls	r1, r3, #29
 8002694:	08d2      	lsrs	r2, r2, #3
 8002696:	430a      	orrs	r2, r1
 8002698:	08db      	lsrs	r3, r3, #3
 800269a:	e6a5      	b.n	80023e8 <__aeabi_dsub+0x2f4>
 800269c:	464c      	mov	r4, r9
 800269e:	4323      	orrs	r3, r4
 80026a0:	001c      	movs	r4, r3
 80026a2:	1e63      	subs	r3, r4, #1
 80026a4:	419c      	sbcs	r4, r3
 80026a6:	e65b      	b.n	8002360 <__aeabi_dsub+0x26c>
 80026a8:	4665      	mov	r5, ip
 80026aa:	001e      	movs	r6, r3
 80026ac:	3d20      	subs	r5, #32
 80026ae:	40ee      	lsrs	r6, r5
 80026b0:	2c20      	cmp	r4, #32
 80026b2:	d005      	beq.n	80026c0 <__aeabi_dsub+0x5cc>
 80026b4:	2540      	movs	r5, #64	; 0x40
 80026b6:	1b2d      	subs	r5, r5, r4
 80026b8:	40ab      	lsls	r3, r5
 80026ba:	464c      	mov	r4, r9
 80026bc:	431c      	orrs	r4, r3
 80026be:	46a2      	mov	sl, r4
 80026c0:	4654      	mov	r4, sl
 80026c2:	1e63      	subs	r3, r4, #1
 80026c4:	419c      	sbcs	r4, r3
 80026c6:	4334      	orrs	r4, r6
 80026c8:	e77d      	b.n	80025c6 <__aeabi_dsub+0x4d2>
 80026ca:	074b      	lsls	r3, r1, #29
 80026cc:	08c2      	lsrs	r2, r0, #3
 80026ce:	431a      	orrs	r2, r3
 80026d0:	465d      	mov	r5, fp
 80026d2:	08cb      	lsrs	r3, r1, #3
 80026d4:	e6cc      	b.n	8002470 <__aeabi_dsub+0x37c>
 80026d6:	000a      	movs	r2, r1
 80026d8:	4302      	orrs	r2, r0
 80026da:	d100      	bne.n	80026de <__aeabi_dsub+0x5ea>
 80026dc:	e736      	b.n	800254c <__aeabi_dsub+0x458>
 80026de:	074b      	lsls	r3, r1, #29
 80026e0:	08c2      	lsrs	r2, r0, #3
 80026e2:	431a      	orrs	r2, r3
 80026e4:	465d      	mov	r5, fp
 80026e6:	08cb      	lsrs	r3, r1, #3
 80026e8:	e681      	b.n	80023ee <__aeabi_dsub+0x2fa>
 80026ea:	464a      	mov	r2, r9
 80026ec:	1a84      	subs	r4, r0, r2
 80026ee:	42a0      	cmp	r0, r4
 80026f0:	4192      	sbcs	r2, r2
 80026f2:	1acb      	subs	r3, r1, r3
 80026f4:	4252      	negs	r2, r2
 80026f6:	1a9b      	subs	r3, r3, r2
 80026f8:	4698      	mov	r8, r3
 80026fa:	465d      	mov	r5, fp
 80026fc:	2601      	movs	r6, #1
 80026fe:	e54e      	b.n	800219e <__aeabi_dsub+0xaa>
 8002700:	074b      	lsls	r3, r1, #29
 8002702:	08c2      	lsrs	r2, r0, #3
 8002704:	431a      	orrs	r2, r3
 8002706:	08cb      	lsrs	r3, r1, #3
 8002708:	e6b2      	b.n	8002470 <__aeabi_dsub+0x37c>
 800270a:	464a      	mov	r2, r9
 800270c:	1a14      	subs	r4, r2, r0
 800270e:	45a1      	cmp	r9, r4
 8002710:	4192      	sbcs	r2, r2
 8002712:	1a5f      	subs	r7, r3, r1
 8002714:	4252      	negs	r2, r2
 8002716:	1aba      	subs	r2, r7, r2
 8002718:	4690      	mov	r8, r2
 800271a:	0212      	lsls	r2, r2, #8
 800271c:	d56b      	bpl.n	80027f6 <__aeabi_dsub+0x702>
 800271e:	464a      	mov	r2, r9
 8002720:	1a84      	subs	r4, r0, r2
 8002722:	42a0      	cmp	r0, r4
 8002724:	4192      	sbcs	r2, r2
 8002726:	1acb      	subs	r3, r1, r3
 8002728:	4252      	negs	r2, r2
 800272a:	1a9b      	subs	r3, r3, r2
 800272c:	4698      	mov	r8, r3
 800272e:	465d      	mov	r5, fp
 8002730:	e564      	b.n	80021fc <__aeabi_dsub+0x108>
 8002732:	074b      	lsls	r3, r1, #29
 8002734:	08c2      	lsrs	r2, r0, #3
 8002736:	431a      	orrs	r2, r3
 8002738:	465d      	mov	r5, fp
 800273a:	08cb      	lsrs	r3, r1, #3
 800273c:	e698      	b.n	8002470 <__aeabi_dsub+0x37c>
 800273e:	074b      	lsls	r3, r1, #29
 8002740:	08c2      	lsrs	r2, r0, #3
 8002742:	431a      	orrs	r2, r3
 8002744:	08cb      	lsrs	r3, r1, #3
 8002746:	e64f      	b.n	80023e8 <__aeabi_dsub+0x2f4>
 8002748:	000a      	movs	r2, r1
 800274a:	4302      	orrs	r2, r0
 800274c:	d090      	beq.n	8002670 <__aeabi_dsub+0x57c>
 800274e:	464a      	mov	r2, r9
 8002750:	075c      	lsls	r4, r3, #29
 8002752:	08d2      	lsrs	r2, r2, #3
 8002754:	4314      	orrs	r4, r2
 8002756:	2280      	movs	r2, #128	; 0x80
 8002758:	08db      	lsrs	r3, r3, #3
 800275a:	0312      	lsls	r2, r2, #12
 800275c:	4213      	tst	r3, r2
 800275e:	d008      	beq.n	8002772 <__aeabi_dsub+0x67e>
 8002760:	08ce      	lsrs	r6, r1, #3
 8002762:	4216      	tst	r6, r2
 8002764:	d105      	bne.n	8002772 <__aeabi_dsub+0x67e>
 8002766:	08c0      	lsrs	r0, r0, #3
 8002768:	0749      	lsls	r1, r1, #29
 800276a:	4308      	orrs	r0, r1
 800276c:	0004      	movs	r4, r0
 800276e:	465d      	mov	r5, fp
 8002770:	0033      	movs	r3, r6
 8002772:	0f61      	lsrs	r1, r4, #29
 8002774:	00e2      	lsls	r2, r4, #3
 8002776:	0749      	lsls	r1, r1, #29
 8002778:	08d2      	lsrs	r2, r2, #3
 800277a:	430a      	orrs	r2, r1
 800277c:	e678      	b.n	8002470 <__aeabi_dsub+0x37c>
 800277e:	074b      	lsls	r3, r1, #29
 8002780:	08c2      	lsrs	r2, r0, #3
 8002782:	431a      	orrs	r2, r3
 8002784:	08cb      	lsrs	r3, r1, #3
 8002786:	e632      	b.n	80023ee <__aeabi_dsub+0x2fa>
 8002788:	4448      	add	r0, r9
 800278a:	185b      	adds	r3, r3, r1
 800278c:	4548      	cmp	r0, r9
 800278e:	4192      	sbcs	r2, r2
 8002790:	4698      	mov	r8, r3
 8002792:	4252      	negs	r2, r2
 8002794:	4490      	add	r8, r2
 8002796:	4643      	mov	r3, r8
 8002798:	0004      	movs	r4, r0
 800279a:	021b      	lsls	r3, r3, #8
 800279c:	d400      	bmi.n	80027a0 <__aeabi_dsub+0x6ac>
 800279e:	e61a      	b.n	80023d6 <__aeabi_dsub+0x2e2>
 80027a0:	4642      	mov	r2, r8
 80027a2:	4b0e      	ldr	r3, [pc, #56]	; (80027dc <__aeabi_dsub+0x6e8>)
 80027a4:	2601      	movs	r6, #1
 80027a6:	401a      	ands	r2, r3
 80027a8:	4690      	mov	r8, r2
 80027aa:	e614      	b.n	80023d6 <__aeabi_dsub+0x2e2>
 80027ac:	4666      	mov	r6, ip
 80027ae:	001f      	movs	r7, r3
 80027b0:	3e20      	subs	r6, #32
 80027b2:	40f7      	lsrs	r7, r6
 80027b4:	2c20      	cmp	r4, #32
 80027b6:	d005      	beq.n	80027c4 <__aeabi_dsub+0x6d0>
 80027b8:	2640      	movs	r6, #64	; 0x40
 80027ba:	1b36      	subs	r6, r6, r4
 80027bc:	40b3      	lsls	r3, r6
 80027be:	464c      	mov	r4, r9
 80027c0:	431c      	orrs	r4, r3
 80027c2:	46a2      	mov	sl, r4
 80027c4:	4654      	mov	r4, sl
 80027c6:	1e63      	subs	r3, r4, #1
 80027c8:	419c      	sbcs	r4, r3
 80027ca:	433c      	orrs	r4, r7
 80027cc:	e5c8      	b.n	8002360 <__aeabi_dsub+0x26c>
 80027ce:	0011      	movs	r1, r2
 80027d0:	2300      	movs	r3, #0
 80027d2:	2200      	movs	r2, #0
 80027d4:	e532      	b.n	800223c <__aeabi_dsub+0x148>
 80027d6:	46c0      	nop			; (mov r8, r8)
 80027d8:	000007ff 	.word	0x000007ff
 80027dc:	ff7fffff 	.word	0xff7fffff
 80027e0:	000007fe 	.word	0x000007fe
 80027e4:	464a      	mov	r2, r9
 80027e6:	1814      	adds	r4, r2, r0
 80027e8:	4284      	cmp	r4, r0
 80027ea:	4192      	sbcs	r2, r2
 80027ec:	185b      	adds	r3, r3, r1
 80027ee:	4698      	mov	r8, r3
 80027f0:	4252      	negs	r2, r2
 80027f2:	4490      	add	r8, r2
 80027f4:	e5e9      	b.n	80023ca <__aeabi_dsub+0x2d6>
 80027f6:	4642      	mov	r2, r8
 80027f8:	4322      	orrs	r2, r4
 80027fa:	d100      	bne.n	80027fe <__aeabi_dsub+0x70a>
 80027fc:	e6a6      	b.n	800254c <__aeabi_dsub+0x458>
 80027fe:	e5ea      	b.n	80023d6 <__aeabi_dsub+0x2e2>
 8002800:	074b      	lsls	r3, r1, #29
 8002802:	08c2      	lsrs	r2, r0, #3
 8002804:	431a      	orrs	r2, r3
 8002806:	08cb      	lsrs	r3, r1, #3
 8002808:	e632      	b.n	8002470 <__aeabi_dsub+0x37c>
 800280a:	2200      	movs	r2, #0
 800280c:	4901      	ldr	r1, [pc, #4]	; (8002814 <__aeabi_dsub+0x720>)
 800280e:	0013      	movs	r3, r2
 8002810:	e514      	b.n	800223c <__aeabi_dsub+0x148>
 8002812:	46c0      	nop			; (mov r8, r8)
 8002814:	000007ff 	.word	0x000007ff

08002818 <__aeabi_d2iz>:
 8002818:	000a      	movs	r2, r1
 800281a:	b530      	push	{r4, r5, lr}
 800281c:	4c13      	ldr	r4, [pc, #76]	; (800286c <__aeabi_d2iz+0x54>)
 800281e:	0053      	lsls	r3, r2, #1
 8002820:	0309      	lsls	r1, r1, #12
 8002822:	0005      	movs	r5, r0
 8002824:	0b09      	lsrs	r1, r1, #12
 8002826:	2000      	movs	r0, #0
 8002828:	0d5b      	lsrs	r3, r3, #21
 800282a:	0fd2      	lsrs	r2, r2, #31
 800282c:	42a3      	cmp	r3, r4
 800282e:	dd04      	ble.n	800283a <__aeabi_d2iz+0x22>
 8002830:	480f      	ldr	r0, [pc, #60]	; (8002870 <__aeabi_d2iz+0x58>)
 8002832:	4283      	cmp	r3, r0
 8002834:	dd02      	ble.n	800283c <__aeabi_d2iz+0x24>
 8002836:	4b0f      	ldr	r3, [pc, #60]	; (8002874 <__aeabi_d2iz+0x5c>)
 8002838:	18d0      	adds	r0, r2, r3
 800283a:	bd30      	pop	{r4, r5, pc}
 800283c:	2080      	movs	r0, #128	; 0x80
 800283e:	0340      	lsls	r0, r0, #13
 8002840:	4301      	orrs	r1, r0
 8002842:	480d      	ldr	r0, [pc, #52]	; (8002878 <__aeabi_d2iz+0x60>)
 8002844:	1ac0      	subs	r0, r0, r3
 8002846:	281f      	cmp	r0, #31
 8002848:	dd08      	ble.n	800285c <__aeabi_d2iz+0x44>
 800284a:	480c      	ldr	r0, [pc, #48]	; (800287c <__aeabi_d2iz+0x64>)
 800284c:	1ac3      	subs	r3, r0, r3
 800284e:	40d9      	lsrs	r1, r3
 8002850:	000b      	movs	r3, r1
 8002852:	4258      	negs	r0, r3
 8002854:	2a00      	cmp	r2, #0
 8002856:	d1f0      	bne.n	800283a <__aeabi_d2iz+0x22>
 8002858:	0018      	movs	r0, r3
 800285a:	e7ee      	b.n	800283a <__aeabi_d2iz+0x22>
 800285c:	4c08      	ldr	r4, [pc, #32]	; (8002880 <__aeabi_d2iz+0x68>)
 800285e:	40c5      	lsrs	r5, r0
 8002860:	46a4      	mov	ip, r4
 8002862:	4463      	add	r3, ip
 8002864:	4099      	lsls	r1, r3
 8002866:	000b      	movs	r3, r1
 8002868:	432b      	orrs	r3, r5
 800286a:	e7f2      	b.n	8002852 <__aeabi_d2iz+0x3a>
 800286c:	000003fe 	.word	0x000003fe
 8002870:	0000041d 	.word	0x0000041d
 8002874:	7fffffff 	.word	0x7fffffff
 8002878:	00000433 	.word	0x00000433
 800287c:	00000413 	.word	0x00000413
 8002880:	fffffbed 	.word	0xfffffbed

08002884 <__aeabi_i2d>:
 8002884:	b570      	push	{r4, r5, r6, lr}
 8002886:	2800      	cmp	r0, #0
 8002888:	d016      	beq.n	80028b8 <__aeabi_i2d+0x34>
 800288a:	17c3      	asrs	r3, r0, #31
 800288c:	18c5      	adds	r5, r0, r3
 800288e:	405d      	eors	r5, r3
 8002890:	0fc4      	lsrs	r4, r0, #31
 8002892:	0028      	movs	r0, r5
 8002894:	f000 f886 	bl	80029a4 <__clzsi2>
 8002898:	4a11      	ldr	r2, [pc, #68]	; (80028e0 <__aeabi_i2d+0x5c>)
 800289a:	1a12      	subs	r2, r2, r0
 800289c:	280a      	cmp	r0, #10
 800289e:	dc16      	bgt.n	80028ce <__aeabi_i2d+0x4a>
 80028a0:	0003      	movs	r3, r0
 80028a2:	002e      	movs	r6, r5
 80028a4:	3315      	adds	r3, #21
 80028a6:	409e      	lsls	r6, r3
 80028a8:	230b      	movs	r3, #11
 80028aa:	1a18      	subs	r0, r3, r0
 80028ac:	40c5      	lsrs	r5, r0
 80028ae:	0553      	lsls	r3, r2, #21
 80028b0:	032d      	lsls	r5, r5, #12
 80028b2:	0b2d      	lsrs	r5, r5, #12
 80028b4:	0d5b      	lsrs	r3, r3, #21
 80028b6:	e003      	b.n	80028c0 <__aeabi_i2d+0x3c>
 80028b8:	2400      	movs	r4, #0
 80028ba:	2300      	movs	r3, #0
 80028bc:	2500      	movs	r5, #0
 80028be:	2600      	movs	r6, #0
 80028c0:	051b      	lsls	r3, r3, #20
 80028c2:	432b      	orrs	r3, r5
 80028c4:	07e4      	lsls	r4, r4, #31
 80028c6:	4323      	orrs	r3, r4
 80028c8:	0030      	movs	r0, r6
 80028ca:	0019      	movs	r1, r3
 80028cc:	bd70      	pop	{r4, r5, r6, pc}
 80028ce:	380b      	subs	r0, #11
 80028d0:	4085      	lsls	r5, r0
 80028d2:	0553      	lsls	r3, r2, #21
 80028d4:	032d      	lsls	r5, r5, #12
 80028d6:	2600      	movs	r6, #0
 80028d8:	0b2d      	lsrs	r5, r5, #12
 80028da:	0d5b      	lsrs	r3, r3, #21
 80028dc:	e7f0      	b.n	80028c0 <__aeabi_i2d+0x3c>
 80028de:	46c0      	nop			; (mov r8, r8)
 80028e0:	0000041e 	.word	0x0000041e

080028e4 <__aeabi_ui2d>:
 80028e4:	b510      	push	{r4, lr}
 80028e6:	1e04      	subs	r4, r0, #0
 80028e8:	d010      	beq.n	800290c <__aeabi_ui2d+0x28>
 80028ea:	f000 f85b 	bl	80029a4 <__clzsi2>
 80028ee:	4b0f      	ldr	r3, [pc, #60]	; (800292c <__aeabi_ui2d+0x48>)
 80028f0:	1a1b      	subs	r3, r3, r0
 80028f2:	280a      	cmp	r0, #10
 80028f4:	dc11      	bgt.n	800291a <__aeabi_ui2d+0x36>
 80028f6:	220b      	movs	r2, #11
 80028f8:	0021      	movs	r1, r4
 80028fa:	1a12      	subs	r2, r2, r0
 80028fc:	40d1      	lsrs	r1, r2
 80028fe:	3015      	adds	r0, #21
 8002900:	030a      	lsls	r2, r1, #12
 8002902:	055b      	lsls	r3, r3, #21
 8002904:	4084      	lsls	r4, r0
 8002906:	0b12      	lsrs	r2, r2, #12
 8002908:	0d5b      	lsrs	r3, r3, #21
 800290a:	e001      	b.n	8002910 <__aeabi_ui2d+0x2c>
 800290c:	2300      	movs	r3, #0
 800290e:	2200      	movs	r2, #0
 8002910:	051b      	lsls	r3, r3, #20
 8002912:	4313      	orrs	r3, r2
 8002914:	0020      	movs	r0, r4
 8002916:	0019      	movs	r1, r3
 8002918:	bd10      	pop	{r4, pc}
 800291a:	0022      	movs	r2, r4
 800291c:	380b      	subs	r0, #11
 800291e:	4082      	lsls	r2, r0
 8002920:	055b      	lsls	r3, r3, #21
 8002922:	0312      	lsls	r2, r2, #12
 8002924:	2400      	movs	r4, #0
 8002926:	0b12      	lsrs	r2, r2, #12
 8002928:	0d5b      	lsrs	r3, r3, #21
 800292a:	e7f1      	b.n	8002910 <__aeabi_ui2d+0x2c>
 800292c:	0000041e 	.word	0x0000041e

08002930 <__aeabi_cfrcmple>:
 8002930:	4684      	mov	ip, r0
 8002932:	1c08      	adds	r0, r1, #0
 8002934:	4661      	mov	r1, ip
 8002936:	e7ff      	b.n	8002938 <__aeabi_cfcmpeq>

08002938 <__aeabi_cfcmpeq>:
 8002938:	b51f      	push	{r0, r1, r2, r3, r4, lr}
 800293a:	f000 f8d1 	bl	8002ae0 <__lesf2>
 800293e:	2800      	cmp	r0, #0
 8002940:	d401      	bmi.n	8002946 <__aeabi_cfcmpeq+0xe>
 8002942:	2100      	movs	r1, #0
 8002944:	42c8      	cmn	r0, r1
 8002946:	bd1f      	pop	{r0, r1, r2, r3, r4, pc}

08002948 <__aeabi_fcmpeq>:
 8002948:	b510      	push	{r4, lr}
 800294a:	f000 f855 	bl	80029f8 <__eqsf2>
 800294e:	4240      	negs	r0, r0
 8002950:	3001      	adds	r0, #1
 8002952:	bd10      	pop	{r4, pc}

08002954 <__aeabi_fcmplt>:
 8002954:	b510      	push	{r4, lr}
 8002956:	f000 f8c3 	bl	8002ae0 <__lesf2>
 800295a:	2800      	cmp	r0, #0
 800295c:	db01      	blt.n	8002962 <__aeabi_fcmplt+0xe>
 800295e:	2000      	movs	r0, #0
 8002960:	bd10      	pop	{r4, pc}
 8002962:	2001      	movs	r0, #1
 8002964:	bd10      	pop	{r4, pc}
 8002966:	46c0      	nop			; (mov r8, r8)

08002968 <__aeabi_fcmple>:
 8002968:	b510      	push	{r4, lr}
 800296a:	f000 f8b9 	bl	8002ae0 <__lesf2>
 800296e:	2800      	cmp	r0, #0
 8002970:	dd01      	ble.n	8002976 <__aeabi_fcmple+0xe>
 8002972:	2000      	movs	r0, #0
 8002974:	bd10      	pop	{r4, pc}
 8002976:	2001      	movs	r0, #1
 8002978:	bd10      	pop	{r4, pc}
 800297a:	46c0      	nop			; (mov r8, r8)

0800297c <__aeabi_fcmpgt>:
 800297c:	b510      	push	{r4, lr}
 800297e:	f000 f863 	bl	8002a48 <__gesf2>
 8002982:	2800      	cmp	r0, #0
 8002984:	dc01      	bgt.n	800298a <__aeabi_fcmpgt+0xe>
 8002986:	2000      	movs	r0, #0
 8002988:	bd10      	pop	{r4, pc}
 800298a:	2001      	movs	r0, #1
 800298c:	bd10      	pop	{r4, pc}
 800298e:	46c0      	nop			; (mov r8, r8)

08002990 <__aeabi_fcmpge>:
 8002990:	b510      	push	{r4, lr}
 8002992:	f000 f859 	bl	8002a48 <__gesf2>
 8002996:	2800      	cmp	r0, #0
 8002998:	da01      	bge.n	800299e <__aeabi_fcmpge+0xe>
 800299a:	2000      	movs	r0, #0
 800299c:	bd10      	pop	{r4, pc}
 800299e:	2001      	movs	r0, #1
 80029a0:	bd10      	pop	{r4, pc}
 80029a2:	46c0      	nop			; (mov r8, r8)

080029a4 <__clzsi2>:
 80029a4:	211c      	movs	r1, #28
 80029a6:	2301      	movs	r3, #1
 80029a8:	041b      	lsls	r3, r3, #16
 80029aa:	4298      	cmp	r0, r3
 80029ac:	d301      	bcc.n	80029b2 <__clzsi2+0xe>
 80029ae:	0c00      	lsrs	r0, r0, #16
 80029b0:	3910      	subs	r1, #16
 80029b2:	0a1b      	lsrs	r3, r3, #8
 80029b4:	4298      	cmp	r0, r3
 80029b6:	d301      	bcc.n	80029bc <__clzsi2+0x18>
 80029b8:	0a00      	lsrs	r0, r0, #8
 80029ba:	3908      	subs	r1, #8
 80029bc:	091b      	lsrs	r3, r3, #4
 80029be:	4298      	cmp	r0, r3
 80029c0:	d301      	bcc.n	80029c6 <__clzsi2+0x22>
 80029c2:	0900      	lsrs	r0, r0, #4
 80029c4:	3904      	subs	r1, #4
 80029c6:	a202      	add	r2, pc, #8	; (adr r2, 80029d0 <__clzsi2+0x2c>)
 80029c8:	5c10      	ldrb	r0, [r2, r0]
 80029ca:	1840      	adds	r0, r0, r1
 80029cc:	4770      	bx	lr
 80029ce:	46c0      	nop			; (mov r8, r8)
 80029d0:	02020304 	.word	0x02020304
 80029d4:	01010101 	.word	0x01010101
	...

080029e0 <__clzdi2>:
 80029e0:	b510      	push	{r4, lr}
 80029e2:	2900      	cmp	r1, #0
 80029e4:	d103      	bne.n	80029ee <__clzdi2+0xe>
 80029e6:	f7ff ffdd 	bl	80029a4 <__clzsi2>
 80029ea:	3020      	adds	r0, #32
 80029ec:	e002      	b.n	80029f4 <__clzdi2+0x14>
 80029ee:	1c08      	adds	r0, r1, #0
 80029f0:	f7ff ffd8 	bl	80029a4 <__clzsi2>
 80029f4:	bd10      	pop	{r4, pc}
 80029f6:	46c0      	nop			; (mov r8, r8)

080029f8 <__eqsf2>:
 80029f8:	b570      	push	{r4, r5, r6, lr}
 80029fa:	0042      	lsls	r2, r0, #1
 80029fc:	024e      	lsls	r6, r1, #9
 80029fe:	004c      	lsls	r4, r1, #1
 8002a00:	0245      	lsls	r5, r0, #9
 8002a02:	0a6d      	lsrs	r5, r5, #9
 8002a04:	0e12      	lsrs	r2, r2, #24
 8002a06:	0fc3      	lsrs	r3, r0, #31
 8002a08:	0a76      	lsrs	r6, r6, #9
 8002a0a:	0e24      	lsrs	r4, r4, #24
 8002a0c:	0fc9      	lsrs	r1, r1, #31
 8002a0e:	2aff      	cmp	r2, #255	; 0xff
 8002a10:	d00f      	beq.n	8002a32 <__eqsf2+0x3a>
 8002a12:	2cff      	cmp	r4, #255	; 0xff
 8002a14:	d011      	beq.n	8002a3a <__eqsf2+0x42>
 8002a16:	2001      	movs	r0, #1
 8002a18:	42a2      	cmp	r2, r4
 8002a1a:	d000      	beq.n	8002a1e <__eqsf2+0x26>
 8002a1c:	bd70      	pop	{r4, r5, r6, pc}
 8002a1e:	42b5      	cmp	r5, r6
 8002a20:	d1fc      	bne.n	8002a1c <__eqsf2+0x24>
 8002a22:	428b      	cmp	r3, r1
 8002a24:	d00d      	beq.n	8002a42 <__eqsf2+0x4a>
 8002a26:	2a00      	cmp	r2, #0
 8002a28:	d1f8      	bne.n	8002a1c <__eqsf2+0x24>
 8002a2a:	0028      	movs	r0, r5
 8002a2c:	1e45      	subs	r5, r0, #1
 8002a2e:	41a8      	sbcs	r0, r5
 8002a30:	e7f4      	b.n	8002a1c <__eqsf2+0x24>
 8002a32:	2001      	movs	r0, #1
 8002a34:	2d00      	cmp	r5, #0
 8002a36:	d1f1      	bne.n	8002a1c <__eqsf2+0x24>
 8002a38:	e7eb      	b.n	8002a12 <__eqsf2+0x1a>
 8002a3a:	2001      	movs	r0, #1
 8002a3c:	2e00      	cmp	r6, #0
 8002a3e:	d1ed      	bne.n	8002a1c <__eqsf2+0x24>
 8002a40:	e7e9      	b.n	8002a16 <__eqsf2+0x1e>
 8002a42:	2000      	movs	r0, #0
 8002a44:	e7ea      	b.n	8002a1c <__eqsf2+0x24>
 8002a46:	46c0      	nop			; (mov r8, r8)

08002a48 <__gesf2>:
 8002a48:	b5f0      	push	{r4, r5, r6, r7, lr}
 8002a4a:	0042      	lsls	r2, r0, #1
 8002a4c:	0246      	lsls	r6, r0, #9
 8002a4e:	024d      	lsls	r5, r1, #9
 8002a50:	004c      	lsls	r4, r1, #1
 8002a52:	0fc3      	lsrs	r3, r0, #31
 8002a54:	0a76      	lsrs	r6, r6, #9
 8002a56:	0e12      	lsrs	r2, r2, #24
 8002a58:	0a6d      	lsrs	r5, r5, #9
 8002a5a:	0e24      	lsrs	r4, r4, #24
 8002a5c:	0fc8      	lsrs	r0, r1, #31
 8002a5e:	2aff      	cmp	r2, #255	; 0xff
 8002a60:	d01f      	beq.n	8002aa2 <__gesf2+0x5a>
 8002a62:	2cff      	cmp	r4, #255	; 0xff
 8002a64:	d010      	beq.n	8002a88 <__gesf2+0x40>
 8002a66:	2a00      	cmp	r2, #0
 8002a68:	d11f      	bne.n	8002aaa <__gesf2+0x62>
 8002a6a:	4271      	negs	r1, r6
 8002a6c:	4171      	adcs	r1, r6
 8002a6e:	2c00      	cmp	r4, #0
 8002a70:	d101      	bne.n	8002a76 <__gesf2+0x2e>
 8002a72:	2d00      	cmp	r5, #0
 8002a74:	d01e      	beq.n	8002ab4 <__gesf2+0x6c>
 8002a76:	2900      	cmp	r1, #0
 8002a78:	d10e      	bne.n	8002a98 <__gesf2+0x50>
 8002a7a:	4283      	cmp	r3, r0
 8002a7c:	d01e      	beq.n	8002abc <__gesf2+0x74>
 8002a7e:	2102      	movs	r1, #2
 8002a80:	1e58      	subs	r0, r3, #1
 8002a82:	4008      	ands	r0, r1
 8002a84:	3801      	subs	r0, #1
 8002a86:	bdf0      	pop	{r4, r5, r6, r7, pc}
 8002a88:	2d00      	cmp	r5, #0
 8002a8a:	d126      	bne.n	8002ada <__gesf2+0x92>
 8002a8c:	2a00      	cmp	r2, #0
 8002a8e:	d1f4      	bne.n	8002a7a <__gesf2+0x32>
 8002a90:	4271      	negs	r1, r6
 8002a92:	4171      	adcs	r1, r6
 8002a94:	2900      	cmp	r1, #0
 8002a96:	d0f0      	beq.n	8002a7a <__gesf2+0x32>
 8002a98:	2800      	cmp	r0, #0
 8002a9a:	d1f4      	bne.n	8002a86 <__gesf2+0x3e>
 8002a9c:	2001      	movs	r0, #1
 8002a9e:	4240      	negs	r0, r0
 8002aa0:	e7f1      	b.n	8002a86 <__gesf2+0x3e>
 8002aa2:	2e00      	cmp	r6, #0
 8002aa4:	d119      	bne.n	8002ada <__gesf2+0x92>
 8002aa6:	2cff      	cmp	r4, #255	; 0xff
 8002aa8:	d0ee      	beq.n	8002a88 <__gesf2+0x40>
 8002aaa:	2c00      	cmp	r4, #0
 8002aac:	d1e5      	bne.n	8002a7a <__gesf2+0x32>
 8002aae:	2d00      	cmp	r5, #0
 8002ab0:	d1e3      	bne.n	8002a7a <__gesf2+0x32>
 8002ab2:	e7e4      	b.n	8002a7e <__gesf2+0x36>
 8002ab4:	2000      	movs	r0, #0
 8002ab6:	2e00      	cmp	r6, #0
 8002ab8:	d0e5      	beq.n	8002a86 <__gesf2+0x3e>
 8002aba:	e7e0      	b.n	8002a7e <__gesf2+0x36>
 8002abc:	42a2      	cmp	r2, r4
 8002abe:	dc05      	bgt.n	8002acc <__gesf2+0x84>
 8002ac0:	dbea      	blt.n	8002a98 <__gesf2+0x50>
 8002ac2:	42ae      	cmp	r6, r5
 8002ac4:	d802      	bhi.n	8002acc <__gesf2+0x84>
 8002ac6:	d3e7      	bcc.n	8002a98 <__gesf2+0x50>
 8002ac8:	2000      	movs	r0, #0
 8002aca:	e7dc      	b.n	8002a86 <__gesf2+0x3e>
 8002acc:	4241      	negs	r1, r0
 8002ace:	4141      	adcs	r1, r0
 8002ad0:	4248      	negs	r0, r1
 8002ad2:	2102      	movs	r1, #2
 8002ad4:	4008      	ands	r0, r1
 8002ad6:	3801      	subs	r0, #1
 8002ad8:	e7d5      	b.n	8002a86 <__gesf2+0x3e>
 8002ada:	2002      	movs	r0, #2
 8002adc:	4240      	negs	r0, r0
 8002ade:	e7d2      	b.n	8002a86 <__gesf2+0x3e>

08002ae0 <__lesf2>:
 8002ae0:	b5f0      	push	{r4, r5, r6, r7, lr}
 8002ae2:	0042      	lsls	r2, r0, #1
 8002ae4:	0246      	lsls	r6, r0, #9
 8002ae6:	024d      	lsls	r5, r1, #9
 8002ae8:	004c      	lsls	r4, r1, #1
 8002aea:	0fc3      	lsrs	r3, r0, #31
 8002aec:	0a76      	lsrs	r6, r6, #9
 8002aee:	0e12      	lsrs	r2, r2, #24
 8002af0:	0a6d      	lsrs	r5, r5, #9
 8002af2:	0e24      	lsrs	r4, r4, #24
 8002af4:	0fc8      	lsrs	r0, r1, #31
 8002af6:	2aff      	cmp	r2, #255	; 0xff
 8002af8:	d00d      	beq.n	8002b16 <__lesf2+0x36>
 8002afa:	2cff      	cmp	r4, #255	; 0xff
 8002afc:	d00f      	beq.n	8002b1e <__lesf2+0x3e>
 8002afe:	2a00      	cmp	r2, #0
 8002b00:	d123      	bne.n	8002b4a <__lesf2+0x6a>
 8002b02:	4271      	negs	r1, r6
 8002b04:	4171      	adcs	r1, r6
 8002b06:	2c00      	cmp	r4, #0
 8002b08:	d10f      	bne.n	8002b2a <__lesf2+0x4a>
 8002b0a:	2d00      	cmp	r5, #0
 8002b0c:	d10d      	bne.n	8002b2a <__lesf2+0x4a>
 8002b0e:	2000      	movs	r0, #0
 8002b10:	2e00      	cmp	r6, #0
 8002b12:	d014      	beq.n	8002b3e <__lesf2+0x5e>
 8002b14:	e00d      	b.n	8002b32 <__lesf2+0x52>
 8002b16:	2e00      	cmp	r6, #0
 8002b18:	d110      	bne.n	8002b3c <__lesf2+0x5c>
 8002b1a:	2cff      	cmp	r4, #255	; 0xff
 8002b1c:	d115      	bne.n	8002b4a <__lesf2+0x6a>
 8002b1e:	2d00      	cmp	r5, #0
 8002b20:	d10c      	bne.n	8002b3c <__lesf2+0x5c>
 8002b22:	2a00      	cmp	r2, #0
 8002b24:	d103      	bne.n	8002b2e <__lesf2+0x4e>
 8002b26:	4271      	negs	r1, r6
 8002b28:	4171      	adcs	r1, r6
 8002b2a:	2900      	cmp	r1, #0
 8002b2c:	d108      	bne.n	8002b40 <__lesf2+0x60>
 8002b2e:	4283      	cmp	r3, r0
 8002b30:	d010      	beq.n	8002b54 <__lesf2+0x74>
 8002b32:	2102      	movs	r1, #2
 8002b34:	1e58      	subs	r0, r3, #1
 8002b36:	4008      	ands	r0, r1
 8002b38:	3801      	subs	r0, #1
 8002b3a:	e000      	b.n	8002b3e <__lesf2+0x5e>
 8002b3c:	2002      	movs	r0, #2
 8002b3e:	bdf0      	pop	{r4, r5, r6, r7, pc}
 8002b40:	2800      	cmp	r0, #0
 8002b42:	d1fc      	bne.n	8002b3e <__lesf2+0x5e>
 8002b44:	2001      	movs	r0, #1
 8002b46:	4240      	negs	r0, r0
 8002b48:	e7f9      	b.n	8002b3e <__lesf2+0x5e>
 8002b4a:	2c00      	cmp	r4, #0
 8002b4c:	d1ef      	bne.n	8002b2e <__lesf2+0x4e>
 8002b4e:	2d00      	cmp	r5, #0
 8002b50:	d1ed      	bne.n	8002b2e <__lesf2+0x4e>
 8002b52:	e7ee      	b.n	8002b32 <__lesf2+0x52>
 8002b54:	42a2      	cmp	r2, r4
 8002b56:	dc05      	bgt.n	8002b64 <__lesf2+0x84>
 8002b58:	dbf2      	blt.n	8002b40 <__lesf2+0x60>
 8002b5a:	42ae      	cmp	r6, r5
 8002b5c:	d802      	bhi.n	8002b64 <__lesf2+0x84>
 8002b5e:	d3ef      	bcc.n	8002b40 <__lesf2+0x60>
 8002b60:	2000      	movs	r0, #0
 8002b62:	e7ec      	b.n	8002b3e <__lesf2+0x5e>
 8002b64:	4241      	negs	r1, r0
 8002b66:	4141      	adcs	r1, r0
 8002b68:	4248      	negs	r0, r1
 8002b6a:	2102      	movs	r1, #2
 8002b6c:	4008      	ands	r0, r1
 8002b6e:	3801      	subs	r0, #1
 8002b70:	e7e5      	b.n	8002b3e <__lesf2+0x5e>
 8002b72:	46c0      	nop			; (mov r8, r8)

08002b74 <AD9833_Select>:
 8002b74:	20a0      	movs	r0, #160	; 0xa0
 8002b76:	b510      	push	{r4, lr}
 8002b78:	2200      	movs	r2, #0
 8002b7a:	2120      	movs	r1, #32
 8002b7c:	05c0      	lsls	r0, r0, #23
 8002b7e:	f000 feb7 	bl	80038f0 <HAL_GPIO_WritePin>
 8002b82:	bd10      	pop	{r4, pc}

08002b84 <AD9833_Unselect>:
 8002b84:	20a0      	movs	r0, #160	; 0xa0
 8002b86:	b510      	push	{r4, lr}
 8002b88:	2201      	movs	r2, #1
 8002b8a:	2120      	movs	r1, #32
 8002b8c:	05c0      	lsls	r0, r0, #23
 8002b8e:	f000 feaf 	bl	80038f0 <HAL_GPIO_WritePin>
 8002b92:	bd10      	pop	{r4, pc}

08002b94 <AD9833_WriteRegister>:
 8002b94:	b573      	push	{r0, r1, r4, r5, r6, lr}
 8002b96:	0004      	movs	r4, r0
 8002b98:	f7ff ffec 	bl	8002b74 <AD9833_Select>
 8002b9c:	466b      	mov	r3, sp
 8002b9e:	2601      	movs	r6, #1
 8002ba0:	1dd9      	adds	r1, r3, #7
 8002ba2:	719c      	strb	r4, [r3, #6]
 8002ba4:	0a24      	lsrs	r4, r4, #8
 8002ba6:	700c      	strb	r4, [r1, #0]
 8002ba8:	4c08      	ldr	r4, [pc, #32]	; (8002bcc <AD9833_WriteRegister+0x38>)
 8002baa:	4276      	negs	r6, r6
 8002bac:	1d9d      	adds	r5, r3, #6
 8002bae:	2201      	movs	r2, #1
 8002bb0:	0033      	movs	r3, r6
 8002bb2:	0020      	movs	r0, r4
 8002bb4:	f001 fb3e 	bl	8004234 <HAL_SPI_Transmit>
 8002bb8:	0033      	movs	r3, r6
 8002bba:	0029      	movs	r1, r5
 8002bbc:	2201      	movs	r2, #1
 8002bbe:	0020      	movs	r0, r4
 8002bc0:	f001 fb38 	bl	8004234 <HAL_SPI_Transmit>
 8002bc4:	f7ff ffde 	bl	8002b84 <AD9833_Unselect>
 8002bc8:	bd73      	pop	{r0, r1, r4, r5, r6, pc}
 8002bca:	46c0      	nop			; (mov r8, r8)
 8002bcc:	20000074 	.word	0x20000074

08002bd0 <AD9833_WriteCfgReg>:
 8002bd0:	b510      	push	{r4, lr}
 8002bd2:	4b0e      	ldr	r3, [pc, #56]	; (8002c0c <AD9833_WriteCfgReg+0x3c>)
 8002bd4:	4a0e      	ldr	r2, [pc, #56]	; (8002c10 <AD9833_WriteCfgReg+0x40>)
 8002bd6:	7818      	ldrb	r0, [r3, #0]
 8002bd8:	4b0e      	ldr	r3, [pc, #56]	; (8002c14 <AD9833_WriteCfgReg+0x44>)
 8002bda:	781b      	ldrb	r3, [r3, #0]
 8002bdc:	4303      	orrs	r3, r0
 8002bde:	7810      	ldrb	r0, [r2, #0]
 8002be0:	1e42      	subs	r2, r0, #1
 8002be2:	4190      	sbcs	r0, r2
 8002be4:	02c0      	lsls	r0, r0, #11
 8002be6:	4318      	orrs	r0, r3
 8002be8:	4b0b      	ldr	r3, [pc, #44]	; (8002c18 <AD9833_WriteCfgReg+0x48>)
 8002bea:	781b      	ldrb	r3, [r3, #0]
 8002bec:	1e5a      	subs	r2, r3, #1
 8002bee:	4193      	sbcs	r3, r2
 8002bf0:	029b      	lsls	r3, r3, #10
 8002bf2:	4318      	orrs	r0, r3
 8002bf4:	4b09      	ldr	r3, [pc, #36]	; (8002c1c <AD9833_WriteCfgReg+0x4c>)
 8002bf6:	781b      	ldrb	r3, [r3, #0]
 8002bf8:	1e5a      	subs	r2, r3, #1
 8002bfa:	4193      	sbcs	r3, r2
 8002bfc:	021b      	lsls	r3, r3, #8
 8002bfe:	4318      	orrs	r0, r3
 8002c00:	2380      	movs	r3, #128	; 0x80
 8002c02:	019b      	lsls	r3, r3, #6
 8002c04:	4318      	orrs	r0, r3
 8002c06:	f7ff ffc5 	bl	8002b94 <AD9833_WriteRegister>
 8002c0a:	bd10      	pop	{r4, pc}
 8002c0c:	20000050 	.word	0x20000050
 8002c10:	2000004c 	.word	0x2000004c
 8002c14:	2000004f 	.word	0x2000004f
 8002c18:	2000004d 	.word	0x2000004d
 8002c1c:	2000004e 	.word	0x2000004e

08002c20 <AD9833_SetWaveform>:
 8002c20:	b510      	push	{r4, lr}
 8002c22:	2802      	cmp	r0, #2
 8002c24:	d105      	bne.n	8002c32 <AD9833_SetWaveform+0x12>
 8002c26:	2200      	movs	r2, #0
 8002c28:	4b07      	ldr	r3, [pc, #28]	; (8002c48 <AD9833_SetWaveform+0x28>)
 8002c2a:	701a      	strb	r2, [r3, #0]
 8002c2c:	f7ff ffd0 	bl	8002bd0 <AD9833_WriteCfgReg>
 8002c30:	bd10      	pop	{r4, pc}
 8002c32:	2801      	cmp	r0, #1
 8002c34:	d102      	bne.n	8002c3c <AD9833_SetWaveform+0x1c>
 8002c36:	2228      	movs	r2, #40	; 0x28
 8002c38:	4b03      	ldr	r3, [pc, #12]	; (8002c48 <AD9833_SetWaveform+0x28>)
 8002c3a:	e7f6      	b.n	8002c2a <AD9833_SetWaveform+0xa>
 8002c3c:	2800      	cmp	r0, #0
 8002c3e:	d1f5      	bne.n	8002c2c <AD9833_SetWaveform+0xc>
 8002c40:	2202      	movs	r2, #2
 8002c42:	4b01      	ldr	r3, [pc, #4]	; (8002c48 <AD9833_SetWaveform+0x28>)
 8002c44:	e7f1      	b.n	8002c2a <AD9833_SetWaveform+0xa>
 8002c46:	46c0      	nop			; (mov r8, r8)
 8002c48:	20000050 	.word	0x20000050

08002c4c <AD9833_SetFrequency>:
 8002c4c:	4b0d      	ldr	r3, [pc, #52]	; (8002c84 <AD9833_SetFrequency+0x38>)
 8002c4e:	b570      	push	{r4, r5, r6, lr}
 8002c50:	4298      	cmp	r0, r3
 8002c52:	d900      	bls.n	8002c56 <AD9833_SetFrequency+0xa>
 8002c54:	0018      	movs	r0, r3
 8002c56:	f7fe f835 	bl	8000cc4 <__aeabi_ui2f>
 8002c5a:	490b      	ldr	r1, [pc, #44]	; (8002c88 <AD9833_SetFrequency+0x3c>)
 8002c5c:	f7fd fd30 	bl	80006c0 <__aeabi_fmul>
 8002c60:	f7fd fc2c 	bl	80004bc <__aeabi_f2uiz>
 8002c64:	0005      	movs	r5, r0
 8002c66:	2480      	movs	r4, #128	; 0x80
 8002c68:	f7ff ffb2 	bl	8002bd0 <AD9833_WriteCfgReg>
 8002c6c:	04a8      	lsls	r0, r5, #18
 8002c6e:	01e4      	lsls	r4, r4, #7
 8002c70:	0c80      	lsrs	r0, r0, #18
 8002c72:	4320      	orrs	r0, r4
 8002c74:	f7ff ff8e 	bl	8002b94 <AD9833_WriteRegister>
 8002c78:	0ba8      	lsrs	r0, r5, #14
 8002c7a:	4320      	orrs	r0, r4
 8002c7c:	b280      	uxth	r0, r0
 8002c7e:	f7ff ff89 	bl	8002b94 <AD9833_WriteRegister>
 8002c82:	bd70      	pop	{r4, r5, r6, pc}
 8002c84:	00bebc20 	.word	0x00bebc20
 8002c88:	41200000 	.word	0x41200000

08002c8c <AD9833_SetPhase>:
 8002c8c:	21b4      	movs	r1, #180	; 0xb4
 8002c8e:	b510      	push	{r4, lr}
 8002c90:	0049      	lsls	r1, r1, #1
 8002c92:	4288      	cmp	r0, r1
 8002c94:	d902      	bls.n	8002c9c <AD9833_SetPhase+0x10>
 8002c96:	f7fd fac3 	bl	8000220 <__aeabi_uidivmod>
 8002c9a:	b288      	uxth	r0, r1
 8002c9c:	f7ff fdf2 	bl	8002884 <__aeabi_i2d>
 8002ca0:	4a06      	ldr	r2, [pc, #24]	; (8002cbc <AD9833_SetPhase+0x30>)
 8002ca2:	4b07      	ldr	r3, [pc, #28]	; (8002cc0 <AD9833_SetPhase+0x34>)
 8002ca4:	f7fe ffba 	bl	8001c1c <__aeabi_dmul>
 8002ca8:	f7fd fc20 	bl	80004ec <__aeabi_d2uiz>
 8002cac:	23c0      	movs	r3, #192	; 0xc0
 8002cae:	0500      	lsls	r0, r0, #20
 8002cb0:	021b      	lsls	r3, r3, #8
 8002cb2:	0d00      	lsrs	r0, r0, #20
 8002cb4:	4318      	orrs	r0, r3
 8002cb6:	f7ff ff6d 	bl	8002b94 <AD9833_WriteRegister>
 8002cba:	bd10      	pop	{r4, pc}
 8002cbc:	16c16c23 	.word	0x16c16c23
 8002cc0:	4026c16c 	.word	0x4026c16c

08002cc4 <AD9833_Init>:
 8002cc4:	b5f8      	push	{r3, r4, r5, r6, r7, lr}
 8002cc6:	2301      	movs	r3, #1
 8002cc8:	0006      	movs	r6, r0
 8002cca:	000d      	movs	r5, r1
 8002ccc:	0014      	movs	r4, r2
 8002cce:	4f0a      	ldr	r7, [pc, #40]	; (8002cf8 <AD9833_Init+0x34>)
 8002cd0:	703b      	strb	r3, [r7, #0]
 8002cd2:	f7ff ff7d 	bl	8002bd0 <AD9833_WriteCfgReg>
 8002cd6:	0030      	movs	r0, r6
 8002cd8:	f7ff ffa2 	bl	8002c20 <AD9833_SetWaveform>
 8002cdc:	f7ff ff78 	bl	8002bd0 <AD9833_WriteCfgReg>
 8002ce0:	0028      	movs	r0, r5
 8002ce2:	f7ff ffb3 	bl	8002c4c <AD9833_SetFrequency>
 8002ce6:	0020      	movs	r0, r4
 8002ce8:	f7ff ffd0 	bl	8002c8c <AD9833_SetPhase>
 8002cec:	2300      	movs	r3, #0
 8002cee:	703b      	strb	r3, [r7, #0]
 8002cf0:	f7ff ff6e 	bl	8002bd0 <AD9833_WriteCfgReg>
 8002cf4:	bdf8      	pop	{r3, r4, r5, r6, r7, pc}
 8002cf6:	46c0      	nop			; (mov r8, r8)
 8002cf8:	2000004e 	.word	0x2000004e

08002cfc <Encoder_Init>:
 8002cfc:	b510      	push	{r4, lr}
 8002cfe:	213c      	movs	r1, #60	; 0x3c
 8002d00:	4801      	ldr	r0, [pc, #4]	; (8002d08 <Encoder_Init+0xc>)
 8002d02:	f001 fb54 	bl	80043ae <HAL_TIM_Encoder_Start>
 8002d06:	bd10      	pop	{r4, pc}
 8002d08:	20000188 	.word	0x20000188

08002d0c <Encoder_Read>:
 8002d0c:	4b03      	ldr	r3, [pc, #12]	; (8002d1c <Encoder_Read+0x10>)
 8002d0e:	681b      	ldr	r3, [r3, #0]
 8002d10:	6a58      	ldr	r0, [r3, #36]	; 0x24
 8002d12:	b200      	sxth	r0, r0
 8002d14:	1040      	asrs	r0, r0, #1
 8002d16:	b280      	uxth	r0, r0
 8002d18:	4770      	bx	lr
 8002d1a:	46c0      	nop			; (mov r8, r8)
 8002d1c:	20000188 	.word	0x20000188

08002d20 <Encoder_Get_Status>:
 8002d20:	b510      	push	{r4, lr}
 8002d22:	f7ff fff3 	bl	8002d0c <Encoder_Read>
 8002d26:	4a08      	ldr	r2, [pc, #32]	; (8002d48 <Encoder_Get_Status+0x28>)
 8002d28:	b203      	sxth	r3, r0
 8002d2a:	2000      	movs	r0, #0
 8002d2c:	5e11      	ldrsh	r1, [r2, r0]
 8002d2e:	2000      	movs	r0, #0
 8002d30:	428b      	cmp	r3, r1
 8002d32:	d002      	beq.n	8002d3a <Encoder_Get_Status+0x1a>
 8002d34:	dd02      	ble.n	8002d3c <Encoder_Get_Status+0x1c>
 8002d36:	8013      	strh	r3, [r2, #0]
 8002d38:	3001      	adds	r0, #1
 8002d3a:	bd10      	pop	{r4, pc}
 8002d3c:	2000      	movs	r0, #0
 8002d3e:	428b      	cmp	r3, r1
 8002d40:	dafb      	bge.n	8002d3a <Encoder_Get_Status+0x1a>
 8002d42:	8013      	strh	r3, [r2, #0]
 8002d44:	3801      	subs	r0, #1
 8002d46:	e7f8      	b.n	8002d3a <Encoder_Get_Status+0x1a>
 8002d48:	20000058 	.word	0x20000058

08002d4c <Button_Get_Status>:
 8002d4c:	2180      	movs	r1, #128	; 0x80
 8002d4e:	20a0      	movs	r0, #160	; 0xa0
 8002d50:	b570      	push	{r4, r5, r6, lr}
 8002d52:	0109      	lsls	r1, r1, #4
 8002d54:	05c0      	lsls	r0, r0, #23
 8002d56:	f000 fdc5 	bl	80038e4 <HAL_GPIO_ReadPin>
 8002d5a:	2201      	movs	r2, #1
 8002d5c:	4243      	negs	r3, r0
 8002d5e:	4143      	adcs	r3, r0
 8002d60:	4c23      	ldr	r4, [pc, #140]	; (8002df0 <Button_Get_Status+0xa4>)
 8002d62:	7820      	ldrb	r0, [r4, #0]
 8002d64:	4390      	bics	r0, r2
 8002d66:	4318      	orrs	r0, r3
 8002d68:	2303      	movs	r3, #3
 8002d6a:	7020      	strb	r0, [r4, #0]
 8002d6c:	4018      	ands	r0, r3
 8002d6e:	4290      	cmp	r0, r2
 8002d70:	d112      	bne.n	8002d98 <Button_Get_Status+0x4c>
 8002d72:	f000 fcad 	bl	80036d0 <HAL_GetTick>
 8002d76:	4d1f      	ldr	r5, [pc, #124]	; (8002df4 <Button_Get_Status+0xa8>)
 8002d78:	682b      	ldr	r3, [r5, #0]
 8002d7a:	1ac0      	subs	r0, r0, r3
 8002d7c:	2864      	cmp	r0, #100	; 0x64
 8002d7e:	d90b      	bls.n	8002d98 <Button_Get_Status+0x4c>
 8002d80:	2206      	movs	r2, #6
 8002d82:	7823      	ldrb	r3, [r4, #0]
 8002d84:	4393      	bics	r3, r2
 8002d86:	001a      	movs	r2, r3
 8002d88:	2302      	movs	r3, #2
 8002d8a:	4313      	orrs	r3, r2
 8002d8c:	7023      	strb	r3, [r4, #0]
 8002d8e:	f000 fc9f 	bl	80036d0 <HAL_GetTick>
 8002d92:	6028      	str	r0, [r5, #0]
 8002d94:	2000      	movs	r0, #0
 8002d96:	e012      	b.n	8002dbe <Button_Get_Status+0x72>
 8002d98:	2205      	movs	r2, #5
 8002d9a:	7823      	ldrb	r3, [r4, #0]
 8002d9c:	4013      	ands	r3, r2
 8002d9e:	2b01      	cmp	r3, #1
 8002da0:	d10e      	bne.n	8002dc0 <Button_Get_Status+0x74>
 8002da2:	f000 fc95 	bl	80036d0 <HAL_GetTick>
 8002da6:	4b13      	ldr	r3, [pc, #76]	; (8002df4 <Button_Get_Status+0xa8>)
 8002da8:	681b      	ldr	r3, [r3, #0]
 8002daa:	1ac0      	subs	r0, r0, r3
 8002dac:	23fa      	movs	r3, #250	; 0xfa
 8002dae:	009b      	lsls	r3, r3, #2
 8002db0:	4298      	cmp	r0, r3
 8002db2:	d905      	bls.n	8002dc0 <Button_Get_Status+0x74>
 8002db4:	2304      	movs	r3, #4
 8002db6:	2002      	movs	r0, #2
 8002db8:	7822      	ldrb	r2, [r4, #0]
 8002dba:	4313      	orrs	r3, r2
 8002dbc:	7023      	strb	r3, [r4, #0]
 8002dbe:	bd70      	pop	{r4, r5, r6, pc}
 8002dc0:	2303      	movs	r3, #3
 8002dc2:	7825      	ldrb	r5, [r4, #0]
 8002dc4:	401d      	ands	r5, r3
 8002dc6:	2d02      	cmp	r5, #2
 8002dc8:	d1e4      	bne.n	8002d94 <Button_Get_Status+0x48>
 8002dca:	f000 fc81 	bl	80036d0 <HAL_GetTick>
 8002dce:	4e09      	ldr	r6, [pc, #36]	; (8002df4 <Button_Get_Status+0xa8>)
 8002dd0:	6833      	ldr	r3, [r6, #0]
 8002dd2:	1ac0      	subs	r0, r0, r3
 8002dd4:	2864      	cmp	r0, #100	; 0x64
 8002dd6:	d9dd      	bls.n	8002d94 <Button_Get_Status+0x48>
 8002dd8:	7823      	ldrb	r3, [r4, #0]
 8002dda:	43ab      	bics	r3, r5
 8002ddc:	7023      	strb	r3, [r4, #0]
 8002dde:	f000 fc77 	bl	80036d0 <HAL_GetTick>
 8002de2:	6030      	str	r0, [r6, #0]
 8002de4:	2001      	movs	r0, #1
 8002de6:	7823      	ldrb	r3, [r4, #0]
 8002de8:	089b      	lsrs	r3, r3, #2
 8002dea:	4398      	bics	r0, r3
 8002dec:	e7e7      	b.n	8002dbe <Button_Get_Status+0x72>
 8002dee:	46c0      	nop			; (mov r8, r8)
 8002df0:	20000051 	.word	0x20000051
 8002df4:	20000054 	.word	0x20000054

08002df8 <MX_GPIO_Init>:
 8002df8:	b5f0      	push	{r4, r5, r6, r7, lr}
 8002dfa:	b089      	sub	sp, #36	; 0x24
 8002dfc:	2214      	movs	r2, #20
 8002dfe:	2100      	movs	r1, #0
 8002e00:	a803      	add	r0, sp, #12
 8002e02:	f003 fa02 	bl	800620a <memset>
 8002e06:	2002      	movs	r0, #2
 8002e08:	2501      	movs	r5, #1
 8002e0a:	2480      	movs	r4, #128	; 0x80
 8002e0c:	26a0      	movs	r6, #160	; 0xa0
 8002e0e:	4b20      	ldr	r3, [pc, #128]	; (8002e90 <MX_GPIO_Init+0x98>)
 8002e10:	4f20      	ldr	r7, [pc, #128]	; (8002e94 <MX_GPIO_Init+0x9c>)
 8002e12:	6b59      	ldr	r1, [r3, #52]	; 0x34
 8002e14:	0224      	lsls	r4, r4, #8
 8002e16:	4301      	orrs	r1, r0
 8002e18:	6359      	str	r1, [r3, #52]	; 0x34
 8002e1a:	6b5a      	ldr	r2, [r3, #52]	; 0x34
 8002e1c:	05f6      	lsls	r6, r6, #23
 8002e1e:	4002      	ands	r2, r0
 8002e20:	9200      	str	r2, [sp, #0]
 8002e22:	9a00      	ldr	r2, [sp, #0]
 8002e24:	6b59      	ldr	r1, [r3, #52]	; 0x34
 8002e26:	1800      	adds	r0, r0, r0
 8002e28:	4301      	orrs	r1, r0
 8002e2a:	6359      	str	r1, [r3, #52]	; 0x34
 8002e2c:	6b5a      	ldr	r2, [r3, #52]	; 0x34
 8002e2e:	0021      	movs	r1, r4
 8002e30:	4002      	ands	r2, r0
 8002e32:	9201      	str	r2, [sp, #4]
 8002e34:	9a01      	ldr	r2, [sp, #4]
 8002e36:	6b5a      	ldr	r2, [r3, #52]	; 0x34
 8002e38:	0038      	movs	r0, r7
 8002e3a:	432a      	orrs	r2, r5
 8002e3c:	635a      	str	r2, [r3, #52]	; 0x34
 8002e3e:	6b5b      	ldr	r3, [r3, #52]	; 0x34
 8002e40:	2200      	movs	r2, #0
 8002e42:	402b      	ands	r3, r5
 8002e44:	9302      	str	r3, [sp, #8]
 8002e46:	9b02      	ldr	r3, [sp, #8]
 8002e48:	f000 fd52 	bl	80038f0 <HAL_GPIO_WritePin>
 8002e4c:	2200      	movs	r2, #0
 8002e4e:	0030      	movs	r0, r6
 8002e50:	2129      	movs	r1, #41	; 0x29
 8002e52:	f000 fd4d 	bl	80038f0 <HAL_GPIO_WritePin>
 8002e56:	9403      	str	r4, [sp, #12]
 8002e58:	2400      	movs	r4, #0
 8002e5a:	0038      	movs	r0, r7
 8002e5c:	a903      	add	r1, sp, #12
 8002e5e:	9504      	str	r5, [sp, #16]
 8002e60:	9405      	str	r4, [sp, #20]
 8002e62:	9406      	str	r4, [sp, #24]
 8002e64:	f000 fc90 	bl	8003788 <HAL_GPIO_Init>
 8002e68:	2329      	movs	r3, #41	; 0x29
 8002e6a:	0030      	movs	r0, r6
 8002e6c:	a903      	add	r1, sp, #12
 8002e6e:	9303      	str	r3, [sp, #12]
 8002e70:	9504      	str	r5, [sp, #16]
 8002e72:	9405      	str	r4, [sp, #20]
 8002e74:	9406      	str	r4, [sp, #24]
 8002e76:	f000 fc87 	bl	8003788 <HAL_GPIO_Init>
 8002e7a:	2380      	movs	r3, #128	; 0x80
 8002e7c:	0030      	movs	r0, r6
 8002e7e:	011b      	lsls	r3, r3, #4
 8002e80:	a903      	add	r1, sp, #12
 8002e82:	9303      	str	r3, [sp, #12]
 8002e84:	9404      	str	r4, [sp, #16]
 8002e86:	9405      	str	r4, [sp, #20]
 8002e88:	f000 fc7e 	bl	8003788 <HAL_GPIO_Init>
 8002e8c:	b009      	add	sp, #36	; 0x24
 8002e8e:	bdf0      	pop	{r4, r5, r6, r7, pc}
 8002e90:	40021000 	.word	0x40021000
 8002e94:	50000800 	.word	0x50000800

08002e98 <SystemClock_Config>:
 8002e98:	b510      	push	{r4, lr}
 8002e9a:	b092      	sub	sp, #72	; 0x48
 8002e9c:	2234      	movs	r2, #52	; 0x34
 8002e9e:	2100      	movs	r1, #0
 8002ea0:	a805      	add	r0, sp, #20
 8002ea2:	f003 f9b2 	bl	800620a <memset>
 8002ea6:	2210      	movs	r2, #16
 8002ea8:	2100      	movs	r1, #0
 8002eaa:	a801      	add	r0, sp, #4
 8002eac:	f003 f9ad 	bl	800620a <memset>
 8002eb0:	2080      	movs	r0, #128	; 0x80
 8002eb2:	0080      	lsls	r0, r0, #2
 8002eb4:	f000 fd22 	bl	80038fc <HAL_PWREx_ControlVoltageScaling>
 8002eb8:	2380      	movs	r3, #128	; 0x80
 8002eba:	005b      	lsls	r3, r3, #1
 8002ebc:	9308      	str	r3, [sp, #32]
 8002ebe:	2300      	movs	r3, #0
 8002ec0:	9309      	str	r3, [sp, #36]	; 0x24
 8002ec2:	930e      	str	r3, [sp, #56]	; 0x38
 8002ec4:	3308      	adds	r3, #8
 8002ec6:	930f      	str	r3, [sp, #60]	; 0x3c
 8002ec8:	2380      	movs	r3, #128	; 0x80
 8002eca:	029b      	lsls	r3, r3, #10
 8002ecc:	9310      	str	r3, [sp, #64]	; 0x40
 8002ece:	2380      	movs	r3, #128	; 0x80
 8002ed0:	2402      	movs	r4, #2
 8002ed2:	2240      	movs	r2, #64	; 0x40
 8002ed4:	059b      	lsls	r3, r3, #22
 8002ed6:	a805      	add	r0, sp, #20
 8002ed8:	9405      	str	r4, [sp, #20]
 8002eda:	920a      	str	r2, [sp, #40]	; 0x28
 8002edc:	940c      	str	r4, [sp, #48]	; 0x30
 8002ede:	940d      	str	r4, [sp, #52]	; 0x34
 8002ee0:	9311      	str	r3, [sp, #68]	; 0x44
 8002ee2:	f000 fd37 	bl	8003954 <HAL_RCC_OscConfig>
 8002ee6:	2800      	cmp	r0, #0
 8002ee8:	d001      	beq.n	8002eee <SystemClock_Config+0x56>
 8002eea:	b672      	cpsid	i
 8002eec:	e7fe      	b.n	8002eec <SystemClock_Config+0x54>
 8002eee:	2307      	movs	r3, #7
 8002ef0:	9003      	str	r0, [sp, #12]
 8002ef2:	9004      	str	r0, [sp, #16]
 8002ef4:	0021      	movs	r1, r4
 8002ef6:	a801      	add	r0, sp, #4
 8002ef8:	9301      	str	r3, [sp, #4]
 8002efa:	9402      	str	r4, [sp, #8]
 8002efc:	f000 ff88 	bl	8003e10 <HAL_RCC_ClockConfig>
 8002f00:	2800      	cmp	r0, #0
 8002f02:	d001      	beq.n	8002f08 <SystemClock_Config+0x70>
 8002f04:	b672      	cpsid	i
 8002f06:	e7fe      	b.n	8002f06 <SystemClock_Config+0x6e>
 8002f08:	b012      	add	sp, #72	; 0x48
 8002f0a:	bd10      	pop	{r4, pc}

08002f0c <Change_Position>:
 8002f0c:	b570      	push	{r4, r5, r6, lr}
 8002f0e:	0004      	movs	r4, r0
 8002f10:	000d      	movs	r5, r1
 8002f12:	f7ff ff05 	bl	8002d20 <Encoder_Get_Status>
 8002f16:	1c43      	adds	r3, r0, #1
 8002f18:	d00b      	beq.n	8002f32 <Change_Position+0x26>
 8002f1a:	2801      	cmp	r0, #1
 8002f1c:	d105      	bne.n	8002f2a <Change_Position+0x1e>
 8002f1e:	7823      	ldrb	r3, [r4, #0]
 8002f20:	3b01      	subs	r3, #1
 8002f22:	b25a      	sxtb	r2, r3
 8002f24:	061b      	lsls	r3, r3, #24
 8002f26:	d401      	bmi.n	8002f2c <Change_Position+0x20>
 8002f28:	7022      	strb	r2, [r4, #0]
 8002f2a:	bd70      	pop	{r4, r5, r6, pc}
 8002f2c:	3d01      	subs	r5, #1
 8002f2e:	7025      	strb	r5, [r4, #0]
 8002f30:	e7fb      	b.n	8002f2a <Change_Position+0x1e>
 8002f32:	7823      	ldrb	r3, [r4, #0]
 8002f34:	3301      	adds	r3, #1
 8002f36:	b25b      	sxtb	r3, r3
 8002f38:	42ab      	cmp	r3, r5
 8002f3a:	da01      	bge.n	8002f40 <Change_Position+0x34>
 8002f3c:	7023      	strb	r3, [r4, #0]
 8002f3e:	e7f4      	b.n	8002f2a <Change_Position+0x1e>
 8002f40:	2300      	movs	r3, #0
 8002f42:	e7fb      	b.n	8002f3c <Change_Position+0x30>

08002f44 <int_pow>:
 8002f44:	0003      	movs	r3, r0
 8002f46:	2001      	movs	r0, #1
 8002f48:	0002      	movs	r2, r0
 8002f4a:	2900      	cmp	r1, #0
 8002f4c:	d100      	bne.n	8002f50 <int_pow+0xc>
 8002f4e:	4770      	bx	lr
 8002f50:	4211      	tst	r1, r2
 8002f52:	d000      	beq.n	8002f56 <int_pow+0x12>
 8002f54:	4358      	muls	r0, r3
 8002f56:	435b      	muls	r3, r3
 8002f58:	0849      	lsrs	r1, r1, #1
 8002f5a:	e7f6      	b.n	8002f4a <int_pow+0x6>

08002f5c <Edit_Frequency>:
 8002f5c:	b5f8      	push	{r3, r4, r5, r6, r7, lr}
 8002f5e:	000e      	movs	r6, r1
 8002f60:	b2c1      	uxtb	r1, r0
 8002f62:	200a      	movs	r0, #10
 8002f64:	f7ff ffee 	bl	8002f44 <int_pow>
 8002f68:	6837      	ldr	r7, [r6, #0]
 8002f6a:	0001      	movs	r1, r0
 8002f6c:	0004      	movs	r4, r0
 8002f6e:	0038      	movs	r0, r7
 8002f70:	f7fd f8d0 	bl	8000114 <__udivsi3>
 8002f74:	0005      	movs	r5, r0
 8002f76:	f7ff fed3 	bl	8002d20 <Encoder_Get_Status>
 8002f7a:	1c43      	adds	r3, r0, #1
 8002f7c:	d00e      	beq.n	8002f9c <Edit_Frequency+0x40>
 8002f7e:	3801      	subs	r0, #1
 8002f80:	4243      	negs	r3, r0
 8002f82:	4158      	adcs	r0, r3
 8002f84:	182d      	adds	r5, r5, r0
 8002f86:	0021      	movs	r1, r4
 8002f88:	6830      	ldr	r0, [r6, #0]
 8002f8a:	f7fd f949 	bl	8000220 <__aeabi_uidivmod>
 8002f8e:	436c      	muls	r4, r5
 8002f90:	4b05      	ldr	r3, [pc, #20]	; (8002fa8 <Edit_Frequency+0x4c>)
 8002f92:	190c      	adds	r4, r1, r4
 8002f94:	429c      	cmp	r4, r3
 8002f96:	d800      	bhi.n	8002f9a <Edit_Frequency+0x3e>
 8002f98:	6034      	str	r4, [r6, #0]
 8002f9a:	bdf8      	pop	{r3, r4, r5, r6, r7, pc}
 8002f9c:	2300      	movs	r3, #0
 8002f9e:	42a7      	cmp	r7, r4
 8002fa0:	415b      	adcs	r3, r3
 8002fa2:	1aed      	subs	r5, r5, r3
 8002fa4:	e7ef      	b.n	8002f86 <Edit_Frequency+0x2a>
 8002fa6:	46c0      	nop			; (mov r8, r8)
 8002fa8:	004c4b40 	.word	0x004c4b40

08002fac <main>:
 8002fac:	b5f0      	push	{r4, r5, r6, r7, lr}
 8002fae:	2500      	movs	r5, #0
 8002fb0:	b087      	sub	sp, #28
 8002fb2:	f000 fb6d 	bl	8003690 <HAL_Init>
 8002fb6:	f7ff ff6f 	bl	8002e98 <SystemClock_Config>
 8002fba:	f7ff ff1d 	bl	8002df8 <MX_GPIO_Init>
 8002fbe:	f000 f9c1 	bl	8003344 <MX_SPI1_Init>
 8002fc2:	f000 f9e5 	bl	8003390 <MX_SPI2_Init>
 8002fc6:	f000 fa93 	bl	80034f0 <MX_TIM1_Init>
 8002fca:	f001 fc1f 	bl	800480c <ST7735_Init>
 8002fce:	f7ff fe95 	bl	8002cfc <Encoder_Init>
 8002fd2:	4bbf      	ldr	r3, [pc, #764]	; (80032d0 <main+0x324>)
 8002fd4:	4cbf      	ldr	r4, [pc, #764]	; (80032d4 <main+0x328>)
 8002fd6:	6819      	ldr	r1, [r3, #0]
 8002fd8:	2200      	movs	r2, #0
 8002fda:	2002      	movs	r0, #2
 8002fdc:	f7ff fe72 	bl	8002cc4 <AD9833_Init>
 8002fe0:	2000      	movs	r0, #0
 8002fe2:	f001 fce7 	bl	80049b4 <ST7735_FillScreen>
 8002fe6:	2302      	movs	r3, #2
 8002fe8:	220c      	movs	r2, #12
 8002fea:	2146      	movs	r1, #70	; 0x46
 8002fec:	2019      	movs	r0, #25
 8002fee:	9400      	str	r4, [sp, #0]
 8002ff0:	f001 fcd5 	bl	800499e <ST7735_FillRectangle>
 8002ff4:	2302      	movs	r3, #2
 8002ff6:	2223      	movs	r2, #35	; 0x23
 8002ff8:	2146      	movs	r1, #70	; 0x46
 8002ffa:	2031      	movs	r0, #49	; 0x31
 8002ffc:	9400      	str	r4, [sp, #0]
 8002ffe:	f001 fcce 	bl	800499e <ST7735_FillRectangle>
 8003002:	2302      	movs	r3, #2
 8003004:	2223      	movs	r2, #35	; 0x23
 8003006:	2146      	movs	r1, #70	; 0x46
 8003008:	2061      	movs	r0, #97	; 0x61
 800300a:	9400      	str	r4, [sp, #0]
 800300c:	f001 fcc7 	bl	800499e <ST7735_FillRectangle>
 8003010:	4fb1      	ldr	r7, [pc, #708]	; (80032d8 <main+0x32c>)
 8003012:	9502      	str	r5, [sp, #8]
 8003014:	9401      	str	r4, [sp, #4]
 8003016:	687b      	ldr	r3, [r7, #4]
 8003018:	2104      	movs	r1, #4
 800301a:	9300      	str	r3, [sp, #0]
 800301c:	200a      	movs	r0, #10
 800301e:	683b      	ldr	r3, [r7, #0]
 8003020:	4aae      	ldr	r2, [pc, #696]	; (80032dc <main+0x330>)
 8003022:	f001 fc32 	bl	800488a <ST7735_WriteString>
 8003026:	9502      	str	r5, [sp, #8]
 8003028:	9401      	str	r4, [sp, #4]
 800302a:	687b      	ldr	r3, [r7, #4]
 800302c:	214b      	movs	r1, #75	; 0x4b
 800302e:	9300      	str	r3, [sp, #0]
 8003030:	683b      	ldr	r3, [r7, #0]
 8003032:	2015      	movs	r0, #21
 8003034:	4aaa      	ldr	r2, [pc, #680]	; (80032e0 <main+0x334>)
 8003036:	f001 fc28 	bl	800488a <ST7735_WriteString>
 800303a:	215c      	movs	r1, #92	; 0x5c
 800303c:	2012      	movs	r0, #18
 800303e:	4aa9      	ldr	r2, [pc, #676]	; (80032e4 <main+0x338>)
 8003040:	f001 ff96 	bl	8004f70 <SineIcon>
 8003044:	215c      	movs	r1, #92	; 0x5c
 8003046:	203f      	movs	r0, #63	; 0x3f
 8003048:	4aa7      	ldr	r2, [pc, #668]	; (80032e8 <main+0x33c>)
 800304a:	f001 feff 	bl	8004e4c <SquareIcon>
 800304e:	4aa6      	ldr	r2, [pc, #664]	; (80032e8 <main+0x33c>)
 8003050:	215c      	movs	r1, #92	; 0x5c
 8003052:	206c      	movs	r0, #108	; 0x6c
 8003054:	f001 ff41 	bl	8004eda <TriangleIcon>
 8003058:	4b9d      	ldr	r3, [pc, #628]	; (80032d0 <main+0x324>)
 800305a:	49a4      	ldr	r1, [pc, #656]	; (80032ec <main+0x340>)
 800305c:	681d      	ldr	r5, [r3, #0]
 800305e:	0028      	movs	r0, r5
 8003060:	f7fd f858 	bl	8000114 <__udivsi3>
 8003064:	21fa      	movs	r1, #250	; 0xfa
 8003066:	4ba2      	ldr	r3, [pc, #648]	; (80032f0 <main+0x344>)
 8003068:	9005      	str	r0, [sp, #20]
 800306a:	8018      	strh	r0, [r3, #0]
 800306c:	0089      	lsls	r1, r1, #2
 800306e:	0028      	movs	r0, r5
 8003070:	f7fd f850 	bl	8000114 <__udivsi3>
 8003074:	21fa      	movs	r1, #250	; 0xfa
 8003076:	0089      	lsls	r1, r1, #2
 8003078:	f7fd f8d2 	bl	8000220 <__aeabi_uidivmod>
 800307c:	4b9d      	ldr	r3, [pc, #628]	; (80032f4 <main+0x348>)
 800307e:	000e      	movs	r6, r1
 8003080:	8019      	strh	r1, [r3, #0]
 8003082:	21fa      	movs	r1, #250	; 0xfa
 8003084:	0028      	movs	r0, r5
 8003086:	0089      	lsls	r1, r1, #2
 8003088:	f7fd f8ca 	bl	8000220 <__aeabi_uidivmod>
 800308c:	4b9a      	ldr	r3, [pc, #616]	; (80032f8 <main+0x34c>)
 800308e:	9a05      	ldr	r2, [sp, #20]
 8003090:	8019      	strh	r1, [r3, #0]
 8003092:	489a      	ldr	r0, [pc, #616]	; (80032fc <main+0x350>)
 8003094:	9100      	str	r1, [sp, #0]
 8003096:	0033      	movs	r3, r6
 8003098:	4999      	ldr	r1, [pc, #612]	; (8003300 <main+0x354>)
 800309a:	f003 f875 	bl	8006188 <sprintf_>
 800309e:	9405      	str	r4, [sp, #20]
 80030a0:	f7ff fe54 	bl	8002d4c <Button_Get_Status>
 80030a4:	4b97      	ldr	r3, [pc, #604]	; (8003304 <main+0x358>)
 80030a6:	4d98      	ldr	r5, [pc, #608]	; (8003308 <main+0x35c>)
 80030a8:	781c      	ldrb	r4, [r3, #0]
 80030aa:	7028      	strb	r0, [r5, #0]
 80030ac:	2c01      	cmp	r4, #1
 80030ae:	d035      	beq.n	800311c <main+0x170>
 80030b0:	2c02      	cmp	r4, #2
 80030b2:	d100      	bne.n	80030b6 <main+0x10a>
 80030b4:	e094      	b.n	80031e0 <main+0x234>
 80030b6:	2c00      	cmp	r4, #0
 80030b8:	d1f2      	bne.n	80030a0 <main+0xf4>
 80030ba:	4a94      	ldr	r2, [pc, #592]	; (800330c <main+0x360>)
 80030bc:	4b94      	ldr	r3, [pc, #592]	; (8003310 <main+0x364>)
 80030be:	9402      	str	r4, [sp, #8]
 80030c0:	9201      	str	r2, [sp, #4]
 80030c2:	685a      	ldr	r2, [r3, #4]
 80030c4:	2132      	movs	r1, #50	; 0x32
 80030c6:	9200      	str	r2, [sp, #0]
 80030c8:	681b      	ldr	r3, [r3, #0]
 80030ca:	2019      	movs	r0, #25
 80030cc:	4a8b      	ldr	r2, [pc, #556]	; (80032fc <main+0x350>)
 80030ce:	f001 fbdc 	bl	800488a <ST7735_WriteString>
 80030d2:	f000 fafd 	bl	80036d0 <HAL_GetTick>
 80030d6:	4b8f      	ldr	r3, [pc, #572]	; (8003314 <main+0x368>)
 80030d8:	681b      	ldr	r3, [r3, #0]
 80030da:	1ac0      	subs	r0, r0, r3
 80030dc:	23fa      	movs	r3, #250	; 0xfa
 80030de:	009b      	lsls	r3, r3, #2
 80030e0:	4298      	cmp	r0, r3
 80030e2:	d90f      	bls.n	8003104 <main+0x158>
 80030e4:	4d8c      	ldr	r5, [pc, #560]	; (8003318 <main+0x36c>)
 80030e6:	782b      	ldrb	r3, [r5, #0]
 80030e8:	2b00      	cmp	r3, #0
 80030ea:	d00b      	beq.n	8003104 <main+0x158>
 80030ec:	211e      	movs	r1, #30
 80030ee:	9b05      	ldr	r3, [sp, #20]
 80030f0:	9402      	str	r4, [sp, #8]
 80030f2:	9301      	str	r3, [sp, #4]
 80030f4:	687b      	ldr	r3, [r7, #4]
 80030f6:	0008      	movs	r0, r1
 80030f8:	9300      	str	r3, [sp, #0]
 80030fa:	683b      	ldr	r3, [r7, #0]
 80030fc:	4a87      	ldr	r2, [pc, #540]	; (800331c <main+0x370>)
 80030fe:	f001 fbc4 	bl	800488a <ST7735_WriteString>
 8003102:	702c      	strb	r4, [r5, #0]
 8003104:	4b80      	ldr	r3, [pc, #512]	; (8003308 <main+0x35c>)
 8003106:	781a      	ldrb	r2, [r3, #0]
 8003108:	4b7e      	ldr	r3, [pc, #504]	; (8003304 <main+0x358>)
 800310a:	2a01      	cmp	r2, #1
 800310c:	d102      	bne.n	8003114 <main+0x168>
 800310e:	3201      	adds	r2, #1
 8003110:	701a      	strb	r2, [r3, #0]
 8003112:	e7c5      	b.n	80030a0 <main+0xf4>
 8003114:	2a02      	cmp	r2, #2
 8003116:	d1c3      	bne.n	80030a0 <main+0xf4>
 8003118:	3a01      	subs	r2, #1
 800311a:	e7f9      	b.n	8003110 <main+0x164>
 800311c:	2400      	movs	r4, #0
 800311e:	211e      	movs	r1, #30
 8003120:	9b05      	ldr	r3, [sp, #20]
 8003122:	9402      	str	r4, [sp, #8]
 8003124:	9301      	str	r3, [sp, #4]
 8003126:	687b      	ldr	r3, [r7, #4]
 8003128:	0008      	movs	r0, r1
 800312a:	9300      	str	r3, [sp, #0]
 800312c:	683b      	ldr	r3, [r7, #0]
 800312e:	4a7c      	ldr	r2, [pc, #496]	; (8003320 <main+0x374>)
 8003130:	f001 fbab 	bl	800488a <ST7735_WriteString>
 8003134:	4a75      	ldr	r2, [pc, #468]	; (800330c <main+0x360>)
 8003136:	4b76      	ldr	r3, [pc, #472]	; (8003310 <main+0x364>)
 8003138:	9402      	str	r4, [sp, #8]
 800313a:	9201      	str	r2, [sp, #4]
 800313c:	685a      	ldr	r2, [r3, #4]
 800313e:	2132      	movs	r1, #50	; 0x32
 8003140:	9200      	str	r2, [sp, #0]
 8003142:	681b      	ldr	r3, [r3, #0]
 8003144:	2019      	movs	r0, #25
 8003146:	4a6d      	ldr	r2, [pc, #436]	; (80032fc <main+0x350>)
 8003148:	f001 fb9f 	bl	800488a <ST7735_WriteString>
 800314c:	4c75      	ldr	r4, [pc, #468]	; (8003324 <main+0x378>)
 800314e:	2103      	movs	r1, #3
 8003150:	0020      	movs	r0, r4
 8003152:	f7ff fedb 	bl	8002f0c <Change_Position>
 8003156:	2300      	movs	r3, #0
 8003158:	56e3      	ldrsb	r3, [r4, r3]
 800315a:	2b02      	cmp	r3, #2
 800315c:	d129      	bne.n	80031b2 <main+0x206>
 800315e:	4a61      	ldr	r2, [pc, #388]	; (80032e4 <main+0x338>)
 8003160:	215c      	movs	r1, #92	; 0x5c
 8003162:	2012      	movs	r0, #18
 8003164:	f001 ff04 	bl	8004f70 <SineIcon>
 8003168:	4a5f      	ldr	r2, [pc, #380]	; (80032e8 <main+0x33c>)
 800316a:	215c      	movs	r1, #92	; 0x5c
 800316c:	203f      	movs	r0, #63	; 0x3f
 800316e:	f001 fe6d 	bl	8004e4c <SquareIcon>
 8003172:	4a5d      	ldr	r2, [pc, #372]	; (80032e8 <main+0x33c>)
 8003174:	215c      	movs	r1, #92	; 0x5c
 8003176:	206c      	movs	r0, #108	; 0x6c
 8003178:	f001 feaf 	bl	8004eda <TriangleIcon>
 800317c:	782d      	ldrb	r5, [r5, #0]
 800317e:	2d01      	cmp	r5, #1
 8003180:	d18e      	bne.n	80030a0 <main+0xf4>
 8003182:	7820      	ldrb	r0, [r4, #0]
 8003184:	f7ff fd4c 	bl	8002c20 <AD9833_SetWaveform>
 8003188:	2300      	movs	r3, #0
 800318a:	211e      	movs	r1, #30
 800318c:	4a5d      	ldr	r2, [pc, #372]	; (8003304 <main+0x358>)
 800318e:	0008      	movs	r0, r1
 8003190:	7013      	strb	r3, [r2, #0]
 8003192:	9302      	str	r3, [sp, #8]
 8003194:	9b05      	ldr	r3, [sp, #20]
 8003196:	4a64      	ldr	r2, [pc, #400]	; (8003328 <main+0x37c>)
 8003198:	9301      	str	r3, [sp, #4]
 800319a:	687b      	ldr	r3, [r7, #4]
 800319c:	9300      	str	r3, [sp, #0]
 800319e:	683b      	ldr	r3, [r7, #0]
 80031a0:	f001 fb73 	bl	800488a <ST7735_WriteString>
 80031a4:	4b5c      	ldr	r3, [pc, #368]	; (8003318 <main+0x36c>)
 80031a6:	701d      	strb	r5, [r3, #0]
 80031a8:	f000 fa92 	bl	80036d0 <HAL_GetTick>
 80031ac:	4b59      	ldr	r3, [pc, #356]	; (8003314 <main+0x368>)
 80031ae:	6018      	str	r0, [r3, #0]
 80031b0:	e776      	b.n	80030a0 <main+0xf4>
 80031b2:	2b01      	cmp	r3, #1
 80031b4:	d106      	bne.n	80031c4 <main+0x218>
 80031b6:	4a4c      	ldr	r2, [pc, #304]	; (80032e8 <main+0x33c>)
 80031b8:	215c      	movs	r1, #92	; 0x5c
 80031ba:	2012      	movs	r0, #18
 80031bc:	f001 fed8 	bl	8004f70 <SineIcon>
 80031c0:	4a48      	ldr	r2, [pc, #288]	; (80032e4 <main+0x338>)
 80031c2:	e7d2      	b.n	800316a <main+0x1be>
 80031c4:	2b00      	cmp	r3, #0
 80031c6:	d1d9      	bne.n	800317c <main+0x1d0>
 80031c8:	215c      	movs	r1, #92	; 0x5c
 80031ca:	2012      	movs	r0, #18
 80031cc:	4a46      	ldr	r2, [pc, #280]	; (80032e8 <main+0x33c>)
 80031ce:	f001 fecf 	bl	8004f70 <SineIcon>
 80031d2:	4a45      	ldr	r2, [pc, #276]	; (80032e8 <main+0x33c>)
 80031d4:	215c      	movs	r1, #92	; 0x5c
 80031d6:	203f      	movs	r0, #63	; 0x3f
 80031d8:	f001 fe38 	bl	8004e4c <SquareIcon>
 80031dc:	4a41      	ldr	r2, [pc, #260]	; (80032e4 <main+0x338>)
 80031de:	e7c9      	b.n	8003174 <main+0x1c8>
 80031e0:	2300      	movs	r3, #0
 80031e2:	211e      	movs	r1, #30
 80031e4:	9302      	str	r3, [sp, #8]
 80031e6:	9b05      	ldr	r3, [sp, #20]
 80031e8:	0008      	movs	r0, r1
 80031ea:	9301      	str	r3, [sp, #4]
 80031ec:	687b      	ldr	r3, [r7, #4]
 80031ee:	4a4f      	ldr	r2, [pc, #316]	; (800332c <main+0x380>)
 80031f0:	9300      	str	r3, [sp, #0]
 80031f2:	683b      	ldr	r3, [r7, #0]
 80031f4:	f001 fb49 	bl	800488a <ST7735_WriteString>
 80031f8:	4b4d      	ldr	r3, [pc, #308]	; (8003330 <main+0x384>)
 80031fa:	484e      	ldr	r0, [pc, #312]	; (8003334 <main+0x388>)
 80031fc:	781b      	ldrb	r3, [r3, #0]
 80031fe:	2b00      	cmp	r3, #0
 8003200:	d043      	beq.n	800328a <main+0x2de>
 8003202:	7800      	ldrb	r0, [r0, #0]
 8003204:	4932      	ldr	r1, [pc, #200]	; (80032d0 <main+0x324>)
 8003206:	b240      	sxtb	r0, r0
 8003208:	f7ff fea8 	bl	8002f5c <Edit_Frequency>
 800320c:	4b30      	ldr	r3, [pc, #192]	; (80032d0 <main+0x324>)
 800320e:	4937      	ldr	r1, [pc, #220]	; (80032ec <main+0x340>)
 8003210:	681e      	ldr	r6, [r3, #0]
 8003212:	0030      	movs	r0, r6
 8003214:	f7fc ff7e 	bl	8000114 <__udivsi3>
 8003218:	21fa      	movs	r1, #250	; 0xfa
 800321a:	4b35      	ldr	r3, [pc, #212]	; (80032f0 <main+0x344>)
 800321c:	0004      	movs	r4, r0
 800321e:	8018      	strh	r0, [r3, #0]
 8003220:	0089      	lsls	r1, r1, #2
 8003222:	0030      	movs	r0, r6
 8003224:	f7fc ff76 	bl	8000114 <__udivsi3>
 8003228:	21fa      	movs	r1, #250	; 0xfa
 800322a:	0089      	lsls	r1, r1, #2
 800322c:	f7fc fff8 	bl	8000220 <__aeabi_uidivmod>
 8003230:	4b30      	ldr	r3, [pc, #192]	; (80032f4 <main+0x348>)
 8003232:	000d      	movs	r5, r1
 8003234:	8019      	strh	r1, [r3, #0]
 8003236:	21fa      	movs	r1, #250	; 0xfa
 8003238:	0030      	movs	r0, r6
 800323a:	0089      	lsls	r1, r1, #2
 800323c:	f7fc fff0 	bl	8000220 <__aeabi_uidivmod>
 8003240:	4b2d      	ldr	r3, [pc, #180]	; (80032f8 <main+0x34c>)
 8003242:	4e2e      	ldr	r6, [pc, #184]	; (80032fc <main+0x350>)
 8003244:	8019      	strh	r1, [r3, #0]
 8003246:	0022      	movs	r2, r4
 8003248:	002b      	movs	r3, r5
 800324a:	9100      	str	r1, [sp, #0]
 800324c:	0030      	movs	r0, r6
 800324e:	492c      	ldr	r1, [pc, #176]	; (8003300 <main+0x354>)
 8003250:	f002 ff9a 	bl	8006188 <sprintf_>
 8003254:	2208      	movs	r2, #8
 8003256:	4938      	ldr	r1, [pc, #224]	; (8003338 <main+0x38c>)
 8003258:	a802      	add	r0, sp, #8
 800325a:	4c2d      	ldr	r4, [pc, #180]	; (8003310 <main+0x364>)
 800325c:	f002 ffcc 	bl	80061f8 <memcpy>
 8003260:	4b34      	ldr	r3, [pc, #208]	; (8003334 <main+0x388>)
 8003262:	0032      	movs	r2, r6
 8003264:	781b      	ldrb	r3, [r3, #0]
 8003266:	2132      	movs	r1, #50	; 0x32
 8003268:	9301      	str	r3, [sp, #4]
 800326a:	6863      	ldr	r3, [r4, #4]
 800326c:	2019      	movs	r0, #25
 800326e:	9300      	str	r3, [sp, #0]
 8003270:	6823      	ldr	r3, [r4, #0]
 8003272:	f001 fb44 	bl	80048fe <ST7735_WriteStringWithSelect>
 8003276:	4b24      	ldr	r3, [pc, #144]	; (8003308 <main+0x35c>)
 8003278:	781b      	ldrb	r3, [r3, #0]
 800327a:	2b01      	cmp	r3, #1
 800327c:	d109      	bne.n	8003292 <main+0x2e6>
 800327e:	4a2c      	ldr	r2, [pc, #176]	; (8003330 <main+0x384>)
 8003280:	7813      	ldrb	r3, [r2, #0]
 8003282:	4259      	negs	r1, r3
 8003284:	414b      	adcs	r3, r1
 8003286:	7013      	strb	r3, [r2, #0]
 8003288:	e70a      	b.n	80030a0 <main+0xf4>
 800328a:	2107      	movs	r1, #7
 800328c:	f7ff fe3e 	bl	8002f0c <Change_Position>
 8003290:	e7bc      	b.n	800320c <main+0x260>
 8003292:	2b02      	cmp	r3, #2
 8003294:	d000      	beq.n	8003298 <main+0x2ec>
 8003296:	e703      	b.n	80030a0 <main+0xf4>
 8003298:	2400      	movs	r4, #0
 800329a:	4b0d      	ldr	r3, [pc, #52]	; (80032d0 <main+0x324>)
 800329c:	6818      	ldr	r0, [r3, #0]
 800329e:	f7ff fcd5 	bl	8002c4c <AD9833_SetFrequency>
 80032a2:	211e      	movs	r1, #30
 80032a4:	9b05      	ldr	r3, [sp, #20]
 80032a6:	9402      	str	r4, [sp, #8]
 80032a8:	9301      	str	r3, [sp, #4]
 80032aa:	687b      	ldr	r3, [r7, #4]
 80032ac:	0008      	movs	r0, r1
 80032ae:	9300      	str	r3, [sp, #0]
 80032b0:	683b      	ldr	r3, [r7, #0]
 80032b2:	4a22      	ldr	r2, [pc, #136]	; (800333c <main+0x390>)
 80032b4:	f001 fae9 	bl	800488a <ST7735_WriteString>
 80032b8:	2201      	movs	r2, #1
 80032ba:	4b17      	ldr	r3, [pc, #92]	; (8003318 <main+0x36c>)
 80032bc:	701a      	strb	r2, [r3, #0]
 80032be:	f000 fa07 	bl	80036d0 <HAL_GetTick>
 80032c2:	4b14      	ldr	r3, [pc, #80]	; (8003314 <main+0x368>)
 80032c4:	6018      	str	r0, [r3, #0]
 80032c6:	4b0f      	ldr	r3, [pc, #60]	; (8003304 <main+0x358>)
 80032c8:	701c      	strb	r4, [r3, #0]
 80032ca:	4b19      	ldr	r3, [pc, #100]	; (8003330 <main+0x384>)
 80032cc:	701c      	strb	r4, [r3, #0]
 80032ce:	e6e7      	b.n	80030a0 <main+0xf4>
 80032d0:	20000004 	.word	0x20000004
 80032d4:	00007bef 	.word	0x00007bef
 80032d8:	20000028 	.word	0x20000028
 80032dc:	080062f8 	.word	0x080062f8
 80032e0:	0800630d 	.word	0x0800630d
 80032e4:	0000ffe0 	.word	0x0000ffe0
 80032e8:	0000c618 	.word	0x0000c618
 80032ec:	000f4240 	.word	0x000f4240
 80032f0:	20000062 	.word	0x20000062
 80032f4:	20000068 	.word	0x20000068
 80032f8:	20000064 	.word	0x20000064
 80032fc:	2000006a 	.word	0x2000006a
 8003300:	0800631c 	.word	0x0800631c
 8003304:	2000005a 	.word	0x2000005a
 8003308:	20000067 	.word	0x20000067
 800330c:	0000ffff 	.word	0x0000ffff
 8003310:	20000020 	.word	0x20000020
 8003314:	2000005c 	.word	0x2000005c
 8003318:	20000060 	.word	0x20000060
 800331c:	0800632a 	.word	0x0800632a
 8003320:	0800633a 	.word	0x0800633a
 8003324:	20000010 	.word	0x20000010
 8003328:	0800634a 	.word	0x0800634a
 800332c:	0800635a 	.word	0x0800635a
 8003330:	20000061 	.word	0x20000061
 8003334:	20000000 	.word	0x20000000
 8003338:	20000008 	.word	0x20000008
 800333c:	0800636a 	.word	0x0800636a

08003340 <Error_Handler>:
 8003340:	b672      	cpsid	i
 8003342:	e7fe      	b.n	8003342 <Error_Handler+0x2>

08003344 <MX_SPI1_Init>:
 8003344:	4810      	ldr	r0, [pc, #64]	; (8003388 <MX_SPI1_Init+0x44>)
 8003346:	4b11      	ldr	r3, [pc, #68]	; (800338c <MX_SPI1_Init+0x48>)
 8003348:	22e0      	movs	r2, #224	; 0xe0
 800334a:	b510      	push	{r4, lr}
 800334c:	6003      	str	r3, [r0, #0]
 800334e:	2382      	movs	r3, #130	; 0x82
 8003350:	00d2      	lsls	r2, r2, #3
 8003352:	60c2      	str	r2, [r0, #12]
 8003354:	2280      	movs	r2, #128	; 0x80
 8003356:	005b      	lsls	r3, r3, #1
 8003358:	6043      	str	r3, [r0, #4]
 800335a:	2300      	movs	r3, #0
 800335c:	0092      	lsls	r2, r2, #2
 800335e:	6182      	str	r2, [r0, #24]
 8003360:	3afa      	subs	r2, #250	; 0xfa
 8003362:	6083      	str	r3, [r0, #8]
 8003364:	6103      	str	r3, [r0, #16]
 8003366:	6143      	str	r3, [r0, #20]
 8003368:	61c3      	str	r3, [r0, #28]
 800336a:	6203      	str	r3, [r0, #32]
 800336c:	6243      	str	r3, [r0, #36]	; 0x24
 800336e:	6283      	str	r3, [r0, #40]	; 0x28
 8003370:	3aff      	subs	r2, #255	; 0xff
 8003372:	6303      	str	r3, [r0, #48]	; 0x30
 8003374:	3308      	adds	r3, #8
 8003376:	62c2      	str	r2, [r0, #44]	; 0x2c
 8003378:	6343      	str	r3, [r0, #52]	; 0x34
 800337a:	f000 fee3 	bl	8004144 <HAL_SPI_Init>
 800337e:	2800      	cmp	r0, #0
 8003380:	d001      	beq.n	8003386 <MX_SPI1_Init+0x42>
 8003382:	f7ff ffdd 	bl	8003340 <Error_Handler>
 8003386:	bd10      	pop	{r4, pc}
 8003388:	200000d8 	.word	0x200000d8
 800338c:	40013000 	.word	0x40013000

08003390 <MX_SPI2_Init>:
 8003390:	22e0      	movs	r2, #224	; 0xe0
 8003392:	4811      	ldr	r0, [pc, #68]	; (80033d8 <MX_SPI2_Init+0x48>)
 8003394:	4b11      	ldr	r3, [pc, #68]	; (80033dc <MX_SPI2_Init+0x4c>)
 8003396:	b510      	push	{r4, lr}
 8003398:	6003      	str	r3, [r0, #0]
 800339a:	2382      	movs	r3, #130	; 0x82
 800339c:	00d2      	lsls	r2, r2, #3
 800339e:	60c2      	str	r2, [r0, #12]
 80033a0:	2202      	movs	r2, #2
 80033a2:	005b      	lsls	r3, r3, #1
 80033a4:	6043      	str	r3, [r0, #4]
 80033a6:	2300      	movs	r3, #0
 80033a8:	6102      	str	r2, [r0, #16]
 80033aa:	32ff      	adds	r2, #255	; 0xff
 80033ac:	32ff      	adds	r2, #255	; 0xff
 80033ae:	6182      	str	r2, [r0, #24]
 80033b0:	3afa      	subs	r2, #250	; 0xfa
 80033b2:	6083      	str	r3, [r0, #8]
 80033b4:	6143      	str	r3, [r0, #20]
 80033b6:	61c3      	str	r3, [r0, #28]
 80033b8:	6203      	str	r3, [r0, #32]
 80033ba:	6243      	str	r3, [r0, #36]	; 0x24
 80033bc:	6283      	str	r3, [r0, #40]	; 0x28
 80033be:	3aff      	subs	r2, #255	; 0xff
 80033c0:	6303      	str	r3, [r0, #48]	; 0x30
 80033c2:	3308      	adds	r3, #8
 80033c4:	62c2      	str	r2, [r0, #44]	; 0x2c
 80033c6:	6343      	str	r3, [r0, #52]	; 0x34
 80033c8:	f000 febc 	bl	8004144 <HAL_SPI_Init>
 80033cc:	2800      	cmp	r0, #0
 80033ce:	d001      	beq.n	80033d4 <MX_SPI2_Init+0x44>
 80033d0:	f7ff ffb6 	bl	8003340 <Error_Handler>
 80033d4:	bd10      	pop	{r4, pc}
 80033d6:	46c0      	nop			; (mov r8, r8)
 80033d8:	20000074 	.word	0x20000074
 80033dc:	40003800 	.word	0x40003800

080033e0 <HAL_SPI_MspInit>:
 80033e0:	b570      	push	{r4, r5, r6, lr}
 80033e2:	0004      	movs	r4, r0
 80033e4:	b08a      	sub	sp, #40	; 0x28
 80033e6:	2214      	movs	r2, #20
 80033e8:	2100      	movs	r1, #0
 80033ea:	a805      	add	r0, sp, #20
 80033ec:	f002 ff0d 	bl	800620a <memset>
 80033f0:	6823      	ldr	r3, [r4, #0]
 80033f2:	4a2a      	ldr	r2, [pc, #168]	; (800349c <HAL_SPI_MspInit+0xbc>)
 80033f4:	4293      	cmp	r3, r2
 80033f6:	d120      	bne.n	800343a <HAL_SPI_MspInit+0x5a>
 80033f8:	2080      	movs	r0, #128	; 0x80
 80033fa:	4b29      	ldr	r3, [pc, #164]	; (80034a0 <HAL_SPI_MspInit+0xc0>)
 80033fc:	0140      	lsls	r0, r0, #5
 80033fe:	6c19      	ldr	r1, [r3, #64]	; 0x40
 8003400:	4301      	orrs	r1, r0
 8003402:	6419      	str	r1, [r3, #64]	; 0x40
 8003404:	2101      	movs	r1, #1
 8003406:	6c1a      	ldr	r2, [r3, #64]	; 0x40
 8003408:	4002      	ands	r2, r0
 800340a:	9200      	str	r2, [sp, #0]
 800340c:	9a00      	ldr	r2, [sp, #0]
 800340e:	6b5a      	ldr	r2, [r3, #52]	; 0x34
 8003410:	430a      	orrs	r2, r1
 8003412:	635a      	str	r2, [r3, #52]	; 0x34
 8003414:	6b5b      	ldr	r3, [r3, #52]	; 0x34
 8003416:	2202      	movs	r2, #2
 8003418:	400b      	ands	r3, r1
 800341a:	9301      	str	r3, [sp, #4]
 800341c:	9b01      	ldr	r3, [sp, #4]
 800341e:	2306      	movs	r3, #6
 8003420:	9305      	str	r3, [sp, #20]
 8003422:	2300      	movs	r3, #0
 8003424:	9206      	str	r2, [sp, #24]
 8003426:	9307      	str	r3, [sp, #28]
 8003428:	9208      	str	r2, [sp, #32]
 800342a:	9309      	str	r3, [sp, #36]	; 0x24
 800342c:	20a0      	movs	r0, #160	; 0xa0
 800342e:	a905      	add	r1, sp, #20
 8003430:	05c0      	lsls	r0, r0, #23
 8003432:	f000 f9a9 	bl	8003788 <HAL_GPIO_Init>
 8003436:	b00a      	add	sp, #40	; 0x28
 8003438:	bd70      	pop	{r4, r5, r6, pc}
 800343a:	4a1a      	ldr	r2, [pc, #104]	; (80034a4 <HAL_SPI_MspInit+0xc4>)
 800343c:	4293      	cmp	r3, r2
 800343e:	d1fa      	bne.n	8003436 <HAL_SPI_MspInit+0x56>
 8003440:	2080      	movs	r0, #128	; 0x80
 8003442:	2602      	movs	r6, #2
 8003444:	2401      	movs	r4, #1
 8003446:	4b16      	ldr	r3, [pc, #88]	; (80034a0 <HAL_SPI_MspInit+0xc0>)
 8003448:	01c0      	lsls	r0, r0, #7
 800344a:	6bd9      	ldr	r1, [r3, #60]	; 0x3c
 800344c:	2500      	movs	r5, #0
 800344e:	4301      	orrs	r1, r0
 8003450:	63d9      	str	r1, [r3, #60]	; 0x3c
 8003452:	6bda      	ldr	r2, [r3, #60]	; 0x3c
 8003454:	a905      	add	r1, sp, #20
 8003456:	4002      	ands	r2, r0
 8003458:	9202      	str	r2, [sp, #8]
 800345a:	9a02      	ldr	r2, [sp, #8]
 800345c:	6b5a      	ldr	r2, [r3, #52]	; 0x34
 800345e:	4812      	ldr	r0, [pc, #72]	; (80034a8 <HAL_SPI_MspInit+0xc8>)
 8003460:	4332      	orrs	r2, r6
 8003462:	635a      	str	r2, [r3, #52]	; 0x34
 8003464:	6b5a      	ldr	r2, [r3, #52]	; 0x34
 8003466:	4032      	ands	r2, r6
 8003468:	9203      	str	r2, [sp, #12]
 800346a:	9a03      	ldr	r2, [sp, #12]
 800346c:	6b5a      	ldr	r2, [r3, #52]	; 0x34
 800346e:	4322      	orrs	r2, r4
 8003470:	635a      	str	r2, [r3, #52]	; 0x34
 8003472:	6b5b      	ldr	r3, [r3, #52]	; 0x34
 8003474:	9606      	str	r6, [sp, #24]
 8003476:	4023      	ands	r3, r4
 8003478:	9304      	str	r3, [sp, #16]
 800347a:	9b04      	ldr	r3, [sp, #16]
 800347c:	2380      	movs	r3, #128	; 0x80
 800347e:	005b      	lsls	r3, r3, #1
 8003480:	9305      	str	r3, [sp, #20]
 8003482:	9507      	str	r5, [sp, #28]
 8003484:	9508      	str	r5, [sp, #32]
 8003486:	9409      	str	r4, [sp, #36]	; 0x24
 8003488:	f000 f97e 	bl	8003788 <HAL_GPIO_Init>
 800348c:	2310      	movs	r3, #16
 800348e:	9606      	str	r6, [sp, #24]
 8003490:	9305      	str	r3, [sp, #20]
 8003492:	9507      	str	r5, [sp, #28]
 8003494:	9508      	str	r5, [sp, #32]
 8003496:	9409      	str	r4, [sp, #36]	; 0x24
 8003498:	e7c8      	b.n	800342c <HAL_SPI_MspInit+0x4c>
 800349a:	46c0      	nop			; (mov r8, r8)
 800349c:	40013000 	.word	0x40013000
 80034a0:	40021000 	.word	0x40021000
 80034a4:	40003800 	.word	0x40003800
 80034a8:	50000400 	.word	0x50000400

080034ac <HAL_MspInit>:
 80034ac:	2001      	movs	r0, #1
 80034ae:	4b0a      	ldr	r3, [pc, #40]	; (80034d8 <HAL_MspInit+0x2c>)
 80034b0:	b082      	sub	sp, #8
 80034b2:	6c19      	ldr	r1, [r3, #64]	; 0x40
 80034b4:	4301      	orrs	r1, r0
 80034b6:	6419      	str	r1, [r3, #64]	; 0x40
 80034b8:	2180      	movs	r1, #128	; 0x80
 80034ba:	6c1a      	ldr	r2, [r3, #64]	; 0x40
 80034bc:	0549      	lsls	r1, r1, #21
 80034be:	4002      	ands	r2, r0
 80034c0:	9200      	str	r2, [sp, #0]
 80034c2:	9a00      	ldr	r2, [sp, #0]
 80034c4:	6bda      	ldr	r2, [r3, #60]	; 0x3c
 80034c6:	430a      	orrs	r2, r1
 80034c8:	63da      	str	r2, [r3, #60]	; 0x3c
 80034ca:	6bdb      	ldr	r3, [r3, #60]	; 0x3c
 80034cc:	400b      	ands	r3, r1
 80034ce:	9301      	str	r3, [sp, #4]
 80034d0:	9b01      	ldr	r3, [sp, #4]
 80034d2:	b002      	add	sp, #8
 80034d4:	4770      	bx	lr
 80034d6:	46c0      	nop			; (mov r8, r8)
 80034d8:	40021000 	.word	0x40021000

080034dc <NMI_Handler>:
 80034dc:	e7fe      	b.n	80034dc <NMI_Handler>

080034de <HardFault_Handler>:
 80034de:	e7fe      	b.n	80034de <HardFault_Handler>

080034e0 <SVC_Handler>:
 80034e0:	4770      	bx	lr

080034e2 <PendSV_Handler>:
 80034e2:	4770      	bx	lr

080034e4 <SysTick_Handler>:
 80034e4:	b510      	push	{r4, lr}
 80034e6:	f000 f8e7 	bl	80036b8 <HAL_IncTick>
 80034ea:	bd10      	pop	{r4, pc}

080034ec <SystemInit>:
 80034ec:	4770      	bx	lr
	...

080034f0 <MX_TIM1_Init>:
 80034f0:	b530      	push	{r4, r5, lr}
 80034f2:	b08d      	sub	sp, #52	; 0x34
 80034f4:	2100      	movs	r1, #0
 80034f6:	220c      	movs	r2, #12
 80034f8:	4668      	mov	r0, sp
 80034fa:	f002 fe86 	bl	800620a <memset>
 80034fe:	4d15      	ldr	r5, [pc, #84]	; (8003554 <MX_TIM1_Init+0x64>)
 8003500:	4b15      	ldr	r3, [pc, #84]	; (8003558 <MX_TIM1_Init+0x68>)
 8003502:	2400      	movs	r4, #0
 8003504:	602b      	str	r3, [r5, #0]
 8003506:	4b15      	ldr	r3, [pc, #84]	; (800355c <MX_TIM1_Init+0x6c>)
 8003508:	0028      	movs	r0, r5
 800350a:	60eb      	str	r3, [r5, #12]
 800350c:	2301      	movs	r3, #1
 800350e:	a903      	add	r1, sp, #12
 8003510:	606c      	str	r4, [r5, #4]
 8003512:	60ac      	str	r4, [r5, #8]
 8003514:	612c      	str	r4, [r5, #16]
 8003516:	616c      	str	r4, [r5, #20]
 8003518:	61ac      	str	r4, [r5, #24]
 800351a:	9303      	str	r3, [sp, #12]
 800351c:	9404      	str	r4, [sp, #16]
 800351e:	9305      	str	r3, [sp, #20]
 8003520:	9406      	str	r4, [sp, #24]
 8003522:	9407      	str	r4, [sp, #28]
 8003524:	9408      	str	r4, [sp, #32]
 8003526:	9309      	str	r3, [sp, #36]	; 0x24
 8003528:	940a      	str	r4, [sp, #40]	; 0x28
 800352a:	940b      	str	r4, [sp, #44]	; 0x2c
 800352c:	f000 ffe6 	bl	80044fc <HAL_TIM_Encoder_Init>
 8003530:	42a0      	cmp	r0, r4
 8003532:	d001      	beq.n	8003538 <MX_TIM1_Init+0x48>
 8003534:	f7ff ff04 	bl	8003340 <Error_Handler>
 8003538:	4669      	mov	r1, sp
 800353a:	0028      	movs	r0, r5
 800353c:	9400      	str	r4, [sp, #0]
 800353e:	9401      	str	r4, [sp, #4]
 8003540:	9402      	str	r4, [sp, #8]
 8003542:	f001 f831 	bl	80045a8 <HAL_TIMEx_MasterConfigSynchronization>
 8003546:	2800      	cmp	r0, #0
 8003548:	d001      	beq.n	800354e <MX_TIM1_Init+0x5e>
 800354a:	f7ff fef9 	bl	8003340 <Error_Handler>
 800354e:	b00d      	add	sp, #52	; 0x34
 8003550:	bd30      	pop	{r4, r5, pc}
 8003552:	46c0      	nop			; (mov r8, r8)
 8003554:	20000188 	.word	0x20000188
 8003558:	40012c00 	.word	0x40012c00
 800355c:	0000ffff 	.word	0x0000ffff

08003560 <HAL_TIM_Encoder_MspInit>:
 8003560:	b570      	push	{r4, r5, r6, lr}
 8003562:	0004      	movs	r4, r0
 8003564:	b088      	sub	sp, #32
 8003566:	2214      	movs	r2, #20
 8003568:	2100      	movs	r1, #0
 800356a:	a803      	add	r0, sp, #12
 800356c:	f002 fe4d 	bl	800620a <memset>
 8003570:	4b1b      	ldr	r3, [pc, #108]	; (80035e0 <HAL_TIM_Encoder_MspInit+0x80>)
 8003572:	6822      	ldr	r2, [r4, #0]
 8003574:	429a      	cmp	r2, r3
 8003576:	d130      	bne.n	80035da <HAL_TIM_Encoder_MspInit+0x7a>
 8003578:	2080      	movs	r0, #128	; 0x80
 800357a:	2601      	movs	r6, #1
 800357c:	2402      	movs	r4, #2
 800357e:	4b19      	ldr	r3, [pc, #100]	; (80035e4 <HAL_TIM_Encoder_MspInit+0x84>)
 8003580:	0100      	lsls	r0, r0, #4
 8003582:	6c19      	ldr	r1, [r3, #64]	; 0x40
 8003584:	2500      	movs	r5, #0
 8003586:	4301      	orrs	r1, r0
 8003588:	6419      	str	r1, [r3, #64]	; 0x40
 800358a:	6c1a      	ldr	r2, [r3, #64]	; 0x40
 800358c:	a903      	add	r1, sp, #12
 800358e:	4002      	ands	r2, r0
 8003590:	9200      	str	r2, [sp, #0]
 8003592:	9a00      	ldr	r2, [sp, #0]
 8003594:	6b5a      	ldr	r2, [r3, #52]	; 0x34
 8003596:	20a0      	movs	r0, #160	; 0xa0
 8003598:	4332      	orrs	r2, r6
 800359a:	635a      	str	r2, [r3, #52]	; 0x34
 800359c:	6b5a      	ldr	r2, [r3, #52]	; 0x34
 800359e:	05c0      	lsls	r0, r0, #23
 80035a0:	4032      	ands	r2, r6
 80035a2:	9201      	str	r2, [sp, #4]
 80035a4:	9a01      	ldr	r2, [sp, #4]
 80035a6:	6b5a      	ldr	r2, [r3, #52]	; 0x34
 80035a8:	4322      	orrs	r2, r4
 80035aa:	635a      	str	r2, [r3, #52]	; 0x34
 80035ac:	6b5b      	ldr	r3, [r3, #52]	; 0x34
 80035ae:	9404      	str	r4, [sp, #16]
 80035b0:	4023      	ands	r3, r4
 80035b2:	9302      	str	r3, [sp, #8]
 80035b4:	9b02      	ldr	r3, [sp, #8]
 80035b6:	2380      	movs	r3, #128	; 0x80
 80035b8:	005b      	lsls	r3, r3, #1
 80035ba:	9303      	str	r3, [sp, #12]
 80035bc:	9505      	str	r5, [sp, #20]
 80035be:	9506      	str	r5, [sp, #24]
 80035c0:	9407      	str	r4, [sp, #28]
 80035c2:	f000 f8e1 	bl	8003788 <HAL_GPIO_Init>
 80035c6:	2308      	movs	r3, #8
 80035c8:	4807      	ldr	r0, [pc, #28]	; (80035e8 <HAL_TIM_Encoder_MspInit+0x88>)
 80035ca:	a903      	add	r1, sp, #12
 80035cc:	9303      	str	r3, [sp, #12]
 80035ce:	9404      	str	r4, [sp, #16]
 80035d0:	9505      	str	r5, [sp, #20]
 80035d2:	9506      	str	r5, [sp, #24]
 80035d4:	9607      	str	r6, [sp, #28]
 80035d6:	f000 f8d7 	bl	8003788 <HAL_GPIO_Init>
 80035da:	b008      	add	sp, #32
 80035dc:	bd70      	pop	{r4, r5, r6, pc}
 80035de:	46c0      	nop			; (mov r8, r8)
 80035e0:	40012c00 	.word	0x40012c00
 80035e4:	40021000 	.word	0x40021000
 80035e8:	50000400 	.word	0x50000400

080035ec <Reset_Handler>:
 80035ec:	480d      	ldr	r0, [pc, #52]	; (8003624 <LoopForever+0x2>)
 80035ee:	4685      	mov	sp, r0
 80035f0:	f7ff ff7c 	bl	80034ec <SystemInit>
 80035f4:	480c      	ldr	r0, [pc, #48]	; (8003628 <LoopForever+0x6>)
 80035f6:	490d      	ldr	r1, [pc, #52]	; (800362c <LoopForever+0xa>)
 80035f8:	4a0d      	ldr	r2, [pc, #52]	; (8003630 <LoopForever+0xe>)
 80035fa:	2300      	movs	r3, #0
 80035fc:	e002      	b.n	8003604 <LoopCopyDataInit>

080035fe <CopyDataInit>:
 80035fe:	58d4      	ldr	r4, [r2, r3]
 8003600:	50c4      	str	r4, [r0, r3]
 8003602:	3304      	adds	r3, #4

08003604 <LoopCopyDataInit>:
 8003604:	18c4      	adds	r4, r0, r3
 8003606:	428c      	cmp	r4, r1
 8003608:	d3f9      	bcc.n	80035fe <CopyDataInit>
 800360a:	4a0a      	ldr	r2, [pc, #40]	; (8003634 <LoopForever+0x12>)
 800360c:	4c0a      	ldr	r4, [pc, #40]	; (8003638 <LoopForever+0x16>)
 800360e:	2300      	movs	r3, #0
 8003610:	e001      	b.n	8003616 <LoopFillZerobss>

08003612 <FillZerobss>:
 8003612:	6013      	str	r3, [r2, #0]
 8003614:	3204      	adds	r2, #4

08003616 <LoopFillZerobss>:
 8003616:	42a2      	cmp	r2, r4
 8003618:	d3fb      	bcc.n	8003612 <FillZerobss>
 800361a:	f002 fdc9 	bl	80061b0 <__libc_init_array>
 800361e:	f7ff fcc5 	bl	8002fac <main>

08003622 <LoopForever>:
 8003622:	e7fe      	b.n	8003622 <LoopForever>
 8003624:	20002000 	.word	0x20002000
 8003628:	20000000 	.word	0x20000000
 800362c:	20000030 	.word	0x20000030
 8003630:	08007970 	.word	0x08007970
 8003634:	20000030 	.word	0x20000030
 8003638:	200001d8 	.word	0x200001d8

0800363c <ADC1_IRQHandler>:
 800363c:	e7fe      	b.n	800363c <ADC1_IRQHandler>
	...

08003640 <HAL_InitTick>:
 8003640:	b570      	push	{r4, r5, r6, lr}
 8003642:	4b10      	ldr	r3, [pc, #64]	; (8003684 <HAL_InitTick+0x44>)
 8003644:	0005      	movs	r5, r0
 8003646:	7819      	ldrb	r1, [r3, #0]
 8003648:	2900      	cmp	r1, #0
 800364a:	d101      	bne.n	8003650 <HAL_InitTick+0x10>
 800364c:	2001      	movs	r0, #1
 800364e:	bd70      	pop	{r4, r5, r6, pc}
 8003650:	20fa      	movs	r0, #250	; 0xfa
 8003652:	0080      	lsls	r0, r0, #2
 8003654:	f7fc fd5e 	bl	8000114 <__udivsi3>
 8003658:	4b0b      	ldr	r3, [pc, #44]	; (8003688 <HAL_InitTick+0x48>)
 800365a:	0001      	movs	r1, r0
 800365c:	6818      	ldr	r0, [r3, #0]
 800365e:	f7fc fd59 	bl	8000114 <__udivsi3>
 8003662:	f000 f877 	bl	8003754 <HAL_SYSTICK_Config>
 8003666:	1e04      	subs	r4, r0, #0
 8003668:	d1f0      	bne.n	800364c <HAL_InitTick+0xc>
 800366a:	2d03      	cmp	r5, #3
 800366c:	d8ee      	bhi.n	800364c <HAL_InitTick+0xc>
 800366e:	0002      	movs	r2, r0
 8003670:	2001      	movs	r0, #1
 8003672:	0029      	movs	r1, r5
 8003674:	4240      	negs	r0, r0
 8003676:	f000 f843 	bl	8003700 <HAL_NVIC_SetPriority>
 800367a:	4b04      	ldr	r3, [pc, #16]	; (800368c <HAL_InitTick+0x4c>)
 800367c:	0020      	movs	r0, r4
 800367e:	601d      	str	r5, [r3, #0]
 8003680:	e7e5      	b.n	800364e <HAL_InitTick+0xe>
 8003682:	46c0      	nop			; (mov r8, r8)
 8003684:	20000018 	.word	0x20000018
 8003688:	20000014 	.word	0x20000014
 800368c:	2000001c 	.word	0x2000001c

08003690 <HAL_Init>:
 8003690:	2380      	movs	r3, #128	; 0x80
 8003692:	4a08      	ldr	r2, [pc, #32]	; (80036b4 <HAL_Init+0x24>)
 8003694:	005b      	lsls	r3, r3, #1
 8003696:	6811      	ldr	r1, [r2, #0]
 8003698:	b510      	push	{r4, lr}
 800369a:	430b      	orrs	r3, r1
 800369c:	2003      	movs	r0, #3
 800369e:	6013      	str	r3, [r2, #0]
 80036a0:	f7ff ffce 	bl	8003640 <HAL_InitTick>
 80036a4:	1e04      	subs	r4, r0, #0
 80036a6:	d103      	bne.n	80036b0 <HAL_Init+0x20>
 80036a8:	f7ff ff00 	bl	80034ac <HAL_MspInit>
 80036ac:	0020      	movs	r0, r4
 80036ae:	bd10      	pop	{r4, pc}
 80036b0:	2401      	movs	r4, #1
 80036b2:	e7fb      	b.n	80036ac <HAL_Init+0x1c>
 80036b4:	40022000 	.word	0x40022000

080036b8 <HAL_IncTick>:
 80036b8:	4a03      	ldr	r2, [pc, #12]	; (80036c8 <HAL_IncTick+0x10>)
 80036ba:	4b04      	ldr	r3, [pc, #16]	; (80036cc <HAL_IncTick+0x14>)
 80036bc:	6811      	ldr	r1, [r2, #0]
 80036be:	781b      	ldrb	r3, [r3, #0]
 80036c0:	185b      	adds	r3, r3, r1
 80036c2:	6013      	str	r3, [r2, #0]
 80036c4:	4770      	bx	lr
 80036c6:	46c0      	nop			; (mov r8, r8)
 80036c8:	200001d4 	.word	0x200001d4
 80036cc:	20000018 	.word	0x20000018

080036d0 <HAL_GetTick>:
 80036d0:	4b01      	ldr	r3, [pc, #4]	; (80036d8 <HAL_GetTick+0x8>)
 80036d2:	6818      	ldr	r0, [r3, #0]
 80036d4:	4770      	bx	lr
 80036d6:	46c0      	nop			; (mov r8, r8)
 80036d8:	200001d4 	.word	0x200001d4

080036dc <HAL_Delay>:
 80036dc:	b570      	push	{r4, r5, r6, lr}
 80036de:	0004      	movs	r4, r0
 80036e0:	f7ff fff6 	bl	80036d0 <HAL_GetTick>
 80036e4:	0005      	movs	r5, r0
 80036e6:	1c63      	adds	r3, r4, #1
 80036e8:	d002      	beq.n	80036f0 <HAL_Delay+0x14>
 80036ea:	4b04      	ldr	r3, [pc, #16]	; (80036fc <HAL_Delay+0x20>)
 80036ec:	781b      	ldrb	r3, [r3, #0]
 80036ee:	18e4      	adds	r4, r4, r3
 80036f0:	f7ff ffee 	bl	80036d0 <HAL_GetTick>
 80036f4:	1b40      	subs	r0, r0, r5
 80036f6:	42a0      	cmp	r0, r4
 80036f8:	d3fa      	bcc.n	80036f0 <HAL_Delay+0x14>
 80036fa:	bd70      	pop	{r4, r5, r6, pc}
 80036fc:	20000018 	.word	0x20000018

08003700 <HAL_NVIC_SetPriority>:
 8003700:	b530      	push	{r4, r5, lr}
 8003702:	25ff      	movs	r5, #255	; 0xff
 8003704:	2403      	movs	r4, #3
 8003706:	002a      	movs	r2, r5
 8003708:	4004      	ands	r4, r0
 800370a:	00e4      	lsls	r4, r4, #3
 800370c:	40a2      	lsls	r2, r4
 800370e:	0189      	lsls	r1, r1, #6
 8003710:	4029      	ands	r1, r5
 8003712:	43d2      	mvns	r2, r2
 8003714:	40a1      	lsls	r1, r4
 8003716:	b2c3      	uxtb	r3, r0
 8003718:	2800      	cmp	r0, #0
 800371a:	db0a      	blt.n	8003732 <HAL_NVIC_SetPriority+0x32>
 800371c:	24c0      	movs	r4, #192	; 0xc0
 800371e:	4b0b      	ldr	r3, [pc, #44]	; (800374c <HAL_NVIC_SetPriority+0x4c>)
 8003720:	0880      	lsrs	r0, r0, #2
 8003722:	0080      	lsls	r0, r0, #2
 8003724:	18c0      	adds	r0, r0, r3
 8003726:	00a4      	lsls	r4, r4, #2
 8003728:	5903      	ldr	r3, [r0, r4]
 800372a:	401a      	ands	r2, r3
 800372c:	4311      	orrs	r1, r2
 800372e:	5101      	str	r1, [r0, r4]
 8003730:	bd30      	pop	{r4, r5, pc}
 8003732:	200f      	movs	r0, #15
 8003734:	4003      	ands	r3, r0
 8003736:	3b08      	subs	r3, #8
 8003738:	4805      	ldr	r0, [pc, #20]	; (8003750 <HAL_NVIC_SetPriority+0x50>)
 800373a:	089b      	lsrs	r3, r3, #2
 800373c:	009b      	lsls	r3, r3, #2
 800373e:	181b      	adds	r3, r3, r0
 8003740:	69d8      	ldr	r0, [r3, #28]
 8003742:	4002      	ands	r2, r0
 8003744:	4311      	orrs	r1, r2
 8003746:	61d9      	str	r1, [r3, #28]
 8003748:	e7f2      	b.n	8003730 <HAL_NVIC_SetPriority+0x30>
 800374a:	46c0      	nop			; (mov r8, r8)
 800374c:	e000e100 	.word	0xe000e100
 8003750:	e000ed00 	.word	0xe000ed00

08003754 <HAL_SYSTICK_Config>:
 8003754:	2280      	movs	r2, #128	; 0x80
 8003756:	1e43      	subs	r3, r0, #1
 8003758:	0452      	lsls	r2, r2, #17
 800375a:	2001      	movs	r0, #1
 800375c:	4293      	cmp	r3, r2
 800375e:	d20d      	bcs.n	800377c <HAL_SYSTICK_Config+0x28>
 8003760:	21c0      	movs	r1, #192	; 0xc0
 8003762:	4a07      	ldr	r2, [pc, #28]	; (8003780 <HAL_SYSTICK_Config+0x2c>)
 8003764:	4807      	ldr	r0, [pc, #28]	; (8003784 <HAL_SYSTICK_Config+0x30>)
 8003766:	6053      	str	r3, [r2, #4]
 8003768:	6a03      	ldr	r3, [r0, #32]
 800376a:	0609      	lsls	r1, r1, #24
 800376c:	021b      	lsls	r3, r3, #8
 800376e:	0a1b      	lsrs	r3, r3, #8
 8003770:	430b      	orrs	r3, r1
 8003772:	6203      	str	r3, [r0, #32]
 8003774:	2000      	movs	r0, #0
 8003776:	2307      	movs	r3, #7
 8003778:	6090      	str	r0, [r2, #8]
 800377a:	6013      	str	r3, [r2, #0]
 800377c:	4770      	bx	lr
 800377e:	46c0      	nop			; (mov r8, r8)
 8003780:	e000e010 	.word	0xe000e010
 8003784:	e000ed00 	.word	0xe000ed00

08003788 <HAL_GPIO_Init>:
 8003788:	2300      	movs	r3, #0
 800378a:	b5f0      	push	{r4, r5, r6, r7, lr}
 800378c:	b085      	sub	sp, #20
 800378e:	680a      	ldr	r2, [r1, #0]
 8003790:	0014      	movs	r4, r2
 8003792:	40dc      	lsrs	r4, r3
 8003794:	d101      	bne.n	800379a <HAL_GPIO_Init+0x12>
 8003796:	b005      	add	sp, #20
 8003798:	bdf0      	pop	{r4, r5, r6, r7, pc}
 800379a:	2501      	movs	r5, #1
 800379c:	0014      	movs	r4, r2
 800379e:	409d      	lsls	r5, r3
 80037a0:	402c      	ands	r4, r5
 80037a2:	9401      	str	r4, [sp, #4]
 80037a4:	422a      	tst	r2, r5
 80037a6:	d100      	bne.n	80037aa <HAL_GPIO_Init+0x22>
 80037a8:	e08e      	b.n	80038c8 <HAL_GPIO_Init+0x140>
 80037aa:	684a      	ldr	r2, [r1, #4]
 80037ac:	005e      	lsls	r6, r3, #1
 80037ae:	4694      	mov	ip, r2
 80037b0:	2203      	movs	r2, #3
 80037b2:	4664      	mov	r4, ip
 80037b4:	4022      	ands	r2, r4
 80037b6:	2403      	movs	r4, #3
 80037b8:	40b4      	lsls	r4, r6
 80037ba:	43e4      	mvns	r4, r4
 80037bc:	9402      	str	r4, [sp, #8]
 80037be:	1e54      	subs	r4, r2, #1
 80037c0:	2c01      	cmp	r4, #1
 80037c2:	d82a      	bhi.n	800381a <HAL_GPIO_Init+0x92>
 80037c4:	6887      	ldr	r7, [r0, #8]
 80037c6:	9c02      	ldr	r4, [sp, #8]
 80037c8:	4027      	ands	r7, r4
 80037ca:	68cc      	ldr	r4, [r1, #12]
 80037cc:	40b4      	lsls	r4, r6
 80037ce:	433c      	orrs	r4, r7
 80037d0:	6084      	str	r4, [r0, #8]
 80037d2:	6844      	ldr	r4, [r0, #4]
 80037d4:	2701      	movs	r7, #1
 80037d6:	43ac      	bics	r4, r5
 80037d8:	0025      	movs	r5, r4
 80037da:	4664      	mov	r4, ip
 80037dc:	0924      	lsrs	r4, r4, #4
 80037de:	403c      	ands	r4, r7
 80037e0:	409c      	lsls	r4, r3
 80037e2:	432c      	orrs	r4, r5
 80037e4:	6044      	str	r4, [r0, #4]
 80037e6:	68c5      	ldr	r5, [r0, #12]
 80037e8:	9c02      	ldr	r4, [sp, #8]
 80037ea:	4025      	ands	r5, r4
 80037ec:	688c      	ldr	r4, [r1, #8]
 80037ee:	40b4      	lsls	r4, r6
 80037f0:	432c      	orrs	r4, r5
 80037f2:	60c4      	str	r4, [r0, #12]
 80037f4:	2a02      	cmp	r2, #2
 80037f6:	d112      	bne.n	800381e <HAL_GPIO_Init+0x96>
 80037f8:	08dc      	lsrs	r4, r3, #3
 80037fa:	2507      	movs	r5, #7
 80037fc:	00a4      	lsls	r4, r4, #2
 80037fe:	1904      	adds	r4, r0, r4
 8003800:	6a27      	ldr	r7, [r4, #32]
 8003802:	9403      	str	r4, [sp, #12]
 8003804:	240f      	movs	r4, #15
 8003806:	401d      	ands	r5, r3
 8003808:	00ad      	lsls	r5, r5, #2
 800380a:	40ac      	lsls	r4, r5
 800380c:	43a7      	bics	r7, r4
 800380e:	690c      	ldr	r4, [r1, #16]
 8003810:	40ac      	lsls	r4, r5
 8003812:	4327      	orrs	r7, r4
 8003814:	9c03      	ldr	r4, [sp, #12]
 8003816:	6227      	str	r7, [r4, #32]
 8003818:	e001      	b.n	800381e <HAL_GPIO_Init+0x96>
 800381a:	2a03      	cmp	r2, #3
 800381c:	d1e3      	bne.n	80037e6 <HAL_GPIO_Init+0x5e>
 800381e:	6804      	ldr	r4, [r0, #0]
 8003820:	9d02      	ldr	r5, [sp, #8]
 8003822:	40b2      	lsls	r2, r6
 8003824:	4025      	ands	r5, r4
 8003826:	002c      	movs	r4, r5
 8003828:	4314      	orrs	r4, r2
 800382a:	6004      	str	r4, [r0, #0]
 800382c:	24c0      	movs	r4, #192	; 0xc0
 800382e:	4662      	mov	r2, ip
 8003830:	02a4      	lsls	r4, r4, #10
 8003832:	4222      	tst	r2, r4
 8003834:	d048      	beq.n	80038c8 <HAL_GPIO_Init+0x140>
 8003836:	4a25      	ldr	r2, [pc, #148]	; (80038cc <HAL_GPIO_Init+0x144>)
 8003838:	2503      	movs	r5, #3
 800383a:	089c      	lsrs	r4, r3, #2
 800383c:	00a4      	lsls	r4, r4, #2
 800383e:	18a4      	adds	r4, r4, r2
 8003840:	220f      	movs	r2, #15
 8003842:	401d      	ands	r5, r3
 8003844:	00ed      	lsls	r5, r5, #3
 8003846:	40aa      	lsls	r2, r5
 8003848:	27a0      	movs	r7, #160	; 0xa0
 800384a:	6e26      	ldr	r6, [r4, #96]	; 0x60
 800384c:	05ff      	lsls	r7, r7, #23
 800384e:	4396      	bics	r6, r2
 8003850:	2200      	movs	r2, #0
 8003852:	42b8      	cmp	r0, r7
 8003854:	d00c      	beq.n	8003870 <HAL_GPIO_Init+0xe8>
 8003856:	4f1e      	ldr	r7, [pc, #120]	; (80038d0 <HAL_GPIO_Init+0x148>)
 8003858:	3201      	adds	r2, #1
 800385a:	42b8      	cmp	r0, r7
 800385c:	d008      	beq.n	8003870 <HAL_GPIO_Init+0xe8>
 800385e:	4f1d      	ldr	r7, [pc, #116]	; (80038d4 <HAL_GPIO_Init+0x14c>)
 8003860:	3201      	adds	r2, #1
 8003862:	42b8      	cmp	r0, r7
 8003864:	d004      	beq.n	8003870 <HAL_GPIO_Init+0xe8>
 8003866:	4f1c      	ldr	r7, [pc, #112]	; (80038d8 <HAL_GPIO_Init+0x150>)
 8003868:	3201      	adds	r2, #1
 800386a:	42b8      	cmp	r0, r7
 800386c:	d000      	beq.n	8003870 <HAL_GPIO_Init+0xe8>
 800386e:	3202      	adds	r2, #2
 8003870:	40aa      	lsls	r2, r5
 8003872:	4667      	mov	r7, ip
 8003874:	4332      	orrs	r2, r6
 8003876:	6622      	str	r2, [r4, #96]	; 0x60
 8003878:	4c14      	ldr	r4, [pc, #80]	; (80038cc <HAL_GPIO_Init+0x144>)
 800387a:	9a01      	ldr	r2, [sp, #4]
 800387c:	6826      	ldr	r6, [r4, #0]
 800387e:	9d01      	ldr	r5, [sp, #4]
 8003880:	43d2      	mvns	r2, r2
 8003882:	4335      	orrs	r5, r6
 8003884:	02ff      	lsls	r7, r7, #11
 8003886:	d401      	bmi.n	800388c <HAL_GPIO_Init+0x104>
 8003888:	0035      	movs	r5, r6
 800388a:	4015      	ands	r5, r2
 800388c:	4667      	mov	r7, ip
 800388e:	6025      	str	r5, [r4, #0]
 8003890:	6866      	ldr	r6, [r4, #4]
 8003892:	9d01      	ldr	r5, [sp, #4]
 8003894:	4335      	orrs	r5, r6
 8003896:	02bf      	lsls	r7, r7, #10
 8003898:	d401      	bmi.n	800389e <HAL_GPIO_Init+0x116>
 800389a:	0035      	movs	r5, r6
 800389c:	4015      	ands	r5, r2
 800389e:	4667      	mov	r7, ip
 80038a0:	6065      	str	r5, [r4, #4]
 80038a2:	4c0e      	ldr	r4, [pc, #56]	; (80038dc <HAL_GPIO_Init+0x154>)
 80038a4:	9d01      	ldr	r5, [sp, #4]
 80038a6:	6fe6      	ldr	r6, [r4, #124]	; 0x7c
 80038a8:	4335      	orrs	r5, r6
 80038aa:	03bf      	lsls	r7, r7, #14
 80038ac:	d401      	bmi.n	80038b2 <HAL_GPIO_Init+0x12a>
 80038ae:	0035      	movs	r5, r6
 80038b0:	4015      	ands	r5, r2
 80038b2:	4667      	mov	r7, ip
 80038b4:	67e5      	str	r5, [r4, #124]	; 0x7c
 80038b6:	4c0a      	ldr	r4, [pc, #40]	; (80038e0 <HAL_GPIO_Init+0x158>)
 80038b8:	9e01      	ldr	r6, [sp, #4]
 80038ba:	6fe5      	ldr	r5, [r4, #124]	; 0x7c
 80038bc:	432e      	orrs	r6, r5
 80038be:	03ff      	lsls	r7, r7, #15
 80038c0:	d401      	bmi.n	80038c6 <HAL_GPIO_Init+0x13e>
 80038c2:	4015      	ands	r5, r2
 80038c4:	002e      	movs	r6, r5
 80038c6:	67e6      	str	r6, [r4, #124]	; 0x7c
 80038c8:	3301      	adds	r3, #1
 80038ca:	e760      	b.n	800378e <HAL_GPIO_Init+0x6>
 80038cc:	40021800 	.word	0x40021800
 80038d0:	50000400 	.word	0x50000400
 80038d4:	50000800 	.word	0x50000800
 80038d8:	50000c00 	.word	0x50000c00
 80038dc:	40021808 	.word	0x40021808
 80038e0:	40021804 	.word	0x40021804

080038e4 <HAL_GPIO_ReadPin>:
 80038e4:	6900      	ldr	r0, [r0, #16]
 80038e6:	4008      	ands	r0, r1
 80038e8:	1e41      	subs	r1, r0, #1
 80038ea:	4188      	sbcs	r0, r1
 80038ec:	b2c0      	uxtb	r0, r0
 80038ee:	4770      	bx	lr

080038f0 <HAL_GPIO_WritePin>:
 80038f0:	2a00      	cmp	r2, #0
 80038f2:	d001      	beq.n	80038f8 <HAL_GPIO_WritePin+0x8>
 80038f4:	6181      	str	r1, [r0, #24]
 80038f6:	4770      	bx	lr
 80038f8:	6281      	str	r1, [r0, #40]	; 0x28
 80038fa:	e7fc      	b.n	80038f6 <HAL_GPIO_WritePin+0x6>

080038fc <HAL_PWREx_ControlVoltageScaling>:
 80038fc:	b510      	push	{r4, lr}
 80038fe:	4c11      	ldr	r4, [pc, #68]	; (8003944 <HAL_PWREx_ControlVoltageScaling+0x48>)
 8003900:	4911      	ldr	r1, [pc, #68]	; (8003948 <HAL_PWREx_ControlVoltageScaling+0x4c>)
 8003902:	6823      	ldr	r3, [r4, #0]
 8003904:	0002      	movs	r2, r0
 8003906:	400b      	ands	r3, r1
 8003908:	4303      	orrs	r3, r0
 800390a:	6023      	str	r3, [r4, #0]
 800390c:	2380      	movs	r3, #128	; 0x80
 800390e:	2000      	movs	r0, #0
 8003910:	009b      	lsls	r3, r3, #2
 8003912:	429a      	cmp	r2, r3
 8003914:	d10e      	bne.n	8003934 <HAL_PWREx_ControlVoltageScaling+0x38>
 8003916:	4b0d      	ldr	r3, [pc, #52]	; (800394c <HAL_PWREx_ControlVoltageScaling+0x50>)
 8003918:	490d      	ldr	r1, [pc, #52]	; (8003950 <HAL_PWREx_ControlVoltageScaling+0x54>)
 800391a:	6818      	ldr	r0, [r3, #0]
 800391c:	2306      	movs	r3, #6
 800391e:	4358      	muls	r0, r3
 8003920:	f7fc fbf8 	bl	8000114 <__udivsi3>
 8003924:	2280      	movs	r2, #128	; 0x80
 8003926:	1c43      	adds	r3, r0, #1
 8003928:	00d2      	lsls	r2, r2, #3
 800392a:	6961      	ldr	r1, [r4, #20]
 800392c:	0008      	movs	r0, r1
 800392e:	4010      	ands	r0, r2
 8003930:	4211      	tst	r1, r2
 8003932:	d100      	bne.n	8003936 <HAL_PWREx_ControlVoltageScaling+0x3a>
 8003934:	bd10      	pop	{r4, pc}
 8003936:	2b00      	cmp	r3, #0
 8003938:	d001      	beq.n	800393e <HAL_PWREx_ControlVoltageScaling+0x42>
 800393a:	3b01      	subs	r3, #1
 800393c:	e7f5      	b.n	800392a <HAL_PWREx_ControlVoltageScaling+0x2e>
 800393e:	2003      	movs	r0, #3
 8003940:	e7f8      	b.n	8003934 <HAL_PWREx_ControlVoltageScaling+0x38>
 8003942:	46c0      	nop			; (mov r8, r8)
 8003944:	40007000 	.word	0x40007000
 8003948:	fffff9ff 	.word	0xfffff9ff
 800394c:	20000014 	.word	0x20000014
 8003950:	000f4240 	.word	0x000f4240

08003954 <HAL_RCC_OscConfig>:
 8003954:	b5f0      	push	{r4, r5, r6, r7, lr}
 8003956:	0004      	movs	r4, r0
 8003958:	b085      	sub	sp, #20
 800395a:	2800      	cmp	r0, #0
 800395c:	d023      	beq.n	80039a6 <HAL_RCC_OscConfig+0x52>
 800395e:	6803      	ldr	r3, [r0, #0]
 8003960:	07db      	lsls	r3, r3, #31
 8003962:	d410      	bmi.n	8003986 <HAL_RCC_OscConfig+0x32>
 8003964:	6823      	ldr	r3, [r4, #0]
 8003966:	079b      	lsls	r3, r3, #30
 8003968:	d45e      	bmi.n	8003a28 <HAL_RCC_OscConfig+0xd4>
 800396a:	6823      	ldr	r3, [r4, #0]
 800396c:	071b      	lsls	r3, r3, #28
 800396e:	d500      	bpl.n	8003972 <HAL_RCC_OscConfig+0x1e>
 8003970:	e0c3      	b.n	8003afa <HAL_RCC_OscConfig+0x1a6>
 8003972:	6823      	ldr	r3, [r4, #0]
 8003974:	075b      	lsls	r3, r3, #29
 8003976:	d500      	bpl.n	800397a <HAL_RCC_OscConfig+0x26>
 8003978:	e0f5      	b.n	8003b66 <HAL_RCC_OscConfig+0x212>
 800397a:	69e2      	ldr	r2, [r4, #28]
 800397c:	2a00      	cmp	r2, #0
 800397e:	d000      	beq.n	8003982 <HAL_RCC_OscConfig+0x2e>
 8003980:	e17c      	b.n	8003c7c <HAL_RCC_OscConfig+0x328>
 8003982:	2000      	movs	r0, #0
 8003984:	e029      	b.n	80039da <HAL_RCC_OscConfig+0x86>
 8003986:	2238      	movs	r2, #56	; 0x38
 8003988:	4db0      	ldr	r5, [pc, #704]	; (8003c4c <HAL_RCC_OscConfig+0x2f8>)
 800398a:	68ab      	ldr	r3, [r5, #8]
 800398c:	4013      	ands	r3, r2
 800398e:	68ea      	ldr	r2, [r5, #12]
 8003990:	2b10      	cmp	r3, #16
 8003992:	d10a      	bne.n	80039aa <HAL_RCC_OscConfig+0x56>
 8003994:	43d2      	mvns	r2, r2
 8003996:	0793      	lsls	r3, r2, #30
 8003998:	d109      	bne.n	80039ae <HAL_RCC_OscConfig+0x5a>
 800399a:	682b      	ldr	r3, [r5, #0]
 800399c:	039b      	lsls	r3, r3, #14
 800399e:	d5e1      	bpl.n	8003964 <HAL_RCC_OscConfig+0x10>
 80039a0:	6863      	ldr	r3, [r4, #4]
 80039a2:	2b00      	cmp	r3, #0
 80039a4:	d1de      	bne.n	8003964 <HAL_RCC_OscConfig+0x10>
 80039a6:	2001      	movs	r0, #1
 80039a8:	e017      	b.n	80039da <HAL_RCC_OscConfig+0x86>
 80039aa:	2b08      	cmp	r3, #8
 80039ac:	d0f5      	beq.n	800399a <HAL_RCC_OscConfig+0x46>
 80039ae:	2280      	movs	r2, #128	; 0x80
 80039b0:	6863      	ldr	r3, [r4, #4]
 80039b2:	0252      	lsls	r2, r2, #9
 80039b4:	4293      	cmp	r3, r2
 80039b6:	d112      	bne.n	80039de <HAL_RCC_OscConfig+0x8a>
 80039b8:	682a      	ldr	r2, [r5, #0]
 80039ba:	4313      	orrs	r3, r2
 80039bc:	602b      	str	r3, [r5, #0]
 80039be:	f7ff fe87 	bl	80036d0 <HAL_GetTick>
 80039c2:	2780      	movs	r7, #128	; 0x80
 80039c4:	0006      	movs	r6, r0
 80039c6:	02bf      	lsls	r7, r7, #10
 80039c8:	682b      	ldr	r3, [r5, #0]
 80039ca:	423b      	tst	r3, r7
 80039cc:	d1ca      	bne.n	8003964 <HAL_RCC_OscConfig+0x10>
 80039ce:	f7ff fe7f 	bl	80036d0 <HAL_GetTick>
 80039d2:	1b80      	subs	r0, r0, r6
 80039d4:	2864      	cmp	r0, #100	; 0x64
 80039d6:	d9f7      	bls.n	80039c8 <HAL_RCC_OscConfig+0x74>
 80039d8:	2003      	movs	r0, #3
 80039da:	b005      	add	sp, #20
 80039dc:	bdf0      	pop	{r4, r5, r6, r7, pc}
 80039de:	21a0      	movs	r1, #160	; 0xa0
 80039e0:	02c9      	lsls	r1, r1, #11
 80039e2:	428b      	cmp	r3, r1
 80039e4:	d108      	bne.n	80039f8 <HAL_RCC_OscConfig+0xa4>
 80039e6:	2380      	movs	r3, #128	; 0x80
 80039e8:	6829      	ldr	r1, [r5, #0]
 80039ea:	02db      	lsls	r3, r3, #11
 80039ec:	430b      	orrs	r3, r1
 80039ee:	602b      	str	r3, [r5, #0]
 80039f0:	682b      	ldr	r3, [r5, #0]
 80039f2:	431a      	orrs	r2, r3
 80039f4:	602a      	str	r2, [r5, #0]
 80039f6:	e7e2      	b.n	80039be <HAL_RCC_OscConfig+0x6a>
 80039f8:	682a      	ldr	r2, [r5, #0]
 80039fa:	4995      	ldr	r1, [pc, #596]	; (8003c50 <HAL_RCC_OscConfig+0x2fc>)
 80039fc:	400a      	ands	r2, r1
 80039fe:	602a      	str	r2, [r5, #0]
 8003a00:	682a      	ldr	r2, [r5, #0]
 8003a02:	4994      	ldr	r1, [pc, #592]	; (8003c54 <HAL_RCC_OscConfig+0x300>)
 8003a04:	400a      	ands	r2, r1
 8003a06:	602a      	str	r2, [r5, #0]
 8003a08:	2b00      	cmp	r3, #0
 8003a0a:	d1d8      	bne.n	80039be <HAL_RCC_OscConfig+0x6a>
 8003a0c:	f7ff fe60 	bl	80036d0 <HAL_GetTick>
 8003a10:	2780      	movs	r7, #128	; 0x80
 8003a12:	0006      	movs	r6, r0
 8003a14:	02bf      	lsls	r7, r7, #10
 8003a16:	682b      	ldr	r3, [r5, #0]
 8003a18:	423b      	tst	r3, r7
 8003a1a:	d0a3      	beq.n	8003964 <HAL_RCC_OscConfig+0x10>
 8003a1c:	f7ff fe58 	bl	80036d0 <HAL_GetTick>
 8003a20:	1b80      	subs	r0, r0, r6
 8003a22:	2864      	cmp	r0, #100	; 0x64
 8003a24:	d9f7      	bls.n	8003a16 <HAL_RCC_OscConfig+0xc2>
 8003a26:	e7d7      	b.n	80039d8 <HAL_RCC_OscConfig+0x84>
 8003a28:	2338      	movs	r3, #56	; 0x38
 8003a2a:	4d88      	ldr	r5, [pc, #544]	; (8003c4c <HAL_RCC_OscConfig+0x2f8>)
 8003a2c:	68aa      	ldr	r2, [r5, #8]
 8003a2e:	4013      	ands	r3, r2
 8003a30:	68ea      	ldr	r2, [r5, #12]
 8003a32:	2b10      	cmp	r3, #16
 8003a34:	d128      	bne.n	8003a88 <HAL_RCC_OscConfig+0x134>
 8003a36:	2103      	movs	r1, #3
 8003a38:	400a      	ands	r2, r1
 8003a3a:	2a02      	cmp	r2, #2
 8003a3c:	d126      	bne.n	8003a8c <HAL_RCC_OscConfig+0x138>
 8003a3e:	682a      	ldr	r2, [r5, #0]
 8003a40:	0552      	lsls	r2, r2, #21
 8003a42:	d502      	bpl.n	8003a4a <HAL_RCC_OscConfig+0xf6>
 8003a44:	68e2      	ldr	r2, [r4, #12]
 8003a46:	2a00      	cmp	r2, #0
 8003a48:	d0ad      	beq.n	80039a6 <HAL_RCC_OscConfig+0x52>
 8003a4a:	6869      	ldr	r1, [r5, #4]
 8003a4c:	6962      	ldr	r2, [r4, #20]
 8003a4e:	4882      	ldr	r0, [pc, #520]	; (8003c58 <HAL_RCC_OscConfig+0x304>)
 8003a50:	0212      	lsls	r2, r2, #8
 8003a52:	4001      	ands	r1, r0
 8003a54:	430a      	orrs	r2, r1
 8003a56:	606a      	str	r2, [r5, #4]
 8003a58:	2b00      	cmp	r3, #0
 8003a5a:	d10d      	bne.n	8003a78 <HAL_RCC_OscConfig+0x124>
 8003a5c:	682b      	ldr	r3, [r5, #0]
 8003a5e:	4a7f      	ldr	r2, [pc, #508]	; (8003c5c <HAL_RCC_OscConfig+0x308>)
 8003a60:	4013      	ands	r3, r2
 8003a62:	6922      	ldr	r2, [r4, #16]
 8003a64:	4313      	orrs	r3, r2
 8003a66:	602b      	str	r3, [r5, #0]
 8003a68:	682b      	ldr	r3, [r5, #0]
 8003a6a:	4a7d      	ldr	r2, [pc, #500]	; (8003c60 <HAL_RCC_OscConfig+0x30c>)
 8003a6c:	049b      	lsls	r3, r3, #18
 8003a6e:	0f5b      	lsrs	r3, r3, #29
 8003a70:	40da      	lsrs	r2, r3
 8003a72:	0013      	movs	r3, r2
 8003a74:	4a7b      	ldr	r2, [pc, #492]	; (8003c64 <HAL_RCC_OscConfig+0x310>)
 8003a76:	6013      	str	r3, [r2, #0]
 8003a78:	4b7b      	ldr	r3, [pc, #492]	; (8003c68 <HAL_RCC_OscConfig+0x314>)
 8003a7a:	6818      	ldr	r0, [r3, #0]
 8003a7c:	f7ff fde0 	bl	8003640 <HAL_InitTick>
 8003a80:	2800      	cmp	r0, #0
 8003a82:	d100      	bne.n	8003a86 <HAL_RCC_OscConfig+0x132>
 8003a84:	e771      	b.n	800396a <HAL_RCC_OscConfig+0x16>
 8003a86:	e78e      	b.n	80039a6 <HAL_RCC_OscConfig+0x52>
 8003a88:	2b00      	cmp	r3, #0
 8003a8a:	d0d8      	beq.n	8003a3e <HAL_RCC_OscConfig+0xea>
 8003a8c:	68e3      	ldr	r3, [r4, #12]
 8003a8e:	2b00      	cmp	r3, #0
 8003a90:	d020      	beq.n	8003ad4 <HAL_RCC_OscConfig+0x180>
 8003a92:	682b      	ldr	r3, [r5, #0]
 8003a94:	4a71      	ldr	r2, [pc, #452]	; (8003c5c <HAL_RCC_OscConfig+0x308>)
 8003a96:	2780      	movs	r7, #128	; 0x80
 8003a98:	4013      	ands	r3, r2
 8003a9a:	6922      	ldr	r2, [r4, #16]
 8003a9c:	00ff      	lsls	r7, r7, #3
 8003a9e:	4313      	orrs	r3, r2
 8003aa0:	602b      	str	r3, [r5, #0]
 8003aa2:	2380      	movs	r3, #128	; 0x80
 8003aa4:	682a      	ldr	r2, [r5, #0]
 8003aa6:	005b      	lsls	r3, r3, #1
 8003aa8:	4313      	orrs	r3, r2
 8003aaa:	602b      	str	r3, [r5, #0]
 8003aac:	f7ff fe10 	bl	80036d0 <HAL_GetTick>
 8003ab0:	0006      	movs	r6, r0
 8003ab2:	682b      	ldr	r3, [r5, #0]
 8003ab4:	423b      	tst	r3, r7
 8003ab6:	d007      	beq.n	8003ac8 <HAL_RCC_OscConfig+0x174>
 8003ab8:	686a      	ldr	r2, [r5, #4]
 8003aba:	6963      	ldr	r3, [r4, #20]
 8003abc:	4966      	ldr	r1, [pc, #408]	; (8003c58 <HAL_RCC_OscConfig+0x304>)
 8003abe:	021b      	lsls	r3, r3, #8
 8003ac0:	400a      	ands	r2, r1
 8003ac2:	4313      	orrs	r3, r2
 8003ac4:	606b      	str	r3, [r5, #4]
 8003ac6:	e750      	b.n	800396a <HAL_RCC_OscConfig+0x16>
 8003ac8:	f7ff fe02 	bl	80036d0 <HAL_GetTick>
 8003acc:	1b80      	subs	r0, r0, r6
 8003ace:	2802      	cmp	r0, #2
 8003ad0:	d9ef      	bls.n	8003ab2 <HAL_RCC_OscConfig+0x15e>
 8003ad2:	e781      	b.n	80039d8 <HAL_RCC_OscConfig+0x84>
 8003ad4:	682b      	ldr	r3, [r5, #0]
 8003ad6:	4a65      	ldr	r2, [pc, #404]	; (8003c6c <HAL_RCC_OscConfig+0x318>)
 8003ad8:	2780      	movs	r7, #128	; 0x80
 8003ada:	4013      	ands	r3, r2
 8003adc:	602b      	str	r3, [r5, #0]
 8003ade:	f7ff fdf7 	bl	80036d0 <HAL_GetTick>
 8003ae2:	0006      	movs	r6, r0
 8003ae4:	00ff      	lsls	r7, r7, #3
 8003ae6:	682b      	ldr	r3, [r5, #0]
 8003ae8:	423b      	tst	r3, r7
 8003aea:	d100      	bne.n	8003aee <HAL_RCC_OscConfig+0x19a>
 8003aec:	e73d      	b.n	800396a <HAL_RCC_OscConfig+0x16>
 8003aee:	f7ff fdef 	bl	80036d0 <HAL_GetTick>
 8003af2:	1b80      	subs	r0, r0, r6
 8003af4:	2802      	cmp	r0, #2
 8003af6:	d9f6      	bls.n	8003ae6 <HAL_RCC_OscConfig+0x192>
 8003af8:	e76e      	b.n	80039d8 <HAL_RCC_OscConfig+0x84>
 8003afa:	2138      	movs	r1, #56	; 0x38
 8003afc:	4b53      	ldr	r3, [pc, #332]	; (8003c4c <HAL_RCC_OscConfig+0x2f8>)
 8003afe:	689a      	ldr	r2, [r3, #8]
 8003b00:	001d      	movs	r5, r3
 8003b02:	400a      	ands	r2, r1
 8003b04:	2a18      	cmp	r2, #24
 8003b06:	d108      	bne.n	8003b1a <HAL_RCC_OscConfig+0x1c6>
 8003b08:	6e1b      	ldr	r3, [r3, #96]	; 0x60
 8003b0a:	079b      	lsls	r3, r3, #30
 8003b0c:	d400      	bmi.n	8003b10 <HAL_RCC_OscConfig+0x1bc>
 8003b0e:	e730      	b.n	8003972 <HAL_RCC_OscConfig+0x1e>
 8003b10:	69a3      	ldr	r3, [r4, #24]
 8003b12:	2b00      	cmp	r3, #0
 8003b14:	d000      	beq.n	8003b18 <HAL_RCC_OscConfig+0x1c4>
 8003b16:	e72c      	b.n	8003972 <HAL_RCC_OscConfig+0x1e>
 8003b18:	e745      	b.n	80039a6 <HAL_RCC_OscConfig+0x52>
 8003b1a:	69a2      	ldr	r2, [r4, #24]
 8003b1c:	2301      	movs	r3, #1
 8003b1e:	2a00      	cmp	r2, #0
 8003b20:	d010      	beq.n	8003b44 <HAL_RCC_OscConfig+0x1f0>
 8003b22:	6e2a      	ldr	r2, [r5, #96]	; 0x60
 8003b24:	2702      	movs	r7, #2
 8003b26:	4313      	orrs	r3, r2
 8003b28:	662b      	str	r3, [r5, #96]	; 0x60
 8003b2a:	f7ff fdd1 	bl	80036d0 <HAL_GetTick>
 8003b2e:	0006      	movs	r6, r0
 8003b30:	6e2b      	ldr	r3, [r5, #96]	; 0x60
 8003b32:	423b      	tst	r3, r7
 8003b34:	d000      	beq.n	8003b38 <HAL_RCC_OscConfig+0x1e4>
 8003b36:	e71c      	b.n	8003972 <HAL_RCC_OscConfig+0x1e>
 8003b38:	f7ff fdca 	bl	80036d0 <HAL_GetTick>
 8003b3c:	1b80      	subs	r0, r0, r6
 8003b3e:	2802      	cmp	r0, #2
 8003b40:	d9f6      	bls.n	8003b30 <HAL_RCC_OscConfig+0x1dc>
 8003b42:	e749      	b.n	80039d8 <HAL_RCC_OscConfig+0x84>
 8003b44:	6e2a      	ldr	r2, [r5, #96]	; 0x60
 8003b46:	2702      	movs	r7, #2
 8003b48:	439a      	bics	r2, r3
 8003b4a:	662a      	str	r2, [r5, #96]	; 0x60
 8003b4c:	f7ff fdc0 	bl	80036d0 <HAL_GetTick>
 8003b50:	0006      	movs	r6, r0
 8003b52:	6e2b      	ldr	r3, [r5, #96]	; 0x60
 8003b54:	423b      	tst	r3, r7
 8003b56:	d100      	bne.n	8003b5a <HAL_RCC_OscConfig+0x206>
 8003b58:	e70b      	b.n	8003972 <HAL_RCC_OscConfig+0x1e>
 8003b5a:	f7ff fdb9 	bl	80036d0 <HAL_GetTick>
 8003b5e:	1b80      	subs	r0, r0, r6
 8003b60:	2802      	cmp	r0, #2
 8003b62:	d9f6      	bls.n	8003b52 <HAL_RCC_OscConfig+0x1fe>
 8003b64:	e738      	b.n	80039d8 <HAL_RCC_OscConfig+0x84>
 8003b66:	2138      	movs	r1, #56	; 0x38
 8003b68:	4b38      	ldr	r3, [pc, #224]	; (8003c4c <HAL_RCC_OscConfig+0x2f8>)
 8003b6a:	689a      	ldr	r2, [r3, #8]
 8003b6c:	001d      	movs	r5, r3
 8003b6e:	400a      	ands	r2, r1
 8003b70:	2a20      	cmp	r2, #32
 8003b72:	d108      	bne.n	8003b86 <HAL_RCC_OscConfig+0x232>
 8003b74:	6ddb      	ldr	r3, [r3, #92]	; 0x5c
 8003b76:	079b      	lsls	r3, r3, #30
 8003b78:	d400      	bmi.n	8003b7c <HAL_RCC_OscConfig+0x228>
 8003b7a:	e6fe      	b.n	800397a <HAL_RCC_OscConfig+0x26>
 8003b7c:	68a3      	ldr	r3, [r4, #8]
 8003b7e:	2b00      	cmp	r3, #0
 8003b80:	d000      	beq.n	8003b84 <HAL_RCC_OscConfig+0x230>
 8003b82:	e6fa      	b.n	800397a <HAL_RCC_OscConfig+0x26>
 8003b84:	e70f      	b.n	80039a6 <HAL_RCC_OscConfig+0x52>
 8003b86:	2280      	movs	r2, #128	; 0x80
 8003b88:	2100      	movs	r1, #0
 8003b8a:	6bdb      	ldr	r3, [r3, #60]	; 0x3c
 8003b8c:	0552      	lsls	r2, r2, #21
 8003b8e:	9100      	str	r1, [sp, #0]
 8003b90:	4213      	tst	r3, r2
 8003b92:	d108      	bne.n	8003ba6 <HAL_RCC_OscConfig+0x252>
 8003b94:	6beb      	ldr	r3, [r5, #60]	; 0x3c
 8003b96:	4313      	orrs	r3, r2
 8003b98:	63eb      	str	r3, [r5, #60]	; 0x3c
 8003b9a:	6beb      	ldr	r3, [r5, #60]	; 0x3c
 8003b9c:	4013      	ands	r3, r2
 8003b9e:	9303      	str	r3, [sp, #12]
 8003ba0:	9b03      	ldr	r3, [sp, #12]
 8003ba2:	2301      	movs	r3, #1
 8003ba4:	9300      	str	r3, [sp, #0]
 8003ba6:	2780      	movs	r7, #128	; 0x80
 8003ba8:	4e31      	ldr	r6, [pc, #196]	; (8003c70 <HAL_RCC_OscConfig+0x31c>)
 8003baa:	007f      	lsls	r7, r7, #1
 8003bac:	6833      	ldr	r3, [r6, #0]
 8003bae:	423b      	tst	r3, r7
 8003bb0:	d015      	beq.n	8003bde <HAL_RCC_OscConfig+0x28a>
 8003bb2:	68a3      	ldr	r3, [r4, #8]
 8003bb4:	2b01      	cmp	r3, #1
 8003bb6:	d122      	bne.n	8003bfe <HAL_RCC_OscConfig+0x2aa>
 8003bb8:	6dea      	ldr	r2, [r5, #92]	; 0x5c
 8003bba:	4313      	orrs	r3, r2
 8003bbc:	65eb      	str	r3, [r5, #92]	; 0x5c
 8003bbe:	f7ff fd87 	bl	80036d0 <HAL_GetTick>
 8003bc2:	2702      	movs	r7, #2
 8003bc4:	0006      	movs	r6, r0
 8003bc6:	6deb      	ldr	r3, [r5, #92]	; 0x5c
 8003bc8:	423b      	tst	r3, r7
 8003bca:	d038      	beq.n	8003c3e <HAL_RCC_OscConfig+0x2ea>
 8003bcc:	9b00      	ldr	r3, [sp, #0]
 8003bce:	2b01      	cmp	r3, #1
 8003bd0:	d000      	beq.n	8003bd4 <HAL_RCC_OscConfig+0x280>
 8003bd2:	e6d2      	b.n	800397a <HAL_RCC_OscConfig+0x26>
 8003bd4:	6beb      	ldr	r3, [r5, #60]	; 0x3c
 8003bd6:	4a27      	ldr	r2, [pc, #156]	; (8003c74 <HAL_RCC_OscConfig+0x320>)
 8003bd8:	4013      	ands	r3, r2
 8003bda:	63eb      	str	r3, [r5, #60]	; 0x3c
 8003bdc:	e6cd      	b.n	800397a <HAL_RCC_OscConfig+0x26>
 8003bde:	6833      	ldr	r3, [r6, #0]
 8003be0:	433b      	orrs	r3, r7
 8003be2:	6033      	str	r3, [r6, #0]
 8003be4:	f7ff fd74 	bl	80036d0 <HAL_GetTick>
 8003be8:	9001      	str	r0, [sp, #4]
 8003bea:	6833      	ldr	r3, [r6, #0]
 8003bec:	423b      	tst	r3, r7
 8003bee:	d1e0      	bne.n	8003bb2 <HAL_RCC_OscConfig+0x25e>
 8003bf0:	f7ff fd6e 	bl	80036d0 <HAL_GetTick>
 8003bf4:	9b01      	ldr	r3, [sp, #4]
 8003bf6:	1ac0      	subs	r0, r0, r3
 8003bf8:	2802      	cmp	r0, #2
 8003bfa:	d9f6      	bls.n	8003bea <HAL_RCC_OscConfig+0x296>
 8003bfc:	e6ec      	b.n	80039d8 <HAL_RCC_OscConfig+0x84>
 8003bfe:	6dea      	ldr	r2, [r5, #92]	; 0x5c
 8003c00:	2b05      	cmp	r3, #5
 8003c02:	d105      	bne.n	8003c10 <HAL_RCC_OscConfig+0x2bc>
 8003c04:	3b01      	subs	r3, #1
 8003c06:	4313      	orrs	r3, r2
 8003c08:	65eb      	str	r3, [r5, #92]	; 0x5c
 8003c0a:	6dea      	ldr	r2, [r5, #92]	; 0x5c
 8003c0c:	2301      	movs	r3, #1
 8003c0e:	e7d4      	b.n	8003bba <HAL_RCC_OscConfig+0x266>
 8003c10:	2101      	movs	r1, #1
 8003c12:	438a      	bics	r2, r1
 8003c14:	65ea      	str	r2, [r5, #92]	; 0x5c
 8003c16:	6dea      	ldr	r2, [r5, #92]	; 0x5c
 8003c18:	3103      	adds	r1, #3
 8003c1a:	438a      	bics	r2, r1
 8003c1c:	65ea      	str	r2, [r5, #92]	; 0x5c
 8003c1e:	2b00      	cmp	r3, #0
 8003c20:	d1cd      	bne.n	8003bbe <HAL_RCC_OscConfig+0x26a>
 8003c22:	f7ff fd55 	bl	80036d0 <HAL_GetTick>
 8003c26:	2702      	movs	r7, #2
 8003c28:	0006      	movs	r6, r0
 8003c2a:	6deb      	ldr	r3, [r5, #92]	; 0x5c
 8003c2c:	423b      	tst	r3, r7
 8003c2e:	d0cd      	beq.n	8003bcc <HAL_RCC_OscConfig+0x278>
 8003c30:	f7ff fd4e 	bl	80036d0 <HAL_GetTick>
 8003c34:	4b10      	ldr	r3, [pc, #64]	; (8003c78 <HAL_RCC_OscConfig+0x324>)
 8003c36:	1b80      	subs	r0, r0, r6
 8003c38:	4298      	cmp	r0, r3
 8003c3a:	d9f6      	bls.n	8003c2a <HAL_RCC_OscConfig+0x2d6>
 8003c3c:	e6cc      	b.n	80039d8 <HAL_RCC_OscConfig+0x84>
 8003c3e:	f7ff fd47 	bl	80036d0 <HAL_GetTick>
 8003c42:	4b0d      	ldr	r3, [pc, #52]	; (8003c78 <HAL_RCC_OscConfig+0x324>)
 8003c44:	1b80      	subs	r0, r0, r6
 8003c46:	4298      	cmp	r0, r3
 8003c48:	d9bd      	bls.n	8003bc6 <HAL_RCC_OscConfig+0x272>
 8003c4a:	e6c5      	b.n	80039d8 <HAL_RCC_OscConfig+0x84>
 8003c4c:	40021000 	.word	0x40021000
 8003c50:	fffeffff 	.word	0xfffeffff
 8003c54:	fffbffff 	.word	0xfffbffff
 8003c58:	ffff80ff 	.word	0xffff80ff
 8003c5c:	ffffc7ff 	.word	0xffffc7ff
 8003c60:	00f42400 	.word	0x00f42400
 8003c64:	20000014 	.word	0x20000014
 8003c68:	2000001c 	.word	0x2000001c
 8003c6c:	fffffeff 	.word	0xfffffeff
 8003c70:	40007000 	.word	0x40007000
 8003c74:	efffffff 	.word	0xefffffff
 8003c78:	00001388 	.word	0x00001388
 8003c7c:	2038      	movs	r0, #56	; 0x38
 8003c7e:	4b3e      	ldr	r3, [pc, #248]	; (8003d78 <HAL_RCC_OscConfig+0x424>)
 8003c80:	6899      	ldr	r1, [r3, #8]
 8003c82:	001d      	movs	r5, r3
 8003c84:	4001      	ands	r1, r0
 8003c86:	2910      	cmp	r1, #16
 8003c88:	d050      	beq.n	8003d2c <HAL_RCC_OscConfig+0x3d8>
 8003c8a:	681b      	ldr	r3, [r3, #0]
 8003c8c:	493b      	ldr	r1, [pc, #236]	; (8003d7c <HAL_RCC_OscConfig+0x428>)
 8003c8e:	400b      	ands	r3, r1
 8003c90:	602b      	str	r3, [r5, #0]
 8003c92:	2a02      	cmp	r2, #2
 8003c94:	d135      	bne.n	8003d02 <HAL_RCC_OscConfig+0x3ae>
 8003c96:	f7ff fd1b 	bl	80036d0 <HAL_GetTick>
 8003c9a:	2780      	movs	r7, #128	; 0x80
 8003c9c:	0006      	movs	r6, r0
 8003c9e:	04bf      	lsls	r7, r7, #18
 8003ca0:	682b      	ldr	r3, [r5, #0]
 8003ca2:	423b      	tst	r3, r7
 8003ca4:	d127      	bne.n	8003cf6 <HAL_RCC_OscConfig+0x3a2>
 8003ca6:	6a61      	ldr	r1, [r4, #36]	; 0x24
 8003ca8:	6a23      	ldr	r3, [r4, #32]
 8003caa:	68ea      	ldr	r2, [r5, #12]
 8003cac:	430b      	orrs	r3, r1
 8003cae:	4934      	ldr	r1, [pc, #208]	; (8003d80 <HAL_RCC_OscConfig+0x42c>)
 8003cb0:	2680      	movs	r6, #128	; 0x80
 8003cb2:	400a      	ands	r2, r1
 8003cb4:	4313      	orrs	r3, r2
 8003cb6:	6ae2      	ldr	r2, [r4, #44]	; 0x2c
 8003cb8:	04b6      	lsls	r6, r6, #18
 8003cba:	4313      	orrs	r3, r2
 8003cbc:	6b22      	ldr	r2, [r4, #48]	; 0x30
 8003cbe:	4313      	orrs	r3, r2
 8003cc0:	6aa2      	ldr	r2, [r4, #40]	; 0x28
 8003cc2:	0212      	lsls	r2, r2, #8
 8003cc4:	4313      	orrs	r3, r2
 8003cc6:	60eb      	str	r3, [r5, #12]
 8003cc8:	2380      	movs	r3, #128	; 0x80
 8003cca:	682a      	ldr	r2, [r5, #0]
 8003ccc:	045b      	lsls	r3, r3, #17
 8003cce:	4313      	orrs	r3, r2
 8003cd0:	602b      	str	r3, [r5, #0]
 8003cd2:	2380      	movs	r3, #128	; 0x80
 8003cd4:	68ea      	ldr	r2, [r5, #12]
 8003cd6:	055b      	lsls	r3, r3, #21
 8003cd8:	4313      	orrs	r3, r2
 8003cda:	60eb      	str	r3, [r5, #12]
 8003cdc:	f7ff fcf8 	bl	80036d0 <HAL_GetTick>
 8003ce0:	0004      	movs	r4, r0
 8003ce2:	682b      	ldr	r3, [r5, #0]
 8003ce4:	4233      	tst	r3, r6
 8003ce6:	d000      	beq.n	8003cea <HAL_RCC_OscConfig+0x396>
 8003ce8:	e64b      	b.n	8003982 <HAL_RCC_OscConfig+0x2e>
 8003cea:	f7ff fcf1 	bl	80036d0 <HAL_GetTick>
 8003cee:	1b00      	subs	r0, r0, r4
 8003cf0:	2802      	cmp	r0, #2
 8003cf2:	d9f6      	bls.n	8003ce2 <HAL_RCC_OscConfig+0x38e>
 8003cf4:	e670      	b.n	80039d8 <HAL_RCC_OscConfig+0x84>
 8003cf6:	f7ff fceb 	bl	80036d0 <HAL_GetTick>
 8003cfa:	1b80      	subs	r0, r0, r6
 8003cfc:	2802      	cmp	r0, #2
 8003cfe:	d9cf      	bls.n	8003ca0 <HAL_RCC_OscConfig+0x34c>
 8003d00:	e66a      	b.n	80039d8 <HAL_RCC_OscConfig+0x84>
 8003d02:	f7ff fce5 	bl	80036d0 <HAL_GetTick>
 8003d06:	2680      	movs	r6, #128	; 0x80
 8003d08:	0004      	movs	r4, r0
 8003d0a:	04b6      	lsls	r6, r6, #18
 8003d0c:	682b      	ldr	r3, [r5, #0]
 8003d0e:	0018      	movs	r0, r3
 8003d10:	4030      	ands	r0, r6
 8003d12:	4233      	tst	r3, r6
 8003d14:	d104      	bne.n	8003d20 <HAL_RCC_OscConfig+0x3cc>
 8003d16:	68eb      	ldr	r3, [r5, #12]
 8003d18:	4a1a      	ldr	r2, [pc, #104]	; (8003d84 <HAL_RCC_OscConfig+0x430>)
 8003d1a:	4013      	ands	r3, r2
 8003d1c:	60eb      	str	r3, [r5, #12]
 8003d1e:	e65c      	b.n	80039da <HAL_RCC_OscConfig+0x86>
 8003d20:	f7ff fcd6 	bl	80036d0 <HAL_GetTick>
 8003d24:	1b00      	subs	r0, r0, r4
 8003d26:	2802      	cmp	r0, #2
 8003d28:	d9f0      	bls.n	8003d0c <HAL_RCC_OscConfig+0x3b8>
 8003d2a:	e655      	b.n	80039d8 <HAL_RCC_OscConfig+0x84>
 8003d2c:	2a01      	cmp	r2, #1
 8003d2e:	d100      	bne.n	8003d32 <HAL_RCC_OscConfig+0x3de>
 8003d30:	e639      	b.n	80039a6 <HAL_RCC_OscConfig+0x52>
 8003d32:	2203      	movs	r2, #3
 8003d34:	68db      	ldr	r3, [r3, #12]
 8003d36:	6a21      	ldr	r1, [r4, #32]
 8003d38:	401a      	ands	r2, r3
 8003d3a:	428a      	cmp	r2, r1
 8003d3c:	d000      	beq.n	8003d40 <HAL_RCC_OscConfig+0x3ec>
 8003d3e:	e632      	b.n	80039a6 <HAL_RCC_OscConfig+0x52>
 8003d40:	2270      	movs	r2, #112	; 0x70
 8003d42:	6a61      	ldr	r1, [r4, #36]	; 0x24
 8003d44:	401a      	ands	r2, r3
 8003d46:	428a      	cmp	r2, r1
 8003d48:	d000      	beq.n	8003d4c <HAL_RCC_OscConfig+0x3f8>
 8003d4a:	e62c      	b.n	80039a6 <HAL_RCC_OscConfig+0x52>
 8003d4c:	21fe      	movs	r1, #254	; 0xfe
 8003d4e:	6aa2      	ldr	r2, [r4, #40]	; 0x28
 8003d50:	01c9      	lsls	r1, r1, #7
 8003d52:	4019      	ands	r1, r3
 8003d54:	0212      	lsls	r2, r2, #8
 8003d56:	4291      	cmp	r1, r2
 8003d58:	d000      	beq.n	8003d5c <HAL_RCC_OscConfig+0x408>
 8003d5a:	e624      	b.n	80039a6 <HAL_RCC_OscConfig+0x52>
 8003d5c:	22f8      	movs	r2, #248	; 0xf8
 8003d5e:	6ae1      	ldr	r1, [r4, #44]	; 0x2c
 8003d60:	0392      	lsls	r2, r2, #14
 8003d62:	401a      	ands	r2, r3
 8003d64:	428a      	cmp	r2, r1
 8003d66:	d000      	beq.n	8003d6a <HAL_RCC_OscConfig+0x416>
 8003d68:	e61d      	b.n	80039a6 <HAL_RCC_OscConfig+0x52>
 8003d6a:	6b22      	ldr	r2, [r4, #48]	; 0x30
 8003d6c:	0f5b      	lsrs	r3, r3, #29
 8003d6e:	075b      	lsls	r3, r3, #29
 8003d70:	4293      	cmp	r3, r2
 8003d72:	d100      	bne.n	8003d76 <HAL_RCC_OscConfig+0x422>
 8003d74:	e605      	b.n	8003982 <HAL_RCC_OscConfig+0x2e>
 8003d76:	e616      	b.n	80039a6 <HAL_RCC_OscConfig+0x52>
 8003d78:	40021000 	.word	0x40021000
 8003d7c:	feffffff 	.word	0xfeffffff
 8003d80:	1fc1808c 	.word	0x1fc1808c
 8003d84:	effefffc 	.word	0xeffefffc

08003d88 <HAL_RCC_GetSysClockFreq>:
 8003d88:	2338      	movs	r3, #56	; 0x38
 8003d8a:	4a1e      	ldr	r2, [pc, #120]	; (8003e04 <HAL_RCC_GetSysClockFreq+0x7c>)
 8003d8c:	b570      	push	{r4, r5, r6, lr}
 8003d8e:	6891      	ldr	r1, [r2, #8]
 8003d90:	0014      	movs	r4, r2
 8003d92:	4219      	tst	r1, r3
 8003d94:	d105      	bne.n	8003da2 <HAL_RCC_GetSysClockFreq+0x1a>
 8003d96:	6813      	ldr	r3, [r2, #0]
 8003d98:	481b      	ldr	r0, [pc, #108]	; (8003e08 <HAL_RCC_GetSysClockFreq+0x80>)
 8003d9a:	049b      	lsls	r3, r3, #18
 8003d9c:	0f5b      	lsrs	r3, r3, #29
 8003d9e:	40d8      	lsrs	r0, r3
 8003da0:	bd70      	pop	{r4, r5, r6, pc}
 8003da2:	6891      	ldr	r1, [r2, #8]
 8003da4:	4019      	ands	r1, r3
 8003da6:	2908      	cmp	r1, #8
 8003da8:	d027      	beq.n	8003dfa <HAL_RCC_GetSysClockFreq+0x72>
 8003daa:	6891      	ldr	r1, [r2, #8]
 8003dac:	4019      	ands	r1, r3
 8003dae:	2910      	cmp	r1, #16
 8003db0:	d117      	bne.n	8003de2 <HAL_RCC_GetSysClockFreq+0x5a>
 8003db2:	68d3      	ldr	r3, [r2, #12]
 8003db4:	68d1      	ldr	r1, [r2, #12]
 8003db6:	43db      	mvns	r3, r3
 8003db8:	227f      	movs	r2, #127	; 0x7f
 8003dba:	68e5      	ldr	r5, [r4, #12]
 8003dbc:	0649      	lsls	r1, r1, #25
 8003dbe:	0f49      	lsrs	r1, r1, #29
 8003dc0:	0a2d      	lsrs	r5, r5, #8
 8003dc2:	3101      	adds	r1, #1
 8003dc4:	4015      	ands	r5, r2
 8003dc6:	079b      	lsls	r3, r3, #30
 8003dc8:	d109      	bne.n	8003dde <HAL_RCC_GetSysClockFreq+0x56>
 8003dca:	4810      	ldr	r0, [pc, #64]	; (8003e0c <HAL_RCC_GetSysClockFreq+0x84>)
 8003dcc:	f7fc f9a2 	bl	8000114 <__udivsi3>
 8003dd0:	68e1      	ldr	r1, [r4, #12]
 8003dd2:	4368      	muls	r0, r5
 8003dd4:	0f49      	lsrs	r1, r1, #29
 8003dd6:	3101      	adds	r1, #1
 8003dd8:	f7fc f99c 	bl	8000114 <__udivsi3>
 8003ddc:	e7e0      	b.n	8003da0 <HAL_RCC_GetSysClockFreq+0x18>
 8003dde:	480a      	ldr	r0, [pc, #40]	; (8003e08 <HAL_RCC_GetSysClockFreq+0x80>)
 8003de0:	e7f4      	b.n	8003dcc <HAL_RCC_GetSysClockFreq+0x44>
 8003de2:	6891      	ldr	r1, [r2, #8]
 8003de4:	4019      	ands	r1, r3
 8003de6:	2920      	cmp	r1, #32
 8003de8:	d009      	beq.n	8003dfe <HAL_RCC_GetSysClockFreq+0x76>
 8003dea:	6892      	ldr	r2, [r2, #8]
 8003dec:	2000      	movs	r0, #0
 8003dee:	4013      	ands	r3, r2
 8003df0:	2b18      	cmp	r3, #24
 8003df2:	d1d5      	bne.n	8003da0 <HAL_RCC_GetSysClockFreq+0x18>
 8003df4:	20fa      	movs	r0, #250	; 0xfa
 8003df6:	01c0      	lsls	r0, r0, #7
 8003df8:	e7d2      	b.n	8003da0 <HAL_RCC_GetSysClockFreq+0x18>
 8003dfa:	4804      	ldr	r0, [pc, #16]	; (8003e0c <HAL_RCC_GetSysClockFreq+0x84>)
 8003dfc:	e7d0      	b.n	8003da0 <HAL_RCC_GetSysClockFreq+0x18>
 8003dfe:	2080      	movs	r0, #128	; 0x80
 8003e00:	0200      	lsls	r0, r0, #8
 8003e02:	e7cd      	b.n	8003da0 <HAL_RCC_GetSysClockFreq+0x18>
 8003e04:	40021000 	.word	0x40021000
 8003e08:	00f42400 	.word	0x00f42400
 8003e0c:	007a1200 	.word	0x007a1200

08003e10 <HAL_RCC_ClockConfig>:
 8003e10:	b5f7      	push	{r0, r1, r2, r4, r5, r6, r7, lr}
 8003e12:	0005      	movs	r5, r0
 8003e14:	000e      	movs	r6, r1
 8003e16:	2800      	cmp	r0, #0
 8003e18:	d101      	bne.n	8003e1e <HAL_RCC_ClockConfig+0xe>
 8003e1a:	2001      	movs	r0, #1
 8003e1c:	bdfe      	pop	{r1, r2, r3, r4, r5, r6, r7, pc}
 8003e1e:	2707      	movs	r7, #7
 8003e20:	4c4a      	ldr	r4, [pc, #296]	; (8003f4c <HAL_RCC_ClockConfig+0x13c>)
 8003e22:	6823      	ldr	r3, [r4, #0]
 8003e24:	403b      	ands	r3, r7
 8003e26:	428b      	cmp	r3, r1
 8003e28:	d32a      	bcc.n	8003e80 <HAL_RCC_ClockConfig+0x70>
 8003e2a:	6829      	ldr	r1, [r5, #0]
 8003e2c:	078b      	lsls	r3, r1, #30
 8003e2e:	d43b      	bmi.n	8003ea8 <HAL_RCC_ClockConfig+0x98>
 8003e30:	07cb      	lsls	r3, r1, #31
 8003e32:	d448      	bmi.n	8003ec6 <HAL_RCC_ClockConfig+0xb6>
 8003e34:	2707      	movs	r7, #7
 8003e36:	6823      	ldr	r3, [r4, #0]
 8003e38:	403b      	ands	r3, r7
 8003e3a:	42b3      	cmp	r3, r6
 8003e3c:	d90a      	bls.n	8003e54 <HAL_RCC_ClockConfig+0x44>
 8003e3e:	6823      	ldr	r3, [r4, #0]
 8003e40:	43bb      	bics	r3, r7
 8003e42:	4333      	orrs	r3, r6
 8003e44:	6023      	str	r3, [r4, #0]
 8003e46:	f7ff fc43 	bl	80036d0 <HAL_GetTick>
 8003e4a:	9001      	str	r0, [sp, #4]
 8003e4c:	6823      	ldr	r3, [r4, #0]
 8003e4e:	403b      	ands	r3, r7
 8003e50:	42b3      	cmp	r3, r6
 8003e52:	d16b      	bne.n	8003f2c <HAL_RCC_ClockConfig+0x11c>
 8003e54:	682b      	ldr	r3, [r5, #0]
 8003e56:	4c3e      	ldr	r4, [pc, #248]	; (8003f50 <HAL_RCC_ClockConfig+0x140>)
 8003e58:	075b      	lsls	r3, r3, #29
 8003e5a:	d46f      	bmi.n	8003f3c <HAL_RCC_ClockConfig+0x12c>
 8003e5c:	f7ff ff94 	bl	8003d88 <HAL_RCC_GetSysClockFreq>
 8003e60:	68a3      	ldr	r3, [r4, #8]
 8003e62:	4a3c      	ldr	r2, [pc, #240]	; (8003f54 <HAL_RCC_ClockConfig+0x144>)
 8003e64:	051b      	lsls	r3, r3, #20
 8003e66:	0f1b      	lsrs	r3, r3, #28
 8003e68:	009b      	lsls	r3, r3, #2
 8003e6a:	589b      	ldr	r3, [r3, r2]
 8003e6c:	221f      	movs	r2, #31
 8003e6e:	4013      	ands	r3, r2
 8003e70:	40d8      	lsrs	r0, r3
 8003e72:	4b39      	ldr	r3, [pc, #228]	; (8003f58 <HAL_RCC_ClockConfig+0x148>)
 8003e74:	6018      	str	r0, [r3, #0]
 8003e76:	4b39      	ldr	r3, [pc, #228]	; (8003f5c <HAL_RCC_ClockConfig+0x14c>)
 8003e78:	6818      	ldr	r0, [r3, #0]
 8003e7a:	f7ff fbe1 	bl	8003640 <HAL_InitTick>
 8003e7e:	e7cd      	b.n	8003e1c <HAL_RCC_ClockConfig+0xc>
 8003e80:	6823      	ldr	r3, [r4, #0]
 8003e82:	43bb      	bics	r3, r7
 8003e84:	430b      	orrs	r3, r1
 8003e86:	6023      	str	r3, [r4, #0]
 8003e88:	f7ff fc22 	bl	80036d0 <HAL_GetTick>
 8003e8c:	9001      	str	r0, [sp, #4]
 8003e8e:	6823      	ldr	r3, [r4, #0]
 8003e90:	403b      	ands	r3, r7
 8003e92:	42b3      	cmp	r3, r6
 8003e94:	d0c9      	beq.n	8003e2a <HAL_RCC_ClockConfig+0x1a>
 8003e96:	f7ff fc1b 	bl	80036d0 <HAL_GetTick>
 8003e9a:	9b01      	ldr	r3, [sp, #4]
 8003e9c:	1ac0      	subs	r0, r0, r3
 8003e9e:	4b30      	ldr	r3, [pc, #192]	; (8003f60 <HAL_RCC_ClockConfig+0x150>)
 8003ea0:	4298      	cmp	r0, r3
 8003ea2:	d9f4      	bls.n	8003e8e <HAL_RCC_ClockConfig+0x7e>
 8003ea4:	2003      	movs	r0, #3
 8003ea6:	e7b9      	b.n	8003e1c <HAL_RCC_ClockConfig+0xc>
 8003ea8:	4a29      	ldr	r2, [pc, #164]	; (8003f50 <HAL_RCC_ClockConfig+0x140>)
 8003eaa:	074b      	lsls	r3, r1, #29
 8003eac:	d504      	bpl.n	8003eb8 <HAL_RCC_ClockConfig+0xa8>
 8003eae:	23e0      	movs	r3, #224	; 0xe0
 8003eb0:	6890      	ldr	r0, [r2, #8]
 8003eb2:	01db      	lsls	r3, r3, #7
 8003eb4:	4303      	orrs	r3, r0
 8003eb6:	6093      	str	r3, [r2, #8]
 8003eb8:	6893      	ldr	r3, [r2, #8]
 8003eba:	482a      	ldr	r0, [pc, #168]	; (8003f64 <HAL_RCC_ClockConfig+0x154>)
 8003ebc:	4003      	ands	r3, r0
 8003ebe:	68a8      	ldr	r0, [r5, #8]
 8003ec0:	4303      	orrs	r3, r0
 8003ec2:	6093      	str	r3, [r2, #8]
 8003ec4:	e7b4      	b.n	8003e30 <HAL_RCC_ClockConfig+0x20>
 8003ec6:	686a      	ldr	r2, [r5, #4]
 8003ec8:	4f21      	ldr	r7, [pc, #132]	; (8003f50 <HAL_RCC_ClockConfig+0x140>)
 8003eca:	2a01      	cmp	r2, #1
 8003ecc:	d119      	bne.n	8003f02 <HAL_RCC_ClockConfig+0xf2>
 8003ece:	683b      	ldr	r3, [r7, #0]
 8003ed0:	039b      	lsls	r3, r3, #14
 8003ed2:	d5a2      	bpl.n	8003e1a <HAL_RCC_ClockConfig+0xa>
 8003ed4:	2107      	movs	r1, #7
 8003ed6:	68bb      	ldr	r3, [r7, #8]
 8003ed8:	438b      	bics	r3, r1
 8003eda:	4313      	orrs	r3, r2
 8003edc:	60bb      	str	r3, [r7, #8]
 8003ede:	f7ff fbf7 	bl	80036d0 <HAL_GetTick>
 8003ee2:	9001      	str	r0, [sp, #4]
 8003ee4:	2338      	movs	r3, #56	; 0x38
 8003ee6:	68ba      	ldr	r2, [r7, #8]
 8003ee8:	401a      	ands	r2, r3
 8003eea:	686b      	ldr	r3, [r5, #4]
 8003eec:	00db      	lsls	r3, r3, #3
 8003eee:	429a      	cmp	r2, r3
 8003ef0:	d0a0      	beq.n	8003e34 <HAL_RCC_ClockConfig+0x24>
 8003ef2:	f7ff fbed 	bl	80036d0 <HAL_GetTick>
 8003ef6:	9b01      	ldr	r3, [sp, #4]
 8003ef8:	1ac0      	subs	r0, r0, r3
 8003efa:	4b19      	ldr	r3, [pc, #100]	; (8003f60 <HAL_RCC_ClockConfig+0x150>)
 8003efc:	4298      	cmp	r0, r3
 8003efe:	d9f1      	bls.n	8003ee4 <HAL_RCC_ClockConfig+0xd4>
 8003f00:	e7d0      	b.n	8003ea4 <HAL_RCC_ClockConfig+0x94>
 8003f02:	2a02      	cmp	r2, #2
 8003f04:	d103      	bne.n	8003f0e <HAL_RCC_ClockConfig+0xfe>
 8003f06:	683b      	ldr	r3, [r7, #0]
 8003f08:	019b      	lsls	r3, r3, #6
 8003f0a:	d4e3      	bmi.n	8003ed4 <HAL_RCC_ClockConfig+0xc4>
 8003f0c:	e785      	b.n	8003e1a <HAL_RCC_ClockConfig+0xa>
 8003f0e:	2a00      	cmp	r2, #0
 8003f10:	d103      	bne.n	8003f1a <HAL_RCC_ClockConfig+0x10a>
 8003f12:	683b      	ldr	r3, [r7, #0]
 8003f14:	055b      	lsls	r3, r3, #21
 8003f16:	d4dd      	bmi.n	8003ed4 <HAL_RCC_ClockConfig+0xc4>
 8003f18:	e77f      	b.n	8003e1a <HAL_RCC_ClockConfig+0xa>
 8003f1a:	2302      	movs	r3, #2
 8003f1c:	2a03      	cmp	r2, #3
 8003f1e:	d103      	bne.n	8003f28 <HAL_RCC_ClockConfig+0x118>
 8003f20:	6e39      	ldr	r1, [r7, #96]	; 0x60
 8003f22:	4219      	tst	r1, r3
 8003f24:	d1d6      	bne.n	8003ed4 <HAL_RCC_ClockConfig+0xc4>
 8003f26:	e778      	b.n	8003e1a <HAL_RCC_ClockConfig+0xa>
 8003f28:	6df9      	ldr	r1, [r7, #92]	; 0x5c
 8003f2a:	e7fa      	b.n	8003f22 <HAL_RCC_ClockConfig+0x112>
 8003f2c:	f7ff fbd0 	bl	80036d0 <HAL_GetTick>
 8003f30:	9b01      	ldr	r3, [sp, #4]
 8003f32:	1ac0      	subs	r0, r0, r3
 8003f34:	4b0a      	ldr	r3, [pc, #40]	; (8003f60 <HAL_RCC_ClockConfig+0x150>)
 8003f36:	4298      	cmp	r0, r3
 8003f38:	d988      	bls.n	8003e4c <HAL_RCC_ClockConfig+0x3c>
 8003f3a:	e7b3      	b.n	8003ea4 <HAL_RCC_ClockConfig+0x94>
 8003f3c:	68a3      	ldr	r3, [r4, #8]
 8003f3e:	4a0a      	ldr	r2, [pc, #40]	; (8003f68 <HAL_RCC_ClockConfig+0x158>)
 8003f40:	4013      	ands	r3, r2
 8003f42:	68ea      	ldr	r2, [r5, #12]
 8003f44:	4313      	orrs	r3, r2
 8003f46:	60a3      	str	r3, [r4, #8]
 8003f48:	e788      	b.n	8003e5c <HAL_RCC_ClockConfig+0x4c>
 8003f4a:	46c0      	nop			; (mov r8, r8)
 8003f4c:	40022000 	.word	0x40022000
 8003f50:	40021000 	.word	0x40021000
 8003f54:	0800637c 	.word	0x0800637c
 8003f58:	20000014 	.word	0x20000014
 8003f5c:	2000001c 	.word	0x2000001c
 8003f60:	00001388 	.word	0x00001388
 8003f64:	fffff0ff 	.word	0xfffff0ff
 8003f68:	ffff8fff 	.word	0xffff8fff

08003f6c <SPI_WaitFlagStateUntilTimeout.constprop.0>:
 8003f6c:	b5f0      	push	{r4, r5, r6, r7, lr}
 8003f6e:	000e      	movs	r6, r1
 8003f70:	b085      	sub	sp, #20
 8003f72:	0015      	movs	r5, r2
 8003f74:	0004      	movs	r4, r0
 8003f76:	f7ff fbab 	bl	80036d0 <HAL_GetTick>
 8003f7a:	19ad      	adds	r5, r5, r6
 8003f7c:	1a2d      	subs	r5, r5, r0
 8003f7e:	f7ff fba7 	bl	80036d0 <HAL_GetTick>
 8003f82:	2780      	movs	r7, #128	; 0x80
 8003f84:	4b25      	ldr	r3, [pc, #148]	; (800401c <SPI_WaitFlagStateUntilTimeout.constprop.0+0xb0>)
 8003f86:	9001      	str	r0, [sp, #4]
 8003f88:	681b      	ldr	r3, [r3, #0]
 8003f8a:	015b      	lsls	r3, r3, #5
 8003f8c:	0d1b      	lsrs	r3, r3, #20
 8003f8e:	436b      	muls	r3, r5
 8003f90:	9303      	str	r3, [sp, #12]
 8003f92:	6822      	ldr	r2, [r4, #0]
 8003f94:	6893      	ldr	r3, [r2, #8]
 8003f96:	0018      	movs	r0, r3
 8003f98:	4038      	ands	r0, r7
 8003f9a:	423b      	tst	r3, r7
 8003f9c:	d032      	beq.n	8004004 <SPI_WaitFlagStateUntilTimeout.constprop.0+0x98>
 8003f9e:	1c73      	adds	r3, r6, #1
 8003fa0:	d0f8      	beq.n	8003f94 <SPI_WaitFlagStateUntilTimeout.constprop.0+0x28>
 8003fa2:	f7ff fb95 	bl	80036d0 <HAL_GetTick>
 8003fa6:	9b01      	ldr	r3, [sp, #4]
 8003fa8:	1ac0      	subs	r0, r0, r3
 8003faa:	42a8      	cmp	r0, r5
 8003fac:	d32c      	bcc.n	8004008 <SPI_WaitFlagStateUntilTimeout.constprop.0+0x9c>
 8003fae:	21e0      	movs	r1, #224	; 0xe0
 8003fb0:	6823      	ldr	r3, [r4, #0]
 8003fb2:	685a      	ldr	r2, [r3, #4]
 8003fb4:	438a      	bics	r2, r1
 8003fb6:	605a      	str	r2, [r3, #4]
 8003fb8:	2282      	movs	r2, #130	; 0x82
 8003fba:	6861      	ldr	r1, [r4, #4]
 8003fbc:	0052      	lsls	r2, r2, #1
 8003fbe:	4291      	cmp	r1, r2
 8003fc0:	d10c      	bne.n	8003fdc <SPI_WaitFlagStateUntilTimeout.constprop.0+0x70>
 8003fc2:	2180      	movs	r1, #128	; 0x80
 8003fc4:	68a2      	ldr	r2, [r4, #8]
 8003fc6:	0209      	lsls	r1, r1, #8
 8003fc8:	428a      	cmp	r2, r1
 8003fca:	d003      	beq.n	8003fd4 <SPI_WaitFlagStateUntilTimeout.constprop.0+0x68>
 8003fcc:	2180      	movs	r1, #128	; 0x80
 8003fce:	00c9      	lsls	r1, r1, #3
 8003fd0:	428a      	cmp	r2, r1
 8003fd2:	d103      	bne.n	8003fdc <SPI_WaitFlagStateUntilTimeout.constprop.0+0x70>
 8003fd4:	2140      	movs	r1, #64	; 0x40
 8003fd6:	681a      	ldr	r2, [r3, #0]
 8003fd8:	438a      	bics	r2, r1
 8003fda:	601a      	str	r2, [r3, #0]
 8003fdc:	2180      	movs	r1, #128	; 0x80
 8003fde:	6aa2      	ldr	r2, [r4, #40]	; 0x28
 8003fe0:	0189      	lsls	r1, r1, #6
 8003fe2:	428a      	cmp	r2, r1
 8003fe4:	d106      	bne.n	8003ff4 <SPI_WaitFlagStateUntilTimeout.constprop.0+0x88>
 8003fe6:	6819      	ldr	r1, [r3, #0]
 8003fe8:	480d      	ldr	r0, [pc, #52]	; (8004020 <SPI_WaitFlagStateUntilTimeout.constprop.0+0xb4>)
 8003fea:	4001      	ands	r1, r0
 8003fec:	6019      	str	r1, [r3, #0]
 8003fee:	6819      	ldr	r1, [r3, #0]
 8003ff0:	430a      	orrs	r2, r1
 8003ff2:	601a      	str	r2, [r3, #0]
 8003ff4:	0023      	movs	r3, r4
 8003ff6:	2201      	movs	r2, #1
 8003ff8:	335d      	adds	r3, #93	; 0x5d
 8003ffa:	701a      	strb	r2, [r3, #0]
 8003ffc:	2300      	movs	r3, #0
 8003ffe:	2003      	movs	r0, #3
 8004000:	345c      	adds	r4, #92	; 0x5c
 8004002:	7023      	strb	r3, [r4, #0]
 8004004:	b005      	add	sp, #20
 8004006:	bdf0      	pop	{r4, r5, r6, r7, pc}
 8004008:	9b03      	ldr	r3, [sp, #12]
 800400a:	1e5a      	subs	r2, r3, #1
 800400c:	4193      	sbcs	r3, r2
 800400e:	425b      	negs	r3, r3
 8004010:	401d      	ands	r5, r3
 8004012:	9b03      	ldr	r3, [sp, #12]
 8004014:	3b01      	subs	r3, #1
 8004016:	9303      	str	r3, [sp, #12]
 8004018:	e7bb      	b.n	8003f92 <SPI_WaitFlagStateUntilTimeout.constprop.0+0x26>
 800401a:	46c0      	nop			; (mov r8, r8)
 800401c:	20000014 	.word	0x20000014
 8004020:	ffffdfff 	.word	0xffffdfff

08004024 <SPI_WaitFifoStateUntilTimeout.constprop.0>:
 8004024:	b5f0      	push	{r4, r5, r6, r7, lr}
 8004026:	0017      	movs	r7, r2
 8004028:	2200      	movs	r2, #0
 800402a:	b085      	sub	sp, #20
 800402c:	001d      	movs	r5, r3
 800402e:	ab02      	add	r3, sp, #8
 8004030:	70da      	strb	r2, [r3, #3]
 8004032:	0004      	movs	r4, r0
 8004034:	000e      	movs	r6, r1
 8004036:	f7ff fb4b 	bl	80036d0 <HAL_GetTick>
 800403a:	19ed      	adds	r5, r5, r7
 800403c:	1a2d      	subs	r5, r5, r0
 800403e:	f7ff fb47 	bl	80036d0 <HAL_GetTick>
 8004042:	2223      	movs	r2, #35	; 0x23
 8004044:	6823      	ldr	r3, [r4, #0]
 8004046:	9000      	str	r0, [sp, #0]
 8004048:	9301      	str	r3, [sp, #4]
 800404a:	4b2a      	ldr	r3, [pc, #168]	; (80040f4 <SPI_WaitFifoStateUntilTimeout.constprop.0+0xd0>)
 800404c:	681b      	ldr	r3, [r3, #0]
 800404e:	4353      	muls	r3, r2
 8004050:	0d1b      	lsrs	r3, r3, #20
 8004052:	436b      	muls	r3, r5
 8004054:	9303      	str	r3, [sp, #12]
 8004056:	6821      	ldr	r1, [r4, #0]
 8004058:	ab02      	add	r3, sp, #8
 800405a:	1cda      	adds	r2, r3, #3
 800405c:	688b      	ldr	r3, [r1, #8]
 800405e:	0018      	movs	r0, r3
 8004060:	4030      	ands	r0, r6
 8004062:	4233      	tst	r3, r6
 8004064:	d03b      	beq.n	80040de <SPI_WaitFifoStateUntilTimeout.constprop.0+0xba>
 8004066:	23c0      	movs	r3, #192	; 0xc0
 8004068:	00db      	lsls	r3, r3, #3
 800406a:	429e      	cmp	r6, r3
 800406c:	d104      	bne.n	8004078 <SPI_WaitFifoStateUntilTimeout.constprop.0+0x54>
 800406e:	9b01      	ldr	r3, [sp, #4]
 8004070:	7b1b      	ldrb	r3, [r3, #12]
 8004072:	b2db      	uxtb	r3, r3
 8004074:	7013      	strb	r3, [r2, #0]
 8004076:	7813      	ldrb	r3, [r2, #0]
 8004078:	1c7b      	adds	r3, r7, #1
 800407a:	d0ef      	beq.n	800405c <SPI_WaitFifoStateUntilTimeout.constprop.0+0x38>
 800407c:	f7ff fb28 	bl	80036d0 <HAL_GetTick>
 8004080:	9b00      	ldr	r3, [sp, #0]
 8004082:	1ac0      	subs	r0, r0, r3
 8004084:	42a8      	cmp	r0, r5
 8004086:	d32c      	bcc.n	80040e2 <SPI_WaitFifoStateUntilTimeout.constprop.0+0xbe>
 8004088:	21e0      	movs	r1, #224	; 0xe0
 800408a:	6823      	ldr	r3, [r4, #0]
 800408c:	685a      	ldr	r2, [r3, #4]
 800408e:	438a      	bics	r2, r1
 8004090:	605a      	str	r2, [r3, #4]
 8004092:	2282      	movs	r2, #130	; 0x82
 8004094:	6861      	ldr	r1, [r4, #4]
 8004096:	0052      	lsls	r2, r2, #1
 8004098:	4291      	cmp	r1, r2
 800409a:	d10c      	bne.n	80040b6 <SPI_WaitFifoStateUntilTimeout.constprop.0+0x92>
 800409c:	2180      	movs	r1, #128	; 0x80
 800409e:	68a2      	ldr	r2, [r4, #8]
 80040a0:	0209      	lsls	r1, r1, #8
 80040a2:	428a      	cmp	r2, r1
 80040a4:	d003      	beq.n	80040ae <SPI_WaitFifoStateUntilTimeout.constprop.0+0x8a>
 80040a6:	2180      	movs	r1, #128	; 0x80
 80040a8:	00c9      	lsls	r1, r1, #3
 80040aa:	428a      	cmp	r2, r1
 80040ac:	d103      	bne.n	80040b6 <SPI_WaitFifoStateUntilTimeout.constprop.0+0x92>
 80040ae:	2140      	movs	r1, #64	; 0x40
 80040b0:	681a      	ldr	r2, [r3, #0]
 80040b2:	438a      	bics	r2, r1
 80040b4:	601a      	str	r2, [r3, #0]
 80040b6:	2180      	movs	r1, #128	; 0x80
 80040b8:	6aa2      	ldr	r2, [r4, #40]	; 0x28
 80040ba:	0189      	lsls	r1, r1, #6
 80040bc:	428a      	cmp	r2, r1
 80040be:	d106      	bne.n	80040ce <SPI_WaitFifoStateUntilTimeout.constprop.0+0xaa>
 80040c0:	6819      	ldr	r1, [r3, #0]
 80040c2:	480d      	ldr	r0, [pc, #52]	; (80040f8 <SPI_WaitFifoStateUntilTimeout.constprop.0+0xd4>)
 80040c4:	4001      	ands	r1, r0
 80040c6:	6019      	str	r1, [r3, #0]
 80040c8:	6819      	ldr	r1, [r3, #0]
 80040ca:	430a      	orrs	r2, r1
 80040cc:	601a      	str	r2, [r3, #0]
 80040ce:	0023      	movs	r3, r4
 80040d0:	2201      	movs	r2, #1
 80040d2:	335d      	adds	r3, #93	; 0x5d
 80040d4:	701a      	strb	r2, [r3, #0]
 80040d6:	2300      	movs	r3, #0
 80040d8:	2003      	movs	r0, #3
 80040da:	345c      	adds	r4, #92	; 0x5c
 80040dc:	7023      	strb	r3, [r4, #0]
 80040de:	b005      	add	sp, #20
 80040e0:	bdf0      	pop	{r4, r5, r6, r7, pc}
 80040e2:	9b03      	ldr	r3, [sp, #12]
 80040e4:	1e5a      	subs	r2, r3, #1
 80040e6:	4193      	sbcs	r3, r2
 80040e8:	425b      	negs	r3, r3
 80040ea:	401d      	ands	r5, r3
 80040ec:	9b03      	ldr	r3, [sp, #12]
 80040ee:	3b01      	subs	r3, #1
 80040f0:	e7b0      	b.n	8004054 <SPI_WaitFifoStateUntilTimeout.constprop.0+0x30>
 80040f2:	46c0      	nop			; (mov r8, r8)
 80040f4:	20000014 	.word	0x20000014
 80040f8:	ffffdfff 	.word	0xffffdfff

080040fc <SPI_EndRxTxTransaction>:
 80040fc:	b570      	push	{r4, r5, r6, lr}
 80040fe:	0013      	movs	r3, r2
 8004100:	000d      	movs	r5, r1
 8004102:	0016      	movs	r6, r2
 8004104:	000a      	movs	r2, r1
 8004106:	21c0      	movs	r1, #192	; 0xc0
 8004108:	0149      	lsls	r1, r1, #5
 800410a:	0004      	movs	r4, r0
 800410c:	f7ff ff8a 	bl	8004024 <SPI_WaitFifoStateUntilTimeout.constprop.0>
 8004110:	2800      	cmp	r0, #0
 8004112:	d005      	beq.n	8004120 <SPI_EndRxTxTransaction+0x24>
 8004114:	2320      	movs	r3, #32
 8004116:	6e22      	ldr	r2, [r4, #96]	; 0x60
 8004118:	2003      	movs	r0, #3
 800411a:	4313      	orrs	r3, r2
 800411c:	6623      	str	r3, [r4, #96]	; 0x60
 800411e:	e00f      	b.n	8004140 <SPI_EndRxTxTransaction+0x44>
 8004120:	0032      	movs	r2, r6
 8004122:	0029      	movs	r1, r5
 8004124:	0020      	movs	r0, r4
 8004126:	f7ff ff21 	bl	8003f6c <SPI_WaitFlagStateUntilTimeout.constprop.0>
 800412a:	2800      	cmp	r0, #0
 800412c:	d1f2      	bne.n	8004114 <SPI_EndRxTxTransaction+0x18>
 800412e:	21c0      	movs	r1, #192	; 0xc0
 8004130:	0033      	movs	r3, r6
 8004132:	002a      	movs	r2, r5
 8004134:	0020      	movs	r0, r4
 8004136:	00c9      	lsls	r1, r1, #3
 8004138:	f7ff ff74 	bl	8004024 <SPI_WaitFifoStateUntilTimeout.constprop.0>
 800413c:	2800      	cmp	r0, #0
 800413e:	d1e9      	bne.n	8004114 <SPI_EndRxTxTransaction+0x18>
 8004140:	bd70      	pop	{r4, r5, r6, pc}
	...

08004144 <HAL_SPI_Init>:
 8004144:	b5f8      	push	{r3, r4, r5, r6, r7, lr}
 8004146:	0004      	movs	r4, r0
 8004148:	2001      	movs	r0, #1
 800414a:	2c00      	cmp	r4, #0
 800414c:	d067      	beq.n	800421e <HAL_SPI_Init+0xda>
 800414e:	6a63      	ldr	r3, [r4, #36]	; 0x24
 8004150:	2b00      	cmp	r3, #0
 8004152:	d165      	bne.n	8004220 <HAL_SPI_Init+0xdc>
 8004154:	2282      	movs	r2, #130	; 0x82
 8004156:	6861      	ldr	r1, [r4, #4]
 8004158:	0052      	lsls	r2, r2, #1
 800415a:	4291      	cmp	r1, r2
 800415c:	d000      	beq.n	8004160 <HAL_SPI_Init+0x1c>
 800415e:	61e3      	str	r3, [r4, #28]
 8004160:	2300      	movs	r3, #0
 8004162:	0025      	movs	r5, r4
 8004164:	62a3      	str	r3, [r4, #40]	; 0x28
 8004166:	355d      	adds	r5, #93	; 0x5d
 8004168:	782b      	ldrb	r3, [r5, #0]
 800416a:	b2da      	uxtb	r2, r3
 800416c:	2b00      	cmp	r3, #0
 800416e:	d105      	bne.n	800417c <HAL_SPI_Init+0x38>
 8004170:	0023      	movs	r3, r4
 8004172:	335c      	adds	r3, #92	; 0x5c
 8004174:	0020      	movs	r0, r4
 8004176:	701a      	strb	r2, [r3, #0]
 8004178:	f7ff f932 	bl	80033e0 <HAL_SPI_MspInit>
 800417c:	2302      	movs	r3, #2
 800417e:	2140      	movs	r1, #64	; 0x40
 8004180:	702b      	strb	r3, [r5, #0]
 8004182:	6822      	ldr	r2, [r4, #0]
 8004184:	68e5      	ldr	r5, [r4, #12]
 8004186:	6813      	ldr	r3, [r2, #0]
 8004188:	438b      	bics	r3, r1
 800418a:	21e0      	movs	r1, #224	; 0xe0
 800418c:	6013      	str	r3, [r2, #0]
 800418e:	00c9      	lsls	r1, r1, #3
 8004190:	2300      	movs	r3, #0
 8004192:	428d      	cmp	r5, r1
 8004194:	d848      	bhi.n	8004228 <HAL_SPI_Init+0xe4>
 8004196:	2080      	movs	r0, #128	; 0x80
 8004198:	0140      	lsls	r0, r0, #5
 800419a:	428d      	cmp	r5, r1
 800419c:	d000      	beq.n	80041a0 <HAL_SPI_Init+0x5c>
 800419e:	62a3      	str	r3, [r4, #40]	; 0x28
 80041a0:	2382      	movs	r3, #130	; 0x82
 80041a2:	6866      	ldr	r6, [r4, #4]
 80041a4:	005b      	lsls	r3, r3, #1
 80041a6:	4033      	ands	r3, r6
 80041a8:	2684      	movs	r6, #132	; 0x84
 80041aa:	68a7      	ldr	r7, [r4, #8]
 80041ac:	0236      	lsls	r6, r6, #8
 80041ae:	403e      	ands	r6, r7
 80041b0:	4333      	orrs	r3, r6
 80041b2:	2602      	movs	r6, #2
 80041b4:	6927      	ldr	r7, [r4, #16]
 80041b6:	69a1      	ldr	r1, [r4, #24]
 80041b8:	403e      	ands	r6, r7
 80041ba:	4333      	orrs	r3, r6
 80041bc:	2601      	movs	r6, #1
 80041be:	6967      	ldr	r7, [r4, #20]
 80041c0:	46b4      	mov	ip, r6
 80041c2:	4037      	ands	r7, r6
 80041c4:	433b      	orrs	r3, r7
 80041c6:	2780      	movs	r7, #128	; 0x80
 80041c8:	00bf      	lsls	r7, r7, #2
 80041ca:	400f      	ands	r7, r1
 80041cc:	433b      	orrs	r3, r7
 80041ce:	2738      	movs	r7, #56	; 0x38
 80041d0:	69e6      	ldr	r6, [r4, #28]
 80041d2:	0c09      	lsrs	r1, r1, #16
 80041d4:	4037      	ands	r7, r6
 80041d6:	433b      	orrs	r3, r7
 80041d8:	2780      	movs	r7, #128	; 0x80
 80041da:	6a26      	ldr	r6, [r4, #32]
 80041dc:	4037      	ands	r7, r6
 80041de:	433b      	orrs	r3, r7
 80041e0:	2780      	movs	r7, #128	; 0x80
 80041e2:	6aa6      	ldr	r6, [r4, #40]	; 0x28
 80041e4:	01bf      	lsls	r7, r7, #6
 80041e6:	4037      	ands	r7, r6
 80041e8:	433b      	orrs	r3, r7
 80041ea:	6013      	str	r3, [r2, #0]
 80041ec:	2310      	movs	r3, #16
 80041ee:	2708      	movs	r7, #8
 80041f0:	6a66      	ldr	r6, [r4, #36]	; 0x24
 80041f2:	4033      	ands	r3, r6
 80041f4:	6b66      	ldr	r6, [r4, #52]	; 0x34
 80041f6:	4037      	ands	r7, r6
 80041f8:	433b      	orrs	r3, r7
 80041fa:	27f0      	movs	r7, #240	; 0xf0
 80041fc:	013f      	lsls	r7, r7, #4
 80041fe:	403d      	ands	r5, r7
 8004200:	431d      	orrs	r5, r3
 8004202:	2304      	movs	r3, #4
 8004204:	4019      	ands	r1, r3
 8004206:	4329      	orrs	r1, r5
 8004208:	4308      	orrs	r0, r1
 800420a:	6050      	str	r0, [r2, #4]
 800420c:	69d3      	ldr	r3, [r2, #28]
 800420e:	4908      	ldr	r1, [pc, #32]	; (8004230 <HAL_SPI_Init+0xec>)
 8004210:	2000      	movs	r0, #0
 8004212:	400b      	ands	r3, r1
 8004214:	61d3      	str	r3, [r2, #28]
 8004216:	4663      	mov	r3, ip
 8004218:	6620      	str	r0, [r4, #96]	; 0x60
 800421a:	345d      	adds	r4, #93	; 0x5d
 800421c:	7023      	strb	r3, [r4, #0]
 800421e:	bdf8      	pop	{r3, r4, r5, r6, r7, pc}
 8004220:	2300      	movs	r3, #0
 8004222:	6123      	str	r3, [r4, #16]
 8004224:	6163      	str	r3, [r4, #20]
 8004226:	e79b      	b.n	8004160 <HAL_SPI_Init+0x1c>
 8004228:	21f0      	movs	r1, #240	; 0xf0
 800422a:	0018      	movs	r0, r3
 800422c:	0109      	lsls	r1, r1, #4
 800422e:	e7b4      	b.n	800419a <HAL_SPI_Init+0x56>
 8004230:	fffff7ff 	.word	0xfffff7ff

08004234 <HAL_SPI_Transmit>:
 8004234:	b5f0      	push	{r4, r5, r6, r7, lr}
 8004236:	001e      	movs	r6, r3
 8004238:	0003      	movs	r3, r0
 800423a:	b085      	sub	sp, #20
 800423c:	335c      	adds	r3, #92	; 0x5c
 800423e:	9301      	str	r3, [sp, #4]
 8004240:	781b      	ldrb	r3, [r3, #0]
 8004242:	0004      	movs	r4, r0
 8004244:	000d      	movs	r5, r1
 8004246:	0017      	movs	r7, r2
 8004248:	2002      	movs	r0, #2
 800424a:	2b01      	cmp	r3, #1
 800424c:	d100      	bne.n	8004250 <HAL_SPI_Transmit+0x1c>
 800424e:	e07d      	b.n	800434c <HAL_SPI_Transmit+0x118>
 8004250:	2301      	movs	r3, #1
 8004252:	9a01      	ldr	r2, [sp, #4]
 8004254:	7013      	strb	r3, [r2, #0]
 8004256:	f7ff fa3b 	bl	80036d0 <HAL_GetTick>
 800425a:	0023      	movs	r3, r4
 800425c:	9000      	str	r0, [sp, #0]
 800425e:	335d      	adds	r3, #93	; 0x5d
 8004260:	781a      	ldrb	r2, [r3, #0]
 8004262:	b2d0      	uxtb	r0, r2
 8004264:	2a01      	cmp	r2, #1
 8004266:	d000      	beq.n	800426a <HAL_SPI_Transmit+0x36>
 8004268:	e09f      	b.n	80043aa <HAL_SPI_Transmit+0x176>
 800426a:	2d00      	cmp	r5, #0
 800426c:	d068      	beq.n	8004340 <HAL_SPI_Transmit+0x10c>
 800426e:	2f00      	cmp	r7, #0
 8004270:	d066      	beq.n	8004340 <HAL_SPI_Transmit+0x10c>
 8004272:	3202      	adds	r2, #2
 8004274:	701a      	strb	r2, [r3, #0]
 8004276:	2300      	movs	r3, #0
 8004278:	1da2      	adds	r2, r4, #6
 800427a:	6623      	str	r3, [r4, #96]	; 0x60
 800427c:	6423      	str	r3, [r4, #64]	; 0x40
 800427e:	63a5      	str	r5, [r4, #56]	; 0x38
 8004280:	87a7      	strh	r7, [r4, #60]	; 0x3c
 8004282:	87e7      	strh	r7, [r4, #62]	; 0x3e
 8004284:	3202      	adds	r2, #2
 8004286:	8793      	strh	r3, [r2, #60]	; 0x3c
 8004288:	87d3      	strh	r3, [r2, #62]	; 0x3e
 800428a:	6523      	str	r3, [r4, #80]	; 0x50
 800428c:	64e3      	str	r3, [r4, #76]	; 0x4c
 800428e:	2380      	movs	r3, #128	; 0x80
 8004290:	68a1      	ldr	r1, [r4, #8]
 8004292:	6822      	ldr	r2, [r4, #0]
 8004294:	021b      	lsls	r3, r3, #8
 8004296:	4299      	cmp	r1, r3
 8004298:	d108      	bne.n	80042ac <HAL_SPI_Transmit+0x78>
 800429a:	2140      	movs	r1, #64	; 0x40
 800429c:	6813      	ldr	r3, [r2, #0]
 800429e:	438b      	bics	r3, r1
 80042a0:	6013      	str	r3, [r2, #0]
 80042a2:	2380      	movs	r3, #128	; 0x80
 80042a4:	6811      	ldr	r1, [r2, #0]
 80042a6:	01db      	lsls	r3, r3, #7
 80042a8:	430b      	orrs	r3, r1
 80042aa:	6013      	str	r3, [r2, #0]
 80042ac:	2340      	movs	r3, #64	; 0x40
 80042ae:	6811      	ldr	r1, [r2, #0]
 80042b0:	4219      	tst	r1, r3
 80042b2:	d102      	bne.n	80042ba <HAL_SPI_Transmit+0x86>
 80042b4:	6811      	ldr	r1, [r2, #0]
 80042b6:	430b      	orrs	r3, r1
 80042b8:	6013      	str	r3, [r2, #0]
 80042ba:	21e0      	movs	r1, #224	; 0xe0
 80042bc:	68e0      	ldr	r0, [r4, #12]
 80042be:	6863      	ldr	r3, [r4, #4]
 80042c0:	00c9      	lsls	r1, r1, #3
 80042c2:	4288      	cmp	r0, r1
 80042c4:	d944      	bls.n	8004350 <HAL_SPI_Transmit+0x11c>
 80042c6:	2b00      	cmp	r3, #0
 80042c8:	d001      	beq.n	80042ce <HAL_SPI_Transmit+0x9a>
 80042ca:	2f01      	cmp	r7, #1
 80042cc:	d107      	bne.n	80042de <HAL_SPI_Transmit+0xaa>
 80042ce:	882b      	ldrh	r3, [r5, #0]
 80042d0:	3502      	adds	r5, #2
 80042d2:	60d3      	str	r3, [r2, #12]
 80042d4:	8fe3      	ldrh	r3, [r4, #62]	; 0x3e
 80042d6:	63a5      	str	r5, [r4, #56]	; 0x38
 80042d8:	3b01      	subs	r3, #1
 80042da:	b29b      	uxth	r3, r3
 80042dc:	87e3      	strh	r3, [r4, #62]	; 0x3e
 80042de:	2502      	movs	r5, #2
 80042e0:	e00c      	b.n	80042fc <HAL_SPI_Transmit+0xc8>
 80042e2:	6822      	ldr	r2, [r4, #0]
 80042e4:	6893      	ldr	r3, [r2, #8]
 80042e6:	422b      	tst	r3, r5
 80042e8:	d021      	beq.n	800432e <HAL_SPI_Transmit+0xfa>
 80042ea:	6ba3      	ldr	r3, [r4, #56]	; 0x38
 80042ec:	8819      	ldrh	r1, [r3, #0]
 80042ee:	3302      	adds	r3, #2
 80042f0:	60d1      	str	r1, [r2, #12]
 80042f2:	63a3      	str	r3, [r4, #56]	; 0x38
 80042f4:	8fe3      	ldrh	r3, [r4, #62]	; 0x3e
 80042f6:	3b01      	subs	r3, #1
 80042f8:	b29b      	uxth	r3, r3
 80042fa:	87e3      	strh	r3, [r4, #62]	; 0x3e
 80042fc:	8fe3      	ldrh	r3, [r4, #62]	; 0x3e
 80042fe:	2b00      	cmp	r3, #0
 8004300:	d1ef      	bne.n	80042e2 <HAL_SPI_Transmit+0xae>
 8004302:	0031      	movs	r1, r6
 8004304:	0020      	movs	r0, r4
 8004306:	9a00      	ldr	r2, [sp, #0]
 8004308:	f7ff fef8 	bl	80040fc <SPI_EndRxTxTransaction>
 800430c:	2800      	cmp	r0, #0
 800430e:	d149      	bne.n	80043a4 <HAL_SPI_Transmit+0x170>
 8004310:	68a3      	ldr	r3, [r4, #8]
 8004312:	2b00      	cmp	r3, #0
 8004314:	d106      	bne.n	8004324 <HAL_SPI_Transmit+0xf0>
 8004316:	9303      	str	r3, [sp, #12]
 8004318:	6823      	ldr	r3, [r4, #0]
 800431a:	68da      	ldr	r2, [r3, #12]
 800431c:	9203      	str	r2, [sp, #12]
 800431e:	689b      	ldr	r3, [r3, #8]
 8004320:	9303      	str	r3, [sp, #12]
 8004322:	9b03      	ldr	r3, [sp, #12]
 8004324:	6e20      	ldr	r0, [r4, #96]	; 0x60
 8004326:	1e43      	subs	r3, r0, #1
 8004328:	4198      	sbcs	r0, r3
 800432a:	b2c0      	uxtb	r0, r0
 800432c:	e008      	b.n	8004340 <HAL_SPI_Transmit+0x10c>
 800432e:	f7ff f9cf 	bl	80036d0 <HAL_GetTick>
 8004332:	9b00      	ldr	r3, [sp, #0]
 8004334:	1ac0      	subs	r0, r0, r3
 8004336:	42b0      	cmp	r0, r6
 8004338:	d3e0      	bcc.n	80042fc <HAL_SPI_Transmit+0xc8>
 800433a:	1c73      	adds	r3, r6, #1
 800433c:	d0de      	beq.n	80042fc <HAL_SPI_Transmit+0xc8>
 800433e:	2003      	movs	r0, #3
 8004340:	2301      	movs	r3, #1
 8004342:	345d      	adds	r4, #93	; 0x5d
 8004344:	7023      	strb	r3, [r4, #0]
 8004346:	2300      	movs	r3, #0
 8004348:	9a01      	ldr	r2, [sp, #4]
 800434a:	7013      	strb	r3, [r2, #0]
 800434c:	b005      	add	sp, #20
 800434e:	bdf0      	pop	{r4, r5, r6, r7, pc}
 8004350:	2b00      	cmp	r3, #0
 8004352:	d001      	beq.n	8004358 <HAL_SPI_Transmit+0x124>
 8004354:	2f01      	cmp	r7, #1
 8004356:	d108      	bne.n	800436a <HAL_SPI_Transmit+0x136>
 8004358:	782b      	ldrb	r3, [r5, #0]
 800435a:	7313      	strb	r3, [r2, #12]
 800435c:	6ba3      	ldr	r3, [r4, #56]	; 0x38
 800435e:	3301      	adds	r3, #1
 8004360:	63a3      	str	r3, [r4, #56]	; 0x38
 8004362:	8fe3      	ldrh	r3, [r4, #62]	; 0x3e
 8004364:	3b01      	subs	r3, #1
 8004366:	b29b      	uxth	r3, r3
 8004368:	87e3      	strh	r3, [r4, #62]	; 0x3e
 800436a:	2502      	movs	r5, #2
 800436c:	e00d      	b.n	800438a <HAL_SPI_Transmit+0x156>
 800436e:	6823      	ldr	r3, [r4, #0]
 8004370:	689a      	ldr	r2, [r3, #8]
 8004372:	422a      	tst	r2, r5
 8004374:	d00d      	beq.n	8004392 <HAL_SPI_Transmit+0x15e>
 8004376:	6ba2      	ldr	r2, [r4, #56]	; 0x38
 8004378:	7812      	ldrb	r2, [r2, #0]
 800437a:	731a      	strb	r2, [r3, #12]
 800437c:	6ba3      	ldr	r3, [r4, #56]	; 0x38
 800437e:	3301      	adds	r3, #1
 8004380:	63a3      	str	r3, [r4, #56]	; 0x38
 8004382:	8fe3      	ldrh	r3, [r4, #62]	; 0x3e
 8004384:	3b01      	subs	r3, #1
 8004386:	b29b      	uxth	r3, r3
 8004388:	87e3      	strh	r3, [r4, #62]	; 0x3e
 800438a:	8fe3      	ldrh	r3, [r4, #62]	; 0x3e
 800438c:	2b00      	cmp	r3, #0
 800438e:	d1ee      	bne.n	800436e <HAL_SPI_Transmit+0x13a>
 8004390:	e7b7      	b.n	8004302 <HAL_SPI_Transmit+0xce>
 8004392:	f7ff f99d 	bl	80036d0 <HAL_GetTick>
 8004396:	9b00      	ldr	r3, [sp, #0]
 8004398:	1ac0      	subs	r0, r0, r3
 800439a:	42b0      	cmp	r0, r6
 800439c:	d3f5      	bcc.n	800438a <HAL_SPI_Transmit+0x156>
 800439e:	1c73      	adds	r3, r6, #1
 80043a0:	d0f3      	beq.n	800438a <HAL_SPI_Transmit+0x156>
 80043a2:	e7cc      	b.n	800433e <HAL_SPI_Transmit+0x10a>
 80043a4:	2320      	movs	r3, #32
 80043a6:	6623      	str	r3, [r4, #96]	; 0x60
 80043a8:	e7b2      	b.n	8004310 <HAL_SPI_Transmit+0xdc>
 80043aa:	2002      	movs	r0, #2
 80043ac:	e7c8      	b.n	8004340 <HAL_SPI_Transmit+0x10c>

080043ae <HAL_TIM_Encoder_Start>:
 80043ae:	b5f7      	push	{r0, r1, r2, r4, r5, r6, r7, lr}
 80043b0:	223e      	movs	r2, #62	; 0x3e
 80043b2:	0003      	movs	r3, r0
 80043b4:	4694      	mov	ip, r2
 80043b6:	0007      	movs	r7, r0
 80043b8:	4484      	add	ip, r0
 80043ba:	001e      	movs	r6, r3
 80043bc:	001d      	movs	r5, r3
 80043be:	4662      	mov	r2, ip
 80043c0:	9101      	str	r1, [sp, #4]
 80043c2:	3545      	adds	r5, #69	; 0x45
 80043c4:	373f      	adds	r7, #63	; 0x3f
 80043c6:	3644      	adds	r6, #68	; 0x44
 80043c8:	7811      	ldrb	r1, [r2, #0]
 80043ca:	7838      	ldrb	r0, [r7, #0]
 80043cc:	7834      	ldrb	r4, [r6, #0]
 80043ce:	9500      	str	r5, [sp, #0]
 80043d0:	782a      	ldrb	r2, [r5, #0]
 80043d2:	9d01      	ldr	r5, [sp, #4]
 80043d4:	b2c9      	uxtb	r1, r1
 80043d6:	b2c0      	uxtb	r0, r0
 80043d8:	b2e4      	uxtb	r4, r4
 80043da:	b2d2      	uxtb	r2, r2
 80043dc:	2d00      	cmp	r5, #0
 80043de:	d117      	bne.n	8004410 <HAL_TIM_Encoder_Start+0x62>
 80043e0:	2001      	movs	r0, #1
 80043e2:	4281      	cmp	r1, r0
 80043e4:	d113      	bne.n	800440e <HAL_TIM_Encoder_Start+0x60>
 80043e6:	0008      	movs	r0, r1
 80043e8:	2c01      	cmp	r4, #1
 80043ea:	d110      	bne.n	800440e <HAL_TIM_Encoder_Start+0x60>
 80043ec:	2202      	movs	r2, #2
 80043ee:	4661      	mov	r1, ip
 80043f0:	700a      	strb	r2, [r1, #0]
 80043f2:	7032      	strb	r2, [r6, #0]
 80043f4:	681a      	ldr	r2, [r3, #0]
 80043f6:	6a11      	ldr	r1, [r2, #32]
 80043f8:	43a1      	bics	r1, r4
 80043fa:	6211      	str	r1, [r2, #32]
 80043fc:	6a11      	ldr	r1, [r2, #32]
 80043fe:	430c      	orrs	r4, r1
 8004400:	6214      	str	r4, [r2, #32]
 8004402:	681a      	ldr	r2, [r3, #0]
 8004404:	2301      	movs	r3, #1
 8004406:	2000      	movs	r0, #0
 8004408:	6811      	ldr	r1, [r2, #0]
 800440a:	430b      	orrs	r3, r1
 800440c:	6013      	str	r3, [r2, #0]
 800440e:	bdfe      	pop	{r1, r2, r3, r4, r5, r6, r7, pc}
 8004410:	9d01      	ldr	r5, [sp, #4]
 8004412:	2d04      	cmp	r5, #4
 8004414:	d110      	bne.n	8004438 <HAL_TIM_Encoder_Start+0x8a>
 8004416:	2801      	cmp	r0, #1
 8004418:	d12c      	bne.n	8004474 <HAL_TIM_Encoder_Start+0xc6>
 800441a:	2a01      	cmp	r2, #1
 800441c:	d1f7      	bne.n	800440e <HAL_TIM_Encoder_Start+0x60>
 800441e:	9900      	ldr	r1, [sp, #0]
 8004420:	3201      	adds	r2, #1
 8004422:	703a      	strb	r2, [r7, #0]
 8004424:	700a      	strb	r2, [r1, #0]
 8004426:	2110      	movs	r1, #16
 8004428:	681a      	ldr	r2, [r3, #0]
 800442a:	6a10      	ldr	r0, [r2, #32]
 800442c:	4388      	bics	r0, r1
 800442e:	6210      	str	r0, [r2, #32]
 8004430:	6a10      	ldr	r0, [r2, #32]
 8004432:	4301      	orrs	r1, r0
 8004434:	6211      	str	r1, [r2, #32]
 8004436:	e7e4      	b.n	8004402 <HAL_TIM_Encoder_Start+0x54>
 8004438:	2901      	cmp	r1, #1
 800443a:	d11b      	bne.n	8004474 <HAL_TIM_Encoder_Start+0xc6>
 800443c:	2801      	cmp	r0, #1
 800443e:	d11b      	bne.n	8004478 <HAL_TIM_Encoder_Start+0xca>
 8004440:	2c01      	cmp	r4, #1
 8004442:	d1e4      	bne.n	800440e <HAL_TIM_Encoder_Start+0x60>
 8004444:	2a01      	cmp	r2, #1
 8004446:	d1e2      	bne.n	800440e <HAL_TIM_Encoder_Start+0x60>
 8004448:	4660      	mov	r0, ip
 800444a:	3101      	adds	r1, #1
 800444c:	7001      	strb	r1, [r0, #0]
 800444e:	9800      	ldr	r0, [sp, #0]
 8004450:	7039      	strb	r1, [r7, #0]
 8004452:	7031      	strb	r1, [r6, #0]
 8004454:	7001      	strb	r1, [r0, #0]
 8004456:	6819      	ldr	r1, [r3, #0]
 8004458:	6a08      	ldr	r0, [r1, #32]
 800445a:	4390      	bics	r0, r2
 800445c:	6208      	str	r0, [r1, #32]
 800445e:	6a08      	ldr	r0, [r1, #32]
 8004460:	4302      	orrs	r2, r0
 8004462:	620a      	str	r2, [r1, #32]
 8004464:	2210      	movs	r2, #16
 8004466:	6a08      	ldr	r0, [r1, #32]
 8004468:	4390      	bics	r0, r2
 800446a:	6208      	str	r0, [r1, #32]
 800446c:	6a08      	ldr	r0, [r1, #32]
 800446e:	4302      	orrs	r2, r0
 8004470:	620a      	str	r2, [r1, #32]
 8004472:	e7c6      	b.n	8004402 <HAL_TIM_Encoder_Start+0x54>
 8004474:	2001      	movs	r0, #1
 8004476:	e7ca      	b.n	800440e <HAL_TIM_Encoder_Start+0x60>
 8004478:	0008      	movs	r0, r1
 800447a:	e7c8      	b.n	800440e <HAL_TIM_Encoder_Start+0x60>

0800447c <TIM_Base_SetConfig>:
 800447c:	4a19      	ldr	r2, [pc, #100]	; (80044e4 <TIM_Base_SetConfig+0x68>)
 800447e:	b510      	push	{r4, lr}
 8004480:	6803      	ldr	r3, [r0, #0]
 8004482:	4290      	cmp	r0, r2
 8004484:	d002      	beq.n	800448c <TIM_Base_SetConfig+0x10>
 8004486:	4c18      	ldr	r4, [pc, #96]	; (80044e8 <TIM_Base_SetConfig+0x6c>)
 8004488:	42a0      	cmp	r0, r4
 800448a:	d108      	bne.n	800449e <TIM_Base_SetConfig+0x22>
 800448c:	2470      	movs	r4, #112	; 0x70
 800448e:	43a3      	bics	r3, r4
 8004490:	684c      	ldr	r4, [r1, #4]
 8004492:	4323      	orrs	r3, r4
 8004494:	4290      	cmp	r0, r2
 8004496:	d00b      	beq.n	80044b0 <TIM_Base_SetConfig+0x34>
 8004498:	4c13      	ldr	r4, [pc, #76]	; (80044e8 <TIM_Base_SetConfig+0x6c>)
 800449a:	42a0      	cmp	r0, r4
 800449c:	d008      	beq.n	80044b0 <TIM_Base_SetConfig+0x34>
 800449e:	4c13      	ldr	r4, [pc, #76]	; (80044ec <TIM_Base_SetConfig+0x70>)
 80044a0:	42a0      	cmp	r0, r4
 80044a2:	d005      	beq.n	80044b0 <TIM_Base_SetConfig+0x34>
 80044a4:	4c12      	ldr	r4, [pc, #72]	; (80044f0 <TIM_Base_SetConfig+0x74>)
 80044a6:	42a0      	cmp	r0, r4
 80044a8:	d002      	beq.n	80044b0 <TIM_Base_SetConfig+0x34>
 80044aa:	4c12      	ldr	r4, [pc, #72]	; (80044f4 <TIM_Base_SetConfig+0x78>)
 80044ac:	42a0      	cmp	r0, r4
 80044ae:	d103      	bne.n	80044b8 <TIM_Base_SetConfig+0x3c>
 80044b0:	4c11      	ldr	r4, [pc, #68]	; (80044f8 <TIM_Base_SetConfig+0x7c>)
 80044b2:	4023      	ands	r3, r4
 80044b4:	68cc      	ldr	r4, [r1, #12]
 80044b6:	4323      	orrs	r3, r4
 80044b8:	2480      	movs	r4, #128	; 0x80
 80044ba:	43a3      	bics	r3, r4
 80044bc:	694c      	ldr	r4, [r1, #20]
 80044be:	4323      	orrs	r3, r4
 80044c0:	6003      	str	r3, [r0, #0]
 80044c2:	688b      	ldr	r3, [r1, #8]
 80044c4:	62c3      	str	r3, [r0, #44]	; 0x2c
 80044c6:	680b      	ldr	r3, [r1, #0]
 80044c8:	6283      	str	r3, [r0, #40]	; 0x28
 80044ca:	4290      	cmp	r0, r2
 80044cc:	d005      	beq.n	80044da <TIM_Base_SetConfig+0x5e>
 80044ce:	4b08      	ldr	r3, [pc, #32]	; (80044f0 <TIM_Base_SetConfig+0x74>)
 80044d0:	4298      	cmp	r0, r3
 80044d2:	d002      	beq.n	80044da <TIM_Base_SetConfig+0x5e>
 80044d4:	4b07      	ldr	r3, [pc, #28]	; (80044f4 <TIM_Base_SetConfig+0x78>)
 80044d6:	4298      	cmp	r0, r3
 80044d8:	d101      	bne.n	80044de <TIM_Base_SetConfig+0x62>
 80044da:	690b      	ldr	r3, [r1, #16]
 80044dc:	6303      	str	r3, [r0, #48]	; 0x30
 80044de:	2301      	movs	r3, #1
 80044e0:	6143      	str	r3, [r0, #20]
 80044e2:	bd10      	pop	{r4, pc}
 80044e4:	40012c00 	.word	0x40012c00
 80044e8:	40000400 	.word	0x40000400
 80044ec:	40002000 	.word	0x40002000
 80044f0:	40014400 	.word	0x40014400
 80044f4:	40014800 	.word	0x40014800
 80044f8:	fffffcff 	.word	0xfffffcff

080044fc <HAL_TIM_Encoder_Init>:
 80044fc:	b5f7      	push	{r0, r1, r2, r4, r5, r6, r7, lr}
 80044fe:	0004      	movs	r4, r0
 8004500:	000e      	movs	r6, r1
 8004502:	2001      	movs	r0, #1
 8004504:	2c00      	cmp	r4, #0
 8004506:	d048      	beq.n	800459a <HAL_TIM_Encoder_Init+0x9e>
 8004508:	0025      	movs	r5, r4
 800450a:	353d      	adds	r5, #61	; 0x3d
 800450c:	782b      	ldrb	r3, [r5, #0]
 800450e:	b2da      	uxtb	r2, r3
 8004510:	2b00      	cmp	r3, #0
 8004512:	d105      	bne.n	8004520 <HAL_TIM_Encoder_Init+0x24>
 8004514:	0023      	movs	r3, r4
 8004516:	333c      	adds	r3, #60	; 0x3c
 8004518:	0020      	movs	r0, r4
 800451a:	701a      	strb	r2, [r3, #0]
 800451c:	f7ff f820 	bl	8003560 <HAL_TIM_Encoder_MspInit>
 8004520:	2302      	movs	r3, #2
 8004522:	0021      	movs	r1, r4
 8004524:	702b      	strb	r3, [r5, #0]
 8004526:	c901      	ldmia	r1!, {r0}
 8004528:	4a1c      	ldr	r2, [pc, #112]	; (800459c <HAL_TIM_Encoder_Init+0xa0>)
 800452a:	6883      	ldr	r3, [r0, #8]
 800452c:	4013      	ands	r3, r2
 800452e:	6083      	str	r3, [r0, #8]
 8004530:	f7ff ffa4 	bl	800447c <TIM_Base_SetConfig>
 8004534:	6822      	ldr	r2, [r4, #0]
 8004536:	6833      	ldr	r3, [r6, #0]
 8004538:	6891      	ldr	r1, [r2, #8]
 800453a:	6997      	ldr	r7, [r2, #24]
 800453c:	4319      	orrs	r1, r3
 800453e:	4b18      	ldr	r3, [pc, #96]	; (80045a0 <HAL_TIM_Encoder_Init+0xa4>)
 8004540:	9101      	str	r1, [sp, #4]
 8004542:	401f      	ands	r7, r3
 8004544:	69b3      	ldr	r3, [r6, #24]
 8004546:	68b1      	ldr	r1, [r6, #8]
 8004548:	021b      	lsls	r3, r3, #8
 800454a:	430b      	orrs	r3, r1
 800454c:	433b      	orrs	r3, r7
 800454e:	4f15      	ldr	r7, [pc, #84]	; (80045a4 <HAL_TIM_Encoder_Init+0xa8>)
 8004550:	6931      	ldr	r1, [r6, #16]
 8004552:	401f      	ands	r7, r3
 8004554:	69f3      	ldr	r3, [r6, #28]
 8004556:	0109      	lsls	r1, r1, #4
 8004558:	021b      	lsls	r3, r3, #8
 800455a:	430b      	orrs	r3, r1
 800455c:	68f1      	ldr	r1, [r6, #12]
 800455e:	6a10      	ldr	r0, [r2, #32]
 8004560:	430b      	orrs	r3, r1
 8004562:	6a31      	ldr	r1, [r6, #32]
 8004564:	0309      	lsls	r1, r1, #12
 8004566:	430b      	orrs	r3, r1
 8004568:	433b      	orrs	r3, r7
 800456a:	27aa      	movs	r7, #170	; 0xaa
 800456c:	43b8      	bics	r0, r7
 800456e:	0007      	movs	r7, r0
 8004570:	6971      	ldr	r1, [r6, #20]
 8004572:	6876      	ldr	r6, [r6, #4]
 8004574:	0108      	lsls	r0, r1, #4
 8004576:	4330      	orrs	r0, r6
 8004578:	9901      	ldr	r1, [sp, #4]
 800457a:	4338      	orrs	r0, r7
 800457c:	6091      	str	r1, [r2, #8]
 800457e:	6193      	str	r3, [r2, #24]
 8004580:	6210      	str	r0, [r2, #32]
 8004582:	0022      	movs	r2, r4
 8004584:	2301      	movs	r3, #1
 8004586:	2000      	movs	r0, #0
 8004588:	3248      	adds	r2, #72	; 0x48
 800458a:	7013      	strb	r3, [r2, #0]
 800458c:	3445      	adds	r4, #69	; 0x45
 800458e:	3a0a      	subs	r2, #10
 8004590:	7013      	strb	r3, [r2, #0]
 8004592:	7053      	strb	r3, [r2, #1]
 8004594:	7193      	strb	r3, [r2, #6]
 8004596:	7023      	strb	r3, [r4, #0]
 8004598:	702b      	strb	r3, [r5, #0]
 800459a:	bdfe      	pop	{r1, r2, r3, r4, r5, r6, r7, pc}
 800459c:	fffebff8 	.word	0xfffebff8
 80045a0:	fffffcfc 	.word	0xfffffcfc
 80045a4:	ffff0303 	.word	0xffff0303

080045a8 <HAL_TIMEx_MasterConfigSynchronization>:
 80045a8:	b5f0      	push	{r4, r5, r6, r7, lr}
 80045aa:	0004      	movs	r4, r0
 80045ac:	2202      	movs	r2, #2
 80045ae:	343c      	adds	r4, #60	; 0x3c
 80045b0:	7825      	ldrb	r5, [r4, #0]
 80045b2:	0003      	movs	r3, r0
 80045b4:	0010      	movs	r0, r2
 80045b6:	2d01      	cmp	r5, #1
 80045b8:	d01f      	beq.n	80045fa <HAL_TIMEx_MasterConfigSynchronization+0x52>
 80045ba:	001d      	movs	r5, r3
 80045bc:	353d      	adds	r5, #61	; 0x3d
 80045be:	702a      	strb	r2, [r5, #0]
 80045c0:	681a      	ldr	r2, [r3, #0]
 80045c2:	4e0e      	ldr	r6, [pc, #56]	; (80045fc <HAL_TIMEx_MasterConfigSynchronization+0x54>)
 80045c4:	6853      	ldr	r3, [r2, #4]
 80045c6:	6890      	ldr	r0, [r2, #8]
 80045c8:	42b2      	cmp	r2, r6
 80045ca:	d103      	bne.n	80045d4 <HAL_TIMEx_MasterConfigSynchronization+0x2c>
 80045cc:	4f0c      	ldr	r7, [pc, #48]	; (8004600 <HAL_TIMEx_MasterConfigSynchronization+0x58>)
 80045ce:	403b      	ands	r3, r7
 80045d0:	684f      	ldr	r7, [r1, #4]
 80045d2:	433b      	orrs	r3, r7
 80045d4:	2770      	movs	r7, #112	; 0x70
 80045d6:	43bb      	bics	r3, r7
 80045d8:	680f      	ldr	r7, [r1, #0]
 80045da:	433b      	orrs	r3, r7
 80045dc:	6053      	str	r3, [r2, #4]
 80045de:	42b2      	cmp	r2, r6
 80045e0:	d002      	beq.n	80045e8 <HAL_TIMEx_MasterConfigSynchronization+0x40>
 80045e2:	4b08      	ldr	r3, [pc, #32]	; (8004604 <HAL_TIMEx_MasterConfigSynchronization+0x5c>)
 80045e4:	429a      	cmp	r2, r3
 80045e6:	d104      	bne.n	80045f2 <HAL_TIMEx_MasterConfigSynchronization+0x4a>
 80045e8:	2380      	movs	r3, #128	; 0x80
 80045ea:	4398      	bics	r0, r3
 80045ec:	688b      	ldr	r3, [r1, #8]
 80045ee:	4318      	orrs	r0, r3
 80045f0:	6090      	str	r0, [r2, #8]
 80045f2:	2301      	movs	r3, #1
 80045f4:	2000      	movs	r0, #0
 80045f6:	702b      	strb	r3, [r5, #0]
 80045f8:	7020      	strb	r0, [r4, #0]
 80045fa:	bdf0      	pop	{r4, r5, r6, r7, pc}
 80045fc:	40012c00 	.word	0x40012c00
 8004600:	ff0fffff 	.word	0xff0fffff
 8004604:	40000400 	.word	0x40000400

08004608 <ST7735_Select>:
 8004608:	2180      	movs	r1, #128	; 0x80
 800460a:	b510      	push	{r4, lr}
 800460c:	2200      	movs	r2, #0
 800460e:	4802      	ldr	r0, [pc, #8]	; (8004618 <ST7735_Select+0x10>)
 8004610:	0209      	lsls	r1, r1, #8
 8004612:	f7ff f96d 	bl	80038f0 <HAL_GPIO_WritePin>
 8004616:	bd10      	pop	{r4, pc}
 8004618:	50000800 	.word	0x50000800

0800461c <ST7735_WriteCommand>:
 800461c:	b513      	push	{r0, r1, r4, lr}
 800461e:	466b      	mov	r3, sp
 8004620:	71d8      	strb	r0, [r3, #7]
 8004622:	20a0      	movs	r0, #160	; 0xa0
 8004624:	2200      	movs	r2, #0
 8004626:	2101      	movs	r1, #1
 8004628:	05c0      	lsls	r0, r0, #23
 800462a:	1ddc      	adds	r4, r3, #7
 800462c:	f7ff f960 	bl	80038f0 <HAL_GPIO_WritePin>
 8004630:	2301      	movs	r3, #1
 8004632:	2201      	movs	r2, #1
 8004634:	0021      	movs	r1, r4
 8004636:	425b      	negs	r3, r3
 8004638:	4801      	ldr	r0, [pc, #4]	; (8004640 <ST7735_WriteCommand+0x24>)
 800463a:	f7ff fdfb 	bl	8004234 <HAL_SPI_Transmit>
 800463e:	bd13      	pop	{r0, r1, r4, pc}
 8004640:	200000d8 	.word	0x200000d8

08004644 <ST7735_WriteData>:
 8004644:	b570      	push	{r4, r5, r6, lr}
 8004646:	2201      	movs	r2, #1
 8004648:	0005      	movs	r5, r0
 800464a:	20a0      	movs	r0, #160	; 0xa0
 800464c:	000c      	movs	r4, r1
 800464e:	05c0      	lsls	r0, r0, #23
 8004650:	0011      	movs	r1, r2
 8004652:	f7ff f94d 	bl	80038f0 <HAL_GPIO_WritePin>
 8004656:	2301      	movs	r3, #1
 8004658:	0029      	movs	r1, r5
 800465a:	b2a2      	uxth	r2, r4
 800465c:	425b      	negs	r3, r3
 800465e:	4802      	ldr	r0, [pc, #8]	; (8004668 <ST7735_WriteData+0x24>)
 8004660:	f7ff fde8 	bl	8004234 <HAL_SPI_Transmit>
 8004664:	bd70      	pop	{r4, r5, r6, pc}
 8004666:	46c0      	nop			; (mov r8, r8)
 8004668:	200000d8 	.word	0x200000d8

0800466c <ST7735_ExecuteCommandList>:
 800466c:	b5f8      	push	{r3, r4, r5, r6, r7, lr}
 800466e:	7805      	ldrb	r5, [r0, #0]
 8004670:	1c46      	adds	r6, r0, #1
 8004672:	3d01      	subs	r5, #1
 8004674:	b2ed      	uxtb	r5, r5
 8004676:	2dff      	cmp	r5, #255	; 0xff
 8004678:	d100      	bne.n	800467c <ST7735_ExecuteCommandList+0x10>
 800467a:	bdf8      	pop	{r3, r4, r5, r6, r7, pc}
 800467c:	7830      	ldrb	r0, [r6, #0]
 800467e:	f7ff ffcd 	bl	800461c <ST7735_WriteCommand>
 8004682:	277f      	movs	r7, #127	; 0x7f
 8004684:	237f      	movs	r3, #127	; 0x7f
 8004686:	1cb4      	adds	r4, r6, #2
 8004688:	7876      	ldrb	r6, [r6, #1]
 800468a:	4037      	ands	r7, r6
 800468c:	421e      	tst	r6, r3
 800468e:	d004      	beq.n	800469a <ST7735_ExecuteCommandList+0x2e>
 8004690:	0020      	movs	r0, r4
 8004692:	0039      	movs	r1, r7
 8004694:	f7ff ffd6 	bl	8004644 <ST7735_WriteData>
 8004698:	19e4      	adds	r4, r4, r7
 800469a:	b276      	sxtb	r6, r6
 800469c:	2e00      	cmp	r6, #0
 800469e:	da07      	bge.n	80046b0 <ST7735_ExecuteCommandList+0x44>
 80046a0:	7820      	ldrb	r0, [r4, #0]
 80046a2:	1c66      	adds	r6, r4, #1
 80046a4:	28ff      	cmp	r0, #255	; 0xff
 80046a6:	d100      	bne.n	80046aa <ST7735_ExecuteCommandList+0x3e>
 80046a8:	30f5      	adds	r0, #245	; 0xf5
 80046aa:	f7ff f817 	bl	80036dc <HAL_Delay>
 80046ae:	0034      	movs	r4, r6
 80046b0:	0026      	movs	r6, r4
 80046b2:	e7de      	b.n	8004672 <ST7735_ExecuteCommandList+0x6>

080046b4 <ST7735_SetAddressWindow>:
 80046b4:	b5f0      	push	{r4, r5, r6, r7, lr}
 80046b6:	0007      	movs	r7, r0
 80046b8:	b085      	sub	sp, #20
 80046ba:	202a      	movs	r0, #42	; 0x2a
 80046bc:	0016      	movs	r6, r2
 80046be:	000d      	movs	r5, r1
 80046c0:	9301      	str	r3, [sp, #4]
 80046c2:	f7ff ffab 	bl	800461c <ST7735_WriteCommand>
 80046c6:	2300      	movs	r3, #0
 80046c8:	ac03      	add	r4, sp, #12
 80046ca:	2104      	movs	r1, #4
 80046cc:	0020      	movs	r0, r4
 80046ce:	7023      	strb	r3, [r4, #0]
 80046d0:	70a3      	strb	r3, [r4, #2]
 80046d2:	7067      	strb	r7, [r4, #1]
 80046d4:	70e6      	strb	r6, [r4, #3]
 80046d6:	f7ff ffb5 	bl	8004644 <ST7735_WriteData>
 80046da:	202b      	movs	r0, #43	; 0x2b
 80046dc:	f7ff ff9e 	bl	800461c <ST7735_WriteCommand>
 80046e0:	9b01      	ldr	r3, [sp, #4]
 80046e2:	2104      	movs	r1, #4
 80046e4:	0020      	movs	r0, r4
 80046e6:	70e3      	strb	r3, [r4, #3]
 80046e8:	7065      	strb	r5, [r4, #1]
 80046ea:	f7ff ffab 	bl	8004644 <ST7735_WriteData>
 80046ee:	202c      	movs	r0, #44	; 0x2c
 80046f0:	f7ff ff94 	bl	800461c <ST7735_WriteCommand>
 80046f4:	b005      	add	sp, #20
 80046f6:	bdf0      	pop	{r4, r5, r6, r7, pc}

080046f8 <ST7735_WriteChar.isra.0>:
 80046f8:	b5f0      	push	{r4, r5, r6, r7, lr}
 80046fa:	001f      	movs	r7, r3
 80046fc:	0014      	movs	r4, r2
 80046fe:	b087      	sub	sp, #28
 8004700:	ab0c      	add	r3, sp, #48	; 0x30
 8004702:	781d      	ldrb	r5, [r3, #0]
 8004704:	ab0e      	add	r3, sp, #56	; 0x38
 8004706:	881b      	ldrh	r3, [r3, #0]
 8004708:	b2c0      	uxtb	r0, r0
 800470a:	9302      	str	r3, [sp, #8]
 800470c:	ab0f      	add	r3, sp, #60	; 0x3c
 800470e:	881b      	ldrh	r3, [r3, #0]
 8004710:	b2c9      	uxtb	r1, r1
 8004712:	9303      	str	r3, [sp, #12]
 8004714:	1e7a      	subs	r2, r7, #1
 8004716:	1e6b      	subs	r3, r5, #1
 8004718:	18cb      	adds	r3, r1, r3
 800471a:	1882      	adds	r2, r0, r2
 800471c:	b2d2      	uxtb	r2, r2
 800471e:	b2db      	uxtb	r3, r3
 8004720:	9e0d      	ldr	r6, [sp, #52]	; 0x34
 8004722:	f7ff ffc7 	bl	80046b4 <ST7735_SetAddressWindow>
 8004726:	0022      	movs	r2, r4
 8004728:	3a20      	subs	r2, #32
 800472a:	436a      	muls	r2, r5
 800472c:	18ad      	adds	r5, r5, r2
 800472e:	0054      	lsls	r4, r2, #1
 8004730:	006d      	lsls	r5, r5, #1
 8004732:	1934      	adds	r4, r6, r4
 8004734:	1976      	adds	r6, r6, r5
 8004736:	42b4      	cmp	r4, r6
 8004738:	d101      	bne.n	800473e <ST7735_WriteChar.isra.0+0x46>
 800473a:	b007      	add	sp, #28
 800473c:	bdf0      	pop	{r4, r5, r6, r7, pc}
 800473e:	2500      	movs	r5, #0
 8004740:	8823      	ldrh	r3, [r4, #0]
 8004742:	9301      	str	r3, [sp, #4]
 8004744:	42bd      	cmp	r5, r7
 8004746:	d301      	bcc.n	800474c <ST7735_WriteChar.isra.0+0x54>
 8004748:	3402      	adds	r4, #2
 800474a:	e7f4      	b.n	8004736 <ST7735_WriteChar.isra.0+0x3e>
 800474c:	9b01      	ldr	r3, [sp, #4]
 800474e:	2280      	movs	r2, #128	; 0x80
 8004750:	40ab      	lsls	r3, r5
 8004752:	0212      	lsls	r2, r2, #8
 8004754:	4213      	tst	r3, r2
 8004756:	d009      	beq.n	800476c <ST7735_WriteChar.isra.0+0x74>
 8004758:	9b02      	ldr	r3, [sp, #8]
 800475a:	ba5b      	rev16	r3, r3
 800475c:	aa04      	add	r2, sp, #16
 800475e:	2102      	movs	r1, #2
 8004760:	8093      	strh	r3, [r2, #4]
 8004762:	a805      	add	r0, sp, #20
 8004764:	f7ff ff6e 	bl	8004644 <ST7735_WriteData>
 8004768:	3501      	adds	r5, #1
 800476a:	e7eb      	b.n	8004744 <ST7735_WriteChar.isra.0+0x4c>
 800476c:	9b03      	ldr	r3, [sp, #12]
 800476e:	e7f4      	b.n	800475a <ST7735_WriteChar.isra.0+0x62>

08004770 <ST7735_Unselect>:
 8004770:	2180      	movs	r1, #128	; 0x80
 8004772:	b510      	push	{r4, lr}
 8004774:	2201      	movs	r2, #1
 8004776:	4802      	ldr	r0, [pc, #8]	; (8004780 <ST7735_Unselect+0x10>)
 8004778:	0209      	lsls	r1, r1, #8
 800477a:	f7ff f8b9 	bl	80038f0 <HAL_GPIO_WritePin>
 800477e:	bd10      	pop	{r4, pc}
 8004780:	50000800 	.word	0x50000800

08004784 <ST7735_FillRectangle.part.0>:
 8004784:	b5f0      	push	{r4, r5, r6, r7, lr}
 8004786:	b085      	sub	sp, #20
 8004788:	001c      	movs	r4, r3
 800478a:	ab0a      	add	r3, sp, #40	; 0x28
 800478c:	881b      	ldrh	r3, [r3, #0]
 800478e:	0006      	movs	r6, r0
 8004790:	9301      	str	r3, [sp, #4]
 8004792:	1883      	adds	r3, r0, r2
 8004794:	000f      	movs	r7, r1
 8004796:	0015      	movs	r5, r2
 8004798:	2ba0      	cmp	r3, #160	; 0xa0
 800479a:	dd02      	ble.n	80047a2 <ST7735_FillRectangle.part.0+0x1e>
 800479c:	25a0      	movs	r5, #160	; 0xa0
 800479e:	1a2d      	subs	r5, r5, r0
 80047a0:	b2ad      	uxth	r5, r5
 80047a2:	193b      	adds	r3, r7, r4
 80047a4:	2b80      	cmp	r3, #128	; 0x80
 80047a6:	dd02      	ble.n	80047ae <ST7735_FillRectangle.part.0+0x2a>
 80047a8:	2480      	movs	r4, #128	; 0x80
 80047aa:	1be4      	subs	r4, r4, r7
 80047ac:	b2a4      	uxth	r4, r4
 80047ae:	f7ff ff2b 	bl	8004608 <ST7735_Select>
 80047b2:	b2f0      	uxtb	r0, r6
 80047b4:	b2f9      	uxtb	r1, r7
 80047b6:	1e4b      	subs	r3, r1, #1
 80047b8:	1e42      	subs	r2, r0, #1
 80047ba:	191b      	adds	r3, r3, r4
 80047bc:	1952      	adds	r2, r2, r5
 80047be:	b2db      	uxtb	r3, r3
 80047c0:	b2d2      	uxtb	r2, r2
 80047c2:	f7ff ff77 	bl	80046b4 <ST7735_SetAddressWindow>
 80047c6:	2201      	movs	r2, #1
 80047c8:	20a0      	movs	r0, #160	; 0xa0
 80047ca:	9b01      	ldr	r3, [sp, #4]
 80047cc:	ae03      	add	r6, sp, #12
 80047ce:	ba5b      	rev16	r3, r3
 80047d0:	0011      	movs	r1, r2
 80047d2:	8033      	strh	r3, [r6, #0]
 80047d4:	05c0      	lsls	r0, r0, #23
 80047d6:	f7ff f88b 	bl	80038f0 <HAL_GPIO_WritePin>
 80047da:	2c00      	cmp	r4, #0
 80047dc:	d111      	bne.n	8004802 <ST7735_FillRectangle.part.0+0x7e>
 80047de:	f7ff ffc7 	bl	8004770 <ST7735_Unselect>
 80047e2:	b005      	add	sp, #20
 80047e4:	bdf0      	pop	{r4, r5, r6, r7, pc}
 80047e6:	2301      	movs	r3, #1
 80047e8:	2202      	movs	r2, #2
 80047ea:	0031      	movs	r1, r6
 80047ec:	4806      	ldr	r0, [pc, #24]	; (8004808 <ST7735_FillRectangle.part.0+0x84>)
 80047ee:	425b      	negs	r3, r3
 80047f0:	f7ff fd20 	bl	8004234 <HAL_SPI_Transmit>
 80047f4:	3f01      	subs	r7, #1
 80047f6:	b2bf      	uxth	r7, r7
 80047f8:	2f00      	cmp	r7, #0
 80047fa:	d1f4      	bne.n	80047e6 <ST7735_FillRectangle.part.0+0x62>
 80047fc:	3c01      	subs	r4, #1
 80047fe:	b2a4      	uxth	r4, r4
 8004800:	e7eb      	b.n	80047da <ST7735_FillRectangle.part.0+0x56>
 8004802:	002f      	movs	r7, r5
 8004804:	e7f8      	b.n	80047f8 <ST7735_FillRectangle.part.0+0x74>
 8004806:	46c0      	nop			; (mov r8, r8)
 8004808:	200000d8 	.word	0x200000d8

0800480c <ST7735_Init>:
 800480c:	b510      	push	{r4, lr}
 800480e:	24a0      	movs	r4, #160	; 0xa0
 8004810:	05e4      	lsls	r4, r4, #23
 8004812:	f7ff fef9 	bl	8004608 <ST7735_Select>
 8004816:	2200      	movs	r2, #0
 8004818:	2108      	movs	r1, #8
 800481a:	0020      	movs	r0, r4
 800481c:	f7ff f868 	bl	80038f0 <HAL_GPIO_WritePin>
 8004820:	2005      	movs	r0, #5
 8004822:	f7fe ff5b 	bl	80036dc <HAL_Delay>
 8004826:	2201      	movs	r2, #1
 8004828:	2108      	movs	r1, #8
 800482a:	0020      	movs	r0, r4
 800482c:	f7ff f860 	bl	80038f0 <HAL_GPIO_WritePin>
 8004830:	4805      	ldr	r0, [pc, #20]	; (8004848 <ST7735_Init+0x3c>)
 8004832:	f7ff ff1b 	bl	800466c <ST7735_ExecuteCommandList>
 8004836:	4805      	ldr	r0, [pc, #20]	; (800484c <ST7735_Init+0x40>)
 8004838:	f7ff ff18 	bl	800466c <ST7735_ExecuteCommandList>
 800483c:	4804      	ldr	r0, [pc, #16]	; (8004850 <ST7735_Init+0x44>)
 800483e:	f7ff ff15 	bl	800466c <ST7735_ExecuteCommandList>
 8004842:	f7ff ff95 	bl	8004770 <ST7735_Unselect>
 8004846:	bd10      	pop	{r4, pc}
 8004848:	08007884 	.word	0x08007884
 800484c:	080078bf 	.word	0x080078bf
 8004850:	080078cc 	.word	0x080078cc

08004854 <ST7735_DrawPixel>:
 8004854:	b573      	push	{r0, r1, r4, r5, r6, lr}
 8004856:	0005      	movs	r5, r0
 8004858:	000c      	movs	r4, r1
 800485a:	0016      	movs	r6, r2
 800485c:	289f      	cmp	r0, #159	; 0x9f
 800485e:	d813      	bhi.n	8004888 <ST7735_DrawPixel+0x34>
 8004860:	297f      	cmp	r1, #127	; 0x7f
 8004862:	d811      	bhi.n	8004888 <ST7735_DrawPixel+0x34>
 8004864:	f7ff fed0 	bl	8004608 <ST7735_Select>
 8004868:	b2e8      	uxtb	r0, r5
 800486a:	b2e1      	uxtb	r1, r4
 800486c:	1c4b      	adds	r3, r1, #1
 800486e:	1c42      	adds	r2, r0, #1
 8004870:	b2db      	uxtb	r3, r3
 8004872:	b2d2      	uxtb	r2, r2
 8004874:	f7ff ff1e 	bl	80046b4 <ST7735_SetAddressWindow>
 8004878:	ba76      	rev16	r6, r6
 800487a:	a801      	add	r0, sp, #4
 800487c:	2102      	movs	r1, #2
 800487e:	8006      	strh	r6, [r0, #0]
 8004880:	f7ff fee0 	bl	8004644 <ST7735_WriteData>
 8004884:	f7ff ff74 	bl	8004770 <ST7735_Unselect>
 8004888:	bd73      	pop	{r0, r1, r4, r5, r6, pc}

0800488a <ST7735_WriteString>:
 800488a:	b082      	sub	sp, #8
 800488c:	b5f0      	push	{r4, r5, r6, r7, lr}
 800488e:	b089      	sub	sp, #36	; 0x24
 8004890:	000d      	movs	r5, r1
 8004892:	a911      	add	r1, sp, #68	; 0x44
 8004894:	8809      	ldrh	r1, [r1, #0]
 8004896:	0017      	movs	r7, r2
 8004898:	9106      	str	r1, [sp, #24]
 800489a:	a912      	add	r1, sp, #72	; 0x48
 800489c:	8809      	ldrh	r1, [r1, #0]
 800489e:	0a1a      	lsrs	r2, r3, #8
 80048a0:	930f      	str	r3, [sp, #60]	; 0x3c
 80048a2:	b2de      	uxtb	r6, r3
 80048a4:	b2d3      	uxtb	r3, r2
 80048a6:	0004      	movs	r4, r0
 80048a8:	9107      	str	r1, [sp, #28]
 80048aa:	9305      	str	r3, [sp, #20]
 80048ac:	f7ff feac 	bl	8004608 <ST7735_Select>
 80048b0:	783a      	ldrb	r2, [r7, #0]
 80048b2:	2a00      	cmp	r2, #0
 80048b4:	d106      	bne.n	80048c4 <ST7735_WriteString+0x3a>
 80048b6:	f7ff ff5b 	bl	8004770 <ST7735_Unselect>
 80048ba:	b009      	add	sp, #36	; 0x24
 80048bc:	bcf0      	pop	{r4, r5, r6, r7}
 80048be:	bc08      	pop	{r3}
 80048c0:	b002      	add	sp, #8
 80048c2:	4718      	bx	r3
 80048c4:	19a3      	adds	r3, r4, r6
 80048c6:	2b9f      	cmp	r3, #159	; 0x9f
 80048c8:	dd08      	ble.n	80048dc <ST7735_WriteString+0x52>
 80048ca:	9b05      	ldr	r3, [sp, #20]
 80048cc:	18ed      	adds	r5, r5, r3
 80048ce:	b2ad      	uxth	r5, r5
 80048d0:	18eb      	adds	r3, r5, r3
 80048d2:	2b7f      	cmp	r3, #127	; 0x7f
 80048d4:	dcef      	bgt.n	80048b6 <ST7735_WriteString+0x2c>
 80048d6:	2400      	movs	r4, #0
 80048d8:	2a20      	cmp	r2, #32
 80048da:	d00e      	beq.n	80048fa <ST7735_WriteString+0x70>
 80048dc:	9b07      	ldr	r3, [sp, #28]
 80048de:	0020      	movs	r0, r4
 80048e0:	9303      	str	r3, [sp, #12]
 80048e2:	9b06      	ldr	r3, [sp, #24]
 80048e4:	0029      	movs	r1, r5
 80048e6:	9302      	str	r3, [sp, #8]
 80048e8:	9b10      	ldr	r3, [sp, #64]	; 0x40
 80048ea:	19a4      	adds	r4, r4, r6
 80048ec:	9301      	str	r3, [sp, #4]
 80048ee:	9b05      	ldr	r3, [sp, #20]
 80048f0:	b2a4      	uxth	r4, r4
 80048f2:	9300      	str	r3, [sp, #0]
 80048f4:	0033      	movs	r3, r6
 80048f6:	f7ff feff 	bl	80046f8 <ST7735_WriteChar.isra.0>
 80048fa:	3701      	adds	r7, #1
 80048fc:	e7d8      	b.n	80048b0 <ST7735_WriteString+0x26>

080048fe <ST7735_WriteStringWithSelect>:
 80048fe:	b082      	sub	sp, #8
 8004900:	b5f0      	push	{r4, r5, r6, r7, lr}
 8004902:	0017      	movs	r7, r2
 8004904:	b089      	sub	sp, #36	; 0x24
 8004906:	0a1a      	lsrs	r2, r3, #8
 8004908:	930f      	str	r3, [sp, #60]	; 0x3c
 800490a:	000d      	movs	r5, r1
 800490c:	b2de      	uxtb	r6, r3
 800490e:	a911      	add	r1, sp, #68	; 0x44
 8004910:	b2d3      	uxtb	r3, r2
 8004912:	7809      	ldrb	r1, [r1, #0]
 8004914:	9304      	str	r3, [sp, #16]
 8004916:	9b10      	ldr	r3, [sp, #64]	; 0x40
 8004918:	0004      	movs	r4, r0
 800491a:	9306      	str	r3, [sp, #24]
 800491c:	9107      	str	r1, [sp, #28]
 800491e:	f7ff fe73 	bl	8004608 <ST7735_Select>
 8004922:	2306      	movs	r3, #6
 8004924:	9305      	str	r3, [sp, #20]
 8004926:	783a      	ldrb	r2, [r7, #0]
 8004928:	2a00      	cmp	r2, #0
 800492a:	d106      	bne.n	800493a <ST7735_WriteStringWithSelect+0x3c>
 800492c:	f7ff ff20 	bl	8004770 <ST7735_Unselect>
 8004930:	b009      	add	sp, #36	; 0x24
 8004932:	bcf0      	pop	{r4, r5, r6, r7}
 8004934:	bc08      	pop	{r3}
 8004936:	b002      	add	sp, #8
 8004938:	4718      	bx	r3
 800493a:	19a3      	adds	r3, r4, r6
 800493c:	2b9f      	cmp	r3, #159	; 0x9f
 800493e:	dd08      	ble.n	8004952 <ST7735_WriteStringWithSelect+0x54>
 8004940:	9b04      	ldr	r3, [sp, #16]
 8004942:	18ed      	adds	r5, r5, r3
 8004944:	b2ad      	uxth	r5, r5
 8004946:	18eb      	adds	r3, r5, r3
 8004948:	2b7f      	cmp	r3, #127	; 0x7f
 800494a:	dcef      	bgt.n	800492c <ST7735_WriteStringWithSelect+0x2e>
 800494c:	2400      	movs	r4, #0
 800494e:	2a20      	cmp	r2, #32
 8004950:	d01f      	beq.n	8004992 <ST7735_WriteStringWithSelect+0x94>
 8004952:	9905      	ldr	r1, [sp, #20]
 8004954:	9807      	ldr	r0, [sp, #28]
 8004956:	ab12      	add	r3, sp, #72	; 0x48
 8004958:	4281      	cmp	r1, r0
 800495a:	d11c      	bne.n	8004996 <ST7735_WriteStringWithSelect+0x98>
 800495c:	0011      	movs	r1, r2
 800495e:	3930      	subs	r1, #48	; 0x30
 8004960:	2909      	cmp	r1, #9
 8004962:	d818      	bhi.n	8004996 <ST7735_WriteStringWithSelect+0x98>
 8004964:	88d9      	ldrh	r1, [r3, #6]
 8004966:	9103      	str	r1, [sp, #12]
 8004968:	889b      	ldrh	r3, [r3, #4]
 800496a:	9302      	str	r3, [sp, #8]
 800496c:	9b06      	ldr	r3, [sp, #24]
 800496e:	0029      	movs	r1, r5
 8004970:	9301      	str	r3, [sp, #4]
 8004972:	9b04      	ldr	r3, [sp, #16]
 8004974:	0020      	movs	r0, r4
 8004976:	9300      	str	r3, [sp, #0]
 8004978:	0033      	movs	r3, r6
 800497a:	f7ff febd 	bl	80046f8 <ST7735_WriteChar.isra.0>
 800497e:	783b      	ldrb	r3, [r7, #0]
 8004980:	3b30      	subs	r3, #48	; 0x30
 8004982:	2b09      	cmp	r3, #9
 8004984:	d803      	bhi.n	800498e <ST7735_WriteStringWithSelect+0x90>
 8004986:	9b05      	ldr	r3, [sp, #20]
 8004988:	3b01      	subs	r3, #1
 800498a:	b2db      	uxtb	r3, r3
 800498c:	9305      	str	r3, [sp, #20]
 800498e:	19a4      	adds	r4, r4, r6
 8004990:	b2a4      	uxth	r4, r4
 8004992:	3701      	adds	r7, #1
 8004994:	e7c7      	b.n	8004926 <ST7735_WriteStringWithSelect+0x28>
 8004996:	8859      	ldrh	r1, [r3, #2]
 8004998:	9103      	str	r1, [sp, #12]
 800499a:	881b      	ldrh	r3, [r3, #0]
 800499c:	e7e5      	b.n	800496a <ST7735_WriteStringWithSelect+0x6c>

0800499e <ST7735_FillRectangle>:
 800499e:	b513      	push	{r0, r1, r4, lr}
 80049a0:	ac04      	add	r4, sp, #16
 80049a2:	8824      	ldrh	r4, [r4, #0]
 80049a4:	289f      	cmp	r0, #159	; 0x9f
 80049a6:	d804      	bhi.n	80049b2 <ST7735_FillRectangle+0x14>
 80049a8:	297f      	cmp	r1, #127	; 0x7f
 80049aa:	d802      	bhi.n	80049b2 <ST7735_FillRectangle+0x14>
 80049ac:	9400      	str	r4, [sp, #0]
 80049ae:	f7ff fee9 	bl	8004784 <ST7735_FillRectangle.part.0>
 80049b2:	bd13      	pop	{r0, r1, r4, pc}

080049b4 <ST7735_FillScreen>:
 80049b4:	b507      	push	{r0, r1, r2, lr}
 80049b6:	2100      	movs	r1, #0
 80049b8:	9000      	str	r0, [sp, #0]
 80049ba:	2380      	movs	r3, #128	; 0x80
 80049bc:	22a0      	movs	r2, #160	; 0xa0
 80049be:	0008      	movs	r0, r1
 80049c0:	f7ff fee0 	bl	8004784 <ST7735_FillRectangle.part.0>
 80049c4:	bd07      	pop	{r0, r1, r2, pc}

080049c6 <ST7735_DrawImage>:
 80049c6:	b5f8      	push	{r3, r4, r5, r6, r7, lr}
 80049c8:	0007      	movs	r7, r0
 80049ca:	000e      	movs	r6, r1
 80049cc:	0015      	movs	r5, r2
 80049ce:	001c      	movs	r4, r3
 80049d0:	289f      	cmp	r0, #159	; 0x9f
 80049d2:	d81b      	bhi.n	8004a0c <ST7735_DrawImage+0x46>
 80049d4:	297f      	cmp	r1, #127	; 0x7f
 80049d6:	d819      	bhi.n	8004a0c <ST7735_DrawImage+0x46>
 80049d8:	1883      	adds	r3, r0, r2
 80049da:	2ba0      	cmp	r3, #160	; 0xa0
 80049dc:	dc16      	bgt.n	8004a0c <ST7735_DrawImage+0x46>
 80049de:	190b      	adds	r3, r1, r4
 80049e0:	2b80      	cmp	r3, #128	; 0x80
 80049e2:	dc13      	bgt.n	8004a0c <ST7735_DrawImage+0x46>
 80049e4:	f7ff fe10 	bl	8004608 <ST7735_Select>
 80049e8:	b2f8      	uxtb	r0, r7
 80049ea:	b2f1      	uxtb	r1, r6
 80049ec:	1e63      	subs	r3, r4, #1
 80049ee:	1e6a      	subs	r2, r5, #1
 80049f0:	18cb      	adds	r3, r1, r3
 80049f2:	1882      	adds	r2, r0, r2
 80049f4:	b2db      	uxtb	r3, r3
 80049f6:	b2d2      	uxtb	r2, r2
 80049f8:	f7ff fe5c 	bl	80046b4 <ST7735_SetAddressWindow>
 80049fc:	0021      	movs	r1, r4
 80049fe:	4369      	muls	r1, r5
 8004a00:	9806      	ldr	r0, [sp, #24]
 8004a02:	0049      	lsls	r1, r1, #1
 8004a04:	f7ff fe1e 	bl	8004644 <ST7735_WriteData>
 8004a08:	f7ff feb2 	bl	8004770 <ST7735_Unselect>
 8004a0c:	bdf8      	pop	{r3, r4, r5, r6, r7, pc}

08004a0e <ST7735_DrawHLine>:
 8004a0e:	b5f0      	push	{r4, r5, r6, r7, lr}
 8004a10:	0004      	movs	r4, r0
 8004a12:	000e      	movs	r6, r1
 8004a14:	0015      	movs	r5, r2
 8004a16:	b085      	sub	sp, #20
 8004a18:	9301      	str	r3, [sp, #4]
 8004a1a:	f7ff fdf5 	bl	8004608 <ST7735_Select>
 8004a1e:	1b33      	subs	r3, r6, r4
 8004a20:	b29b      	uxth	r3, r3
 8004a22:	9300      	str	r3, [sp, #0]
 8004a24:	9b01      	ldr	r3, [sp, #4]
 8004a26:	af03      	add	r7, sp, #12
 8004a28:	ba5b      	rev16	r3, r3
 8004a2a:	0020      	movs	r0, r4
 8004a2c:	803b      	strh	r3, [r7, #0]
 8004a2e:	0032      	movs	r2, r6
 8004a30:	002b      	movs	r3, r5
 8004a32:	0029      	movs	r1, r5
 8004a34:	f7ff fe3e 	bl	80046b4 <ST7735_SetAddressWindow>
 8004a38:	2400      	movs	r4, #0
 8004a3a:	9b00      	ldr	r3, [sp, #0]
 8004a3c:	42a3      	cmp	r3, r4
 8004a3e:	dc03      	bgt.n	8004a48 <ST7735_DrawHLine+0x3a>
 8004a40:	f7ff fe96 	bl	8004770 <ST7735_Unselect>
 8004a44:	b005      	add	sp, #20
 8004a46:	bdf0      	pop	{r4, r5, r6, r7, pc}
 8004a48:	2102      	movs	r1, #2
 8004a4a:	0038      	movs	r0, r7
 8004a4c:	f7ff fdfa 	bl	8004644 <ST7735_WriteData>
 8004a50:	3401      	adds	r4, #1
 8004a52:	e7f2      	b.n	8004a3a <ST7735_DrawHLine+0x2c>

08004a54 <ST7735_DrawVLine>:
 8004a54:	b5f0      	push	{r4, r5, r6, r7, lr}
 8004a56:	0016      	movs	r6, r2
 8004a58:	000d      	movs	r5, r1
 8004a5a:	0004      	movs	r4, r0
 8004a5c:	b085      	sub	sp, #20
 8004a5e:	9301      	str	r3, [sp, #4]
 8004a60:	f7ff fdd2 	bl	8004608 <ST7735_Select>
 8004a64:	1b73      	subs	r3, r6, r5
 8004a66:	b29b      	uxth	r3, r3
 8004a68:	9300      	str	r3, [sp, #0]
 8004a6a:	9b01      	ldr	r3, [sp, #4]
 8004a6c:	af03      	add	r7, sp, #12
 8004a6e:	ba5b      	rev16	r3, r3
 8004a70:	0022      	movs	r2, r4
 8004a72:	0020      	movs	r0, r4
 8004a74:	803b      	strh	r3, [r7, #0]
 8004a76:	0029      	movs	r1, r5
 8004a78:	0033      	movs	r3, r6
 8004a7a:	f7ff fe1b 	bl	80046b4 <ST7735_SetAddressWindow>
 8004a7e:	2400      	movs	r4, #0
 8004a80:	9b00      	ldr	r3, [sp, #0]
 8004a82:	42a3      	cmp	r3, r4
 8004a84:	dc03      	bgt.n	8004a8e <ST7735_DrawVLine+0x3a>
 8004a86:	f7ff fe73 	bl	8004770 <ST7735_Unselect>
 8004a8a:	b005      	add	sp, #20
 8004a8c:	bdf0      	pop	{r4, r5, r6, r7, pc}
 8004a8e:	2102      	movs	r1, #2
 8004a90:	0038      	movs	r0, r7
 8004a92:	f7ff fdd7 	bl	8004644 <ST7735_WriteData>
 8004a96:	3401      	adds	r4, #1
 8004a98:	e7f2      	b.n	8004a80 <ST7735_DrawVLine+0x2c>

08004a9a <ST7735_DrawLine>:
 8004a9a:	b5f0      	push	{r4, r5, r6, r7, lr}
 8004a9c:	b087      	sub	sp, #28
 8004a9e:	9300      	str	r3, [sp, #0]
 8004aa0:	ab0c      	add	r3, sp, #48	; 0x30
 8004aa2:	881e      	ldrh	r6, [r3, #0]
 8004aa4:	9b00      	ldr	r3, [sp, #0]
 8004aa6:	1a15      	subs	r5, r2, r0
 8004aa8:	0004      	movs	r4, r0
 8004aaa:	0017      	movs	r7, r2
 8004aac:	b2a8      	uxth	r0, r5
 8004aae:	1a5a      	subs	r2, r3, r1
 8004ab0:	b22d      	sxth	r5, r5
 8004ab2:	b293      	uxth	r3, r2
 8004ab4:	b212      	sxth	r2, r2
 8004ab6:	2d00      	cmp	r5, #0
 8004ab8:	dd00      	ble.n	8004abc <ST7735_DrawLine+0x22>
 8004aba:	e093      	b.n	8004be4 <ST7735_DrawLine+0x14a>
 8004abc:	2a00      	cmp	r2, #0
 8004abe:	dd00      	ble.n	8004ac2 <ST7735_DrawLine+0x28>
 8004ac0:	e089      	b.n	8004bd6 <ST7735_DrawLine+0x13c>
 8004ac2:	2d00      	cmp	r5, #0
 8004ac4:	d111      	bne.n	8004aea <ST7735_DrawLine+0x50>
 8004ac6:	466b      	mov	r3, sp
 8004ac8:	781d      	ldrb	r5, [r3, #0]
 8004aca:	9b00      	ldr	r3, [sp, #0]
 8004acc:	b2e0      	uxtb	r0, r4
 8004ace:	b2cc      	uxtb	r4, r1
 8004ad0:	428b      	cmp	r3, r1
 8004ad2:	dd06      	ble.n	8004ae2 <ST7735_DrawLine+0x48>
 8004ad4:	0033      	movs	r3, r6
 8004ad6:	002a      	movs	r2, r5
 8004ad8:	0021      	movs	r1, r4
 8004ada:	f7ff ffbb 	bl	8004a54 <ST7735_DrawVLine>
 8004ade:	b007      	add	sp, #28
 8004ae0:	bdf0      	pop	{r4, r5, r6, r7, pc}
 8004ae2:	0033      	movs	r3, r6
 8004ae4:	0022      	movs	r2, r4
 8004ae6:	0029      	movs	r1, r5
 8004ae8:	e7f7      	b.n	8004ada <ST7735_DrawLine+0x40>
 8004aea:	2501      	movs	r5, #1
 8004aec:	426d      	negs	r5, r5
 8004aee:	2a00      	cmp	r2, #0
 8004af0:	d10b      	bne.n	8004b0a <ST7735_DrawLine+0x70>
 8004af2:	b2e5      	uxtb	r5, r4
 8004af4:	b2ca      	uxtb	r2, r1
 8004af6:	0033      	movs	r3, r6
 8004af8:	0029      	movs	r1, r5
 8004afa:	b2f8      	uxtb	r0, r7
 8004afc:	42a7      	cmp	r7, r4
 8004afe:	dd01      	ble.n	8004b04 <ST7735_DrawLine+0x6a>
 8004b00:	0001      	movs	r1, r0
 8004b02:	0028      	movs	r0, r5
 8004b04:	f7ff ff83 	bl	8004a0e <ST7735_DrawHLine>
 8004b08:	e7e9      	b.n	8004ade <ST7735_DrawLine+0x44>
 8004b0a:	2201      	movs	r2, #1
 8004b0c:	4252      	negs	r2, r2
 8004b0e:	b2ad      	uxth	r5, r5
 8004b10:	b292      	uxth	r2, r2
 8004b12:	4368      	muls	r0, r5
 8004b14:	4353      	muls	r3, r2
 8004b16:	9501      	str	r5, [sp, #4]
 8004b18:	9202      	str	r2, [sp, #8]
 8004b1a:	b285      	uxth	r5, r0
 8004b1c:	b29a      	uxth	r2, r3
 8004b1e:	b200      	sxth	r0, r0
 8004b20:	4694      	mov	ip, r2
 8004b22:	b21b      	sxth	r3, r3
 8004b24:	0042      	lsls	r2, r0, #1
 8004b26:	9204      	str	r2, [sp, #16]
 8004b28:	005a      	lsls	r2, r3, #1
 8004b2a:	9205      	str	r2, [sp, #20]
 8004b2c:	4298      	cmp	r0, r3
 8004b2e:	db2c      	blt.n	8004b8a <ST7735_DrawLine+0xf0>
 8004b30:	466b      	mov	r3, sp
 8004b32:	8a9b      	ldrh	r3, [r3, #20]
 8004b34:	9100      	str	r1, [sp, #0]
 8004b36:	1b5d      	subs	r5, r3, r5
 8004b38:	9303      	str	r3, [sp, #12]
 8004b3a:	b22d      	sxth	r5, r5
 8004b3c:	466b      	mov	r3, sp
 8004b3e:	881b      	ldrh	r3, [r3, #0]
 8004b40:	9305      	str	r3, [sp, #20]
 8004b42:	42bc      	cmp	r4, r7
 8004b44:	d106      	bne.n	8004b54 <ST7735_DrawLine+0xba>
 8004b46:	466b      	mov	r3, sp
 8004b48:	0032      	movs	r2, r6
 8004b4a:	8819      	ldrh	r1, [r3, #0]
 8004b4c:	b2b8      	uxth	r0, r7
 8004b4e:	f7ff fe81 	bl	8004854 <ST7735_DrawPixel>
 8004b52:	e7c4      	b.n	8004ade <ST7735_DrawLine+0x44>
 8004b54:	b2a4      	uxth	r4, r4
 8004b56:	0032      	movs	r2, r6
 8004b58:	0020      	movs	r0, r4
 8004b5a:	9905      	ldr	r1, [sp, #20]
 8004b5c:	f7ff fe7a 	bl	8004854 <ST7735_DrawPixel>
 8004b60:	9b01      	ldr	r3, [sp, #4]
 8004b62:	9a03      	ldr	r2, [sp, #12]
 8004b64:	191c      	adds	r4, r3, r4
 8004b66:	b224      	sxth	r4, r4
 8004b68:	b2ab      	uxth	r3, r5
 8004b6a:	2d00      	cmp	r5, #0
 8004b6c:	da02      	bge.n	8004b74 <ST7735_DrawLine+0xda>
 8004b6e:	18d3      	adds	r3, r2, r3
 8004b70:	b21d      	sxth	r5, r3
 8004b72:	e7e3      	b.n	8004b3c <ST7735_DrawLine+0xa2>
 8004b74:	9904      	ldr	r1, [sp, #16]
 8004b76:	1a55      	subs	r5, r2, r1
 8004b78:	9a02      	ldr	r2, [sp, #8]
 8004b7a:	195d      	adds	r5, r3, r5
 8004b7c:	4694      	mov	ip, r2
 8004b7e:	9b05      	ldr	r3, [sp, #20]
 8004b80:	b22d      	sxth	r5, r5
 8004b82:	4463      	add	r3, ip
 8004b84:	b21b      	sxth	r3, r3
 8004b86:	9300      	str	r3, [sp, #0]
 8004b88:	e7d8      	b.n	8004b3c <ST7735_DrawLine+0xa2>
 8004b8a:	466b      	mov	r3, sp
 8004b8c:	4662      	mov	r2, ip
 8004b8e:	0027      	movs	r7, r4
 8004b90:	8a1b      	ldrh	r3, [r3, #16]
 8004b92:	1a9d      	subs	r5, r3, r2
 8004b94:	9303      	str	r3, [sp, #12]
 8004b96:	b22d      	sxth	r5, r5
 8004b98:	b2bb      	uxth	r3, r7
 8004b9a:	9304      	str	r3, [sp, #16]
 8004b9c:	9b00      	ldr	r3, [sp, #0]
 8004b9e:	4299      	cmp	r1, r3
 8004ba0:	d0d1      	beq.n	8004b46 <ST7735_DrawLine+0xac>
 8004ba2:	b28c      	uxth	r4, r1
 8004ba4:	0021      	movs	r1, r4
 8004ba6:	0032      	movs	r2, r6
 8004ba8:	9804      	ldr	r0, [sp, #16]
 8004baa:	f7ff fe53 	bl	8004854 <ST7735_DrawPixel>
 8004bae:	9b02      	ldr	r3, [sp, #8]
 8004bb0:	9a03      	ldr	r2, [sp, #12]
 8004bb2:	191c      	adds	r4, r3, r4
 8004bb4:	b221      	sxth	r1, r4
 8004bb6:	b2ab      	uxth	r3, r5
 8004bb8:	2d00      	cmp	r5, #0
 8004bba:	da02      	bge.n	8004bc2 <ST7735_DrawLine+0x128>
 8004bbc:	18d3      	adds	r3, r2, r3
 8004bbe:	b21d      	sxth	r5, r3
 8004bc0:	e7ea      	b.n	8004b98 <ST7735_DrawLine+0xfe>
 8004bc2:	9805      	ldr	r0, [sp, #20]
 8004bc4:	1a15      	subs	r5, r2, r0
 8004bc6:	9a01      	ldr	r2, [sp, #4]
 8004bc8:	195d      	adds	r5, r3, r5
 8004bca:	4694      	mov	ip, r2
 8004bcc:	9b04      	ldr	r3, [sp, #16]
 8004bce:	b22d      	sxth	r5, r5
 8004bd0:	4463      	add	r3, ip
 8004bd2:	b21f      	sxth	r7, r3
 8004bd4:	e7e0      	b.n	8004b98 <ST7735_DrawLine+0xfe>
 8004bd6:	2d00      	cmp	r5, #0
 8004bd8:	d100      	bne.n	8004bdc <ST7735_DrawLine+0x142>
 8004bda:	e774      	b.n	8004ac6 <ST7735_DrawLine+0x2c>
 8004bdc:	2501      	movs	r5, #1
 8004bde:	2201      	movs	r2, #1
 8004be0:	426d      	negs	r5, r5
 8004be2:	e794      	b.n	8004b0e <ST7735_DrawLine+0x74>
 8004be4:	2501      	movs	r5, #1
 8004be6:	2a00      	cmp	r2, #0
 8004be8:	dc00      	bgt.n	8004bec <ST7735_DrawLine+0x152>
 8004bea:	e780      	b.n	8004aee <ST7735_DrawLine+0x54>
 8004bec:	002a      	movs	r2, r5
 8004bee:	e78e      	b.n	8004b0e <ST7735_DrawLine+0x74>

08004bf0 <ST7735_drawCircleHelper>:
 8004bf0:	b5f0      	push	{r4, r5, r6, r7, lr}
 8004bf2:	b089      	sub	sp, #36	; 0x24
 8004bf4:	9305      	str	r3, [sp, #20]
 8004bf6:	ab0e      	add	r3, sp, #56	; 0x38
 8004bf8:	881c      	ldrh	r4, [r3, #0]
 8004bfa:	466b      	mov	r3, sp
 8004bfc:	9201      	str	r2, [sp, #4]
 8004bfe:	2201      	movs	r2, #1
 8004c00:	889b      	ldrh	r3, [r3, #4]
 8004c02:	9003      	str	r0, [sp, #12]
 8004c04:	1ad2      	subs	r2, r2, r3
 8004c06:	005b      	lsls	r3, r3, #1
 8004c08:	425b      	negs	r3, r3
 8004c0a:	b21b      	sxth	r3, r3
 8004c0c:	9307      	str	r3, [sp, #28]
 8004c0e:	2300      	movs	r3, #0
 8004c10:	b212      	sxth	r2, r2
 8004c12:	9104      	str	r1, [sp, #16]
 8004c14:	9202      	str	r2, [sp, #8]
 8004c16:	9306      	str	r3, [sp, #24]
 8004c18:	9b06      	ldr	r3, [sp, #24]
 8004c1a:	9a01      	ldr	r2, [sp, #4]
 8004c1c:	4293      	cmp	r3, r2
 8004c1e:	db01      	blt.n	8004c24 <ST7735_drawCircleHelper+0x34>
 8004c20:	b009      	add	sp, #36	; 0x24
 8004c22:	bdf0      	pop	{r4, r5, r6, r7, pc}
 8004c24:	9b02      	ldr	r3, [sp, #8]
 8004c26:	2b00      	cmp	r3, #0
 8004c28:	db0b      	blt.n	8004c42 <ST7735_drawCircleHelper+0x52>
 8004c2a:	9a01      	ldr	r2, [sp, #4]
 8004c2c:	3a01      	subs	r2, #1
 8004c2e:	b213      	sxth	r3, r2
 8004c30:	9301      	str	r3, [sp, #4]
 8004c32:	9b07      	ldr	r3, [sp, #28]
 8004c34:	3302      	adds	r3, #2
 8004c36:	b21a      	sxth	r2, r3
 8004c38:	9207      	str	r2, [sp, #28]
 8004c3a:	9a02      	ldr	r2, [sp, #8]
 8004c3c:	189b      	adds	r3, r3, r2
 8004c3e:	b21b      	sxth	r3, r3
 8004c40:	9302      	str	r3, [sp, #8]
 8004c42:	9b06      	ldr	r3, [sp, #24]
 8004c44:	3301      	adds	r3, #1
 8004c46:	b29a      	uxth	r2, r3
 8004c48:	b21b      	sxth	r3, r3
 8004c4a:	9200      	str	r2, [sp, #0]
 8004c4c:	9306      	str	r3, [sp, #24]
 8004c4e:	0053      	lsls	r3, r2, #1
 8004c50:	9a02      	ldr	r2, [sp, #8]
 8004c52:	3301      	adds	r3, #1
 8004c54:	189b      	adds	r3, r3, r2
 8004c56:	2204      	movs	r2, #4
 8004c58:	b21b      	sxth	r3, r3
 8004c5a:	9302      	str	r3, [sp, #8]
 8004c5c:	9b05      	ldr	r3, [sp, #20]
 8004c5e:	4213      	tst	r3, r2
 8004c60:	d013      	beq.n	8004c8a <ST7735_drawCircleHelper+0x9a>
 8004c62:	466b      	mov	r3, sp
 8004c64:	899d      	ldrh	r5, [r3, #12]
 8004c66:	8a1e      	ldrh	r6, [r3, #16]
 8004c68:	889f      	ldrh	r7, [r3, #4]
 8004c6a:	9b00      	ldr	r3, [sp, #0]
 8004c6c:	19f1      	adds	r1, r6, r7
 8004c6e:	18e8      	adds	r0, r5, r3
 8004c70:	0022      	movs	r2, r4
 8004c72:	b289      	uxth	r1, r1
 8004c74:	b280      	uxth	r0, r0
 8004c76:	f7ff fded 	bl	8004854 <ST7735_DrawPixel>
 8004c7a:	9b00      	ldr	r3, [sp, #0]
 8004c7c:	19ed      	adds	r5, r5, r7
 8004c7e:	18f6      	adds	r6, r6, r3
 8004c80:	0022      	movs	r2, r4
 8004c82:	b2b1      	uxth	r1, r6
 8004c84:	b2a8      	uxth	r0, r5
 8004c86:	f7ff fde5 	bl	8004854 <ST7735_DrawPixel>
 8004c8a:	2202      	movs	r2, #2
 8004c8c:	9b05      	ldr	r3, [sp, #20]
 8004c8e:	4213      	tst	r3, r2
 8004c90:	d013      	beq.n	8004cba <ST7735_drawCircleHelper+0xca>
 8004c92:	466b      	mov	r3, sp
 8004c94:	899d      	ldrh	r5, [r3, #12]
 8004c96:	8a1e      	ldrh	r6, [r3, #16]
 8004c98:	889f      	ldrh	r7, [r3, #4]
 8004c9a:	9b00      	ldr	r3, [sp, #0]
 8004c9c:	1bf1      	subs	r1, r6, r7
 8004c9e:	18e8      	adds	r0, r5, r3
 8004ca0:	0022      	movs	r2, r4
 8004ca2:	b289      	uxth	r1, r1
 8004ca4:	b280      	uxth	r0, r0
 8004ca6:	f7ff fdd5 	bl	8004854 <ST7735_DrawPixel>
 8004caa:	9b00      	ldr	r3, [sp, #0]
 8004cac:	19ed      	adds	r5, r5, r7
 8004cae:	1af1      	subs	r1, r6, r3
 8004cb0:	0022      	movs	r2, r4
 8004cb2:	b289      	uxth	r1, r1
 8004cb4:	b2a8      	uxth	r0, r5
 8004cb6:	f7ff fdcd 	bl	8004854 <ST7735_DrawPixel>
 8004cba:	9b05      	ldr	r3, [sp, #20]
 8004cbc:	071b      	lsls	r3, r3, #28
 8004cbe:	d513      	bpl.n	8004ce8 <ST7735_drawCircleHelper+0xf8>
 8004cc0:	466b      	mov	r3, sp
 8004cc2:	899d      	ldrh	r5, [r3, #12]
 8004cc4:	889e      	ldrh	r6, [r3, #4]
 8004cc6:	8a1f      	ldrh	r7, [r3, #16]
 8004cc8:	9b00      	ldr	r3, [sp, #0]
 8004cca:	1ba8      	subs	r0, r5, r6
 8004ccc:	18f9      	adds	r1, r7, r3
 8004cce:	0022      	movs	r2, r4
 8004cd0:	b289      	uxth	r1, r1
 8004cd2:	b280      	uxth	r0, r0
 8004cd4:	f7ff fdbe 	bl	8004854 <ST7735_DrawPixel>
 8004cd8:	9b00      	ldr	r3, [sp, #0]
 8004cda:	19f6      	adds	r6, r6, r7
 8004cdc:	1ae8      	subs	r0, r5, r3
 8004cde:	0022      	movs	r2, r4
 8004ce0:	b2b1      	uxth	r1, r6
 8004ce2:	b280      	uxth	r0, r0
 8004ce4:	f7ff fdb6 	bl	8004854 <ST7735_DrawPixel>
 8004ce8:	9b05      	ldr	r3, [sp, #20]
 8004cea:	07db      	lsls	r3, r3, #31
 8004cec:	d400      	bmi.n	8004cf0 <ST7735_drawCircleHelper+0x100>
 8004cee:	e793      	b.n	8004c18 <ST7735_drawCircleHelper+0x28>
 8004cf0:	466b      	mov	r3, sp
 8004cf2:	889f      	ldrh	r7, [r3, #4]
 8004cf4:	899d      	ldrh	r5, [r3, #12]
 8004cf6:	8a1e      	ldrh	r6, [r3, #16]
 8004cf8:	9b00      	ldr	r3, [sp, #0]
 8004cfa:	1be8      	subs	r0, r5, r7
 8004cfc:	1af1      	subs	r1, r6, r3
 8004cfe:	0022      	movs	r2, r4
 8004d00:	b289      	uxth	r1, r1
 8004d02:	b280      	uxth	r0, r0
 8004d04:	f7ff fda6 	bl	8004854 <ST7735_DrawPixel>
 8004d08:	9b00      	ldr	r3, [sp, #0]
 8004d0a:	1bf6      	subs	r6, r6, r7
 8004d0c:	1aed      	subs	r5, r5, r3
 8004d0e:	0022      	movs	r2, r4
 8004d10:	b2b1      	uxth	r1, r6
 8004d12:	b2a8      	uxth	r0, r5
 8004d14:	f7ff fd9e 	bl	8004854 <ST7735_DrawPixel>
 8004d18:	e77e      	b.n	8004c18 <ST7735_drawCircleHelper+0x28>

08004d1a <ST7735_drawRoundRect>:
 8004d1a:	b5f0      	push	{r4, r5, r6, r7, lr}
 8004d1c:	b08f      	sub	sp, #60	; 0x3c
 8004d1e:	9306      	str	r3, [sp, #24]
 8004d20:	ab14      	add	r3, sp, #80	; 0x50
 8004d22:	910d      	str	r1, [sp, #52]	; 0x34
 8004d24:	2100      	movs	r1, #0
 8004d26:	5e59      	ldrsh	r1, [r3, r1]
 8004d28:	ab15      	add	r3, sp, #84	; 0x54
 8004d2a:	881b      	ldrh	r3, [r3, #0]
 8004d2c:	9205      	str	r2, [sp, #20]
 8004d2e:	9303      	str	r3, [sp, #12]
 8004d30:	466b      	mov	r3, sp
 8004d32:	900c      	str	r0, [sp, #48]	; 0x30
 8004d34:	8b1a      	ldrh	r2, [r3, #24]
 8004d36:	9805      	ldr	r0, [sp, #20]
 8004d38:	9b06      	ldr	r3, [sp, #24]
 8004d3a:	4283      	cmp	r3, r0
 8004d3c:	dd01      	ble.n	8004d42 <ST7735_drawRoundRect+0x28>
 8004d3e:	466b      	mov	r3, sp
 8004d40:	8a9a      	ldrh	r2, [r3, #20]
 8004d42:	b212      	sxth	r2, r2
 8004d44:	0fd3      	lsrs	r3, r2, #31
 8004d46:	189b      	adds	r3, r3, r2
 8004d48:	466a      	mov	r2, sp
 8004d4a:	105b      	asrs	r3, r3, #1
 8004d4c:	8393      	strh	r3, [r2, #28]
 8004d4e:	428b      	cmp	r3, r1
 8004d50:	dd00      	ble.n	8004d54 <ST7735_drawRoundRect+0x3a>
 8004d52:	8391      	strh	r1, [r2, #28]
 8004d54:	466b      	mov	r3, sp
 8004d56:	221c      	movs	r2, #28
 8004d58:	5e9b      	ldrsh	r3, [r3, r2]
 8004d5a:	2230      	movs	r2, #48	; 0x30
 8004d5c:	9304      	str	r3, [sp, #16]
 8004d5e:	466b      	mov	r3, sp
 8004d60:	189b      	adds	r3, r3, r2
 8004d62:	781b      	ldrb	r3, [r3, #0]
 8004d64:	9308      	str	r3, [sp, #32]
 8004d66:	466b      	mov	r3, sp
 8004d68:	7f1b      	ldrb	r3, [r3, #28]
 8004d6a:	9309      	str	r3, [sp, #36]	; 0x24
 8004d6c:	9a09      	ldr	r2, [sp, #36]	; 0x24
 8004d6e:	9b08      	ldr	r3, [sp, #32]
 8004d70:	0054      	lsls	r4, r2, #1
 8004d72:	189e      	adds	r6, r3, r2
 8004d74:	466b      	mov	r3, sp
 8004d76:	7d1b      	ldrb	r3, [r3, #20]
 8004d78:	b2f6      	uxtb	r6, r6
 8004d7a:	930a      	str	r3, [sp, #40]	; 0x28
 8004d7c:	b2e3      	uxtb	r3, r4
 8004d7e:	930b      	str	r3, [sp, #44]	; 0x2c
 8004d80:	9b0a      	ldr	r3, [sp, #40]	; 0x28
 8004d82:	2234      	movs	r2, #52	; 0x34
 8004d84:	18f5      	adds	r5, r6, r3
 8004d86:	9b0b      	ldr	r3, [sp, #44]	; 0x2c
 8004d88:	0030      	movs	r0, r6
 8004d8a:	1aed      	subs	r5, r5, r3
 8004d8c:	466b      	mov	r3, sp
 8004d8e:	189b      	adds	r3, r3, r2
 8004d90:	781f      	ldrb	r7, [r3, #0]
 8004d92:	b2ed      	uxtb	r5, r5
 8004d94:	003a      	movs	r2, r7
 8004d96:	0029      	movs	r1, r5
 8004d98:	9b03      	ldr	r3, [sp, #12]
 8004d9a:	f7ff fe38 	bl	8004a0e <ST7735_DrawHLine>
 8004d9e:	466b      	mov	r3, sp
 8004da0:	7e1c      	ldrb	r4, [r3, #24]
 8004da2:	1e7a      	subs	r2, r7, #1
 8004da4:	18a2      	adds	r2, r4, r2
 8004da6:	0029      	movs	r1, r5
 8004da8:	0030      	movs	r0, r6
 8004daa:	9b03      	ldr	r3, [sp, #12]
 8004dac:	b2d2      	uxtb	r2, r2
 8004dae:	f7ff fe2e 	bl	8004a0e <ST7735_DrawHLine>
 8004db2:	9b09      	ldr	r3, [sp, #36]	; 0x24
 8004db4:	9808      	ldr	r0, [sp, #32]
 8004db6:	19df      	adds	r7, r3, r7
 8004db8:	b2ff      	uxtb	r7, r7
 8004dba:	9b0b      	ldr	r3, [sp, #44]	; 0x2c
 8004dbc:	19e4      	adds	r4, r4, r7
 8004dbe:	1ae4      	subs	r4, r4, r3
 8004dc0:	b2e4      	uxtb	r4, r4
 8004dc2:	0022      	movs	r2, r4
 8004dc4:	0039      	movs	r1, r7
 8004dc6:	9b03      	ldr	r3, [sp, #12]
 8004dc8:	f7ff fe44 	bl	8004a54 <ST7735_DrawVLine>
 8004dcc:	9b08      	ldr	r3, [sp, #32]
 8004dce:	0022      	movs	r2, r4
 8004dd0:	1e58      	subs	r0, r3, #1
 8004dd2:	9b0a      	ldr	r3, [sp, #40]	; 0x28
 8004dd4:	0039      	movs	r1, r7
 8004dd6:	1818      	adds	r0, r3, r0
 8004dd8:	b2c0      	uxtb	r0, r0
 8004dda:	9b03      	ldr	r3, [sp, #12]
 8004ddc:	f7ff fe3a 	bl	8004a54 <ST7735_DrawVLine>
 8004de0:	466b      	mov	r3, sp
 8004de2:	8b9e      	ldrh	r6, [r3, #28]
 8004de4:	8e1c      	ldrh	r4, [r3, #48]	; 0x30
 8004de6:	8e9b      	ldrh	r3, [r3, #52]	; 0x34
 8004de8:	19a5      	adds	r5, r4, r6
 8004dea:	9307      	str	r3, [sp, #28]
 8004dec:	18f7      	adds	r7, r6, r3
 8004dee:	9b03      	ldr	r3, [sp, #12]
 8004df0:	b22d      	sxth	r5, r5
 8004df2:	b23f      	sxth	r7, r7
 8004df4:	0039      	movs	r1, r7
 8004df6:	0028      	movs	r0, r5
 8004df8:	9a04      	ldr	r2, [sp, #16]
 8004dfa:	9300      	str	r3, [sp, #0]
 8004dfc:	2301      	movs	r3, #1
 8004dfe:	f7ff fef7 	bl	8004bf0 <ST7735_drawCircleHelper>
 8004e02:	9b05      	ldr	r3, [sp, #20]
 8004e04:	3c01      	subs	r4, #1
 8004e06:	18e4      	adds	r4, r4, r3
 8004e08:	1ba4      	subs	r4, r4, r6
 8004e0a:	9b03      	ldr	r3, [sp, #12]
 8004e0c:	b224      	sxth	r4, r4
 8004e0e:	0039      	movs	r1, r7
 8004e10:	0020      	movs	r0, r4
 8004e12:	9a04      	ldr	r2, [sp, #16]
 8004e14:	9300      	str	r3, [sp, #0]
 8004e16:	2302      	movs	r3, #2
 8004e18:	f7ff feea 	bl	8004bf0 <ST7735_drawCircleHelper>
 8004e1c:	9b07      	ldr	r3, [sp, #28]
 8004e1e:	9a06      	ldr	r2, [sp, #24]
 8004e20:	3b01      	subs	r3, #1
 8004e22:	189b      	adds	r3, r3, r2
 8004e24:	1b9e      	subs	r6, r3, r6
 8004e26:	9b03      	ldr	r3, [sp, #12]
 8004e28:	b236      	sxth	r6, r6
 8004e2a:	0031      	movs	r1, r6
 8004e2c:	0020      	movs	r0, r4
 8004e2e:	9a04      	ldr	r2, [sp, #16]
 8004e30:	9300      	str	r3, [sp, #0]
 8004e32:	2304      	movs	r3, #4
 8004e34:	f7ff fedc 	bl	8004bf0 <ST7735_drawCircleHelper>
 8004e38:	9b03      	ldr	r3, [sp, #12]
 8004e3a:	0031      	movs	r1, r6
 8004e3c:	9300      	str	r3, [sp, #0]
 8004e3e:	0028      	movs	r0, r5
 8004e40:	2308      	movs	r3, #8
 8004e42:	9a04      	ldr	r2, [sp, #16]
 8004e44:	f7ff fed4 	bl	8004bf0 <ST7735_drawCircleHelper>
 8004e48:	b00f      	add	sp, #60	; 0x3c
 8004e4a:	bdf0      	pop	{r4, r5, r6, r7, pc}

08004e4c <SquareIcon>:
 8004e4c:	2307      	movs	r3, #7
 8004e4e:	b5f0      	push	{r4, r5, r6, r7, lr}
 8004e50:	0005      	movs	r5, r0
 8004e52:	b085      	sub	sp, #20
 8004e54:	9300      	str	r3, [sp, #0]
 8004e56:	3319      	adds	r3, #25
 8004e58:	0014      	movs	r4, r2
 8004e5a:	000e      	movs	r6, r1
 8004e5c:	9201      	str	r2, [sp, #4]
 8004e5e:	b209      	sxth	r1, r1
 8004e60:	001a      	movs	r2, r3
 8004e62:	b200      	sxth	r0, r0
 8004e64:	f7ff ff59 	bl	8004d1a <ST7735_drawRoundRect>
 8004e68:	b2ab      	uxth	r3, r5
 8004e6a:	9303      	str	r3, [sp, #12]
 8004e6c:	2305      	movs	r3, #5
 8004e6e:	9300      	str	r3, [sp, #0]
 8004e70:	3319      	adds	r3, #25
 8004e72:	001a      	movs	r2, r3
 8004e74:	1c71      	adds	r1, r6, #1
 8004e76:	1c68      	adds	r0, r5, #1
 8004e78:	9401      	str	r4, [sp, #4]
 8004e7a:	f7ff ff4e 	bl	8004d1a <ST7735_drawRoundRect>
 8004e7e:	9b03      	ldr	r3, [sp, #12]
 8004e80:	b2b7      	uxth	r7, r6
 8004e82:	1dbd      	adds	r5, r7, #6
 8004e84:	1d1e      	adds	r6, r3, #4
 8004e86:	0029      	movs	r1, r5
 8004e88:	0030      	movs	r0, r6
 8004e8a:	230c      	movs	r3, #12
 8004e8c:	2202      	movs	r2, #2
 8004e8e:	9400      	str	r4, [sp, #0]
 8004e90:	f7ff fd85 	bl	800499e <ST7735_FillRectangle>
 8004e94:	0029      	movs	r1, r5
 8004e96:	0030      	movs	r0, r6
 8004e98:	2302      	movs	r3, #2
 8004e9a:	220b      	movs	r2, #11
 8004e9c:	9400      	str	r4, [sp, #0]
 8004e9e:	f7ff fd7e 	bl	800499e <ST7735_FillRectangle>
 8004ea2:	9e03      	ldr	r6, [sp, #12]
 8004ea4:	0029      	movs	r1, r5
 8004ea6:	360f      	adds	r6, #15
 8004ea8:	0030      	movs	r0, r6
 8004eaa:	2314      	movs	r3, #20
 8004eac:	2202      	movs	r2, #2
 8004eae:	9400      	str	r4, [sp, #0]
 8004eb0:	f7ff fd75 	bl	800499e <ST7735_FillRectangle>
 8004eb4:	0039      	movs	r1, r7
 8004eb6:	0030      	movs	r0, r6
 8004eb8:	2302      	movs	r3, #2
 8004eba:	220c      	movs	r2, #12
 8004ebc:	3118      	adds	r1, #24
 8004ebe:	9400      	str	r4, [sp, #0]
 8004ec0:	f7ff fd6d 	bl	800499e <ST7735_FillRectangle>
 8004ec4:	0039      	movs	r1, r7
 8004ec6:	9803      	ldr	r0, [sp, #12]
 8004ec8:	230c      	movs	r3, #12
 8004eca:	2202      	movs	r2, #2
 8004ecc:	310e      	adds	r1, #14
 8004ece:	301a      	adds	r0, #26
 8004ed0:	9400      	str	r4, [sp, #0]
 8004ed2:	f7ff fd64 	bl	800499e <ST7735_FillRectangle>
 8004ed6:	b005      	add	sp, #20
 8004ed8:	bdf0      	pop	{r4, r5, r6, r7, pc}

08004eda <TriangleIcon>:
 8004eda:	2307      	movs	r3, #7
 8004edc:	b5f0      	push	{r4, r5, r6, r7, lr}
 8004ede:	0004      	movs	r4, r0
 8004ee0:	b087      	sub	sp, #28
 8004ee2:	9300      	str	r3, [sp, #0]
 8004ee4:	3319      	adds	r3, #25
 8004ee6:	000f      	movs	r7, r1
 8004ee8:	0015      	movs	r5, r2
 8004eea:	b209      	sxth	r1, r1
 8004eec:	b200      	sxth	r0, r0
 8004eee:	9201      	str	r2, [sp, #4]
 8004ef0:	001a      	movs	r2, r3
 8004ef2:	f7ff ff12 	bl	8004d1a <ST7735_drawRoundRect>
 8004ef6:	b2a3      	uxth	r3, r4
 8004ef8:	9302      	str	r3, [sp, #8]
 8004efa:	2305      	movs	r3, #5
 8004efc:	9300      	str	r3, [sp, #0]
 8004efe:	3319      	adds	r3, #25
 8004f00:	001a      	movs	r2, r3
 8004f02:	b2be      	uxth	r6, r7
 8004f04:	1c60      	adds	r0, r4, #1
 8004f06:	1c79      	adds	r1, r7, #1
 8004f08:	9501      	str	r5, [sp, #4]
 8004f0a:	f7ff ff06 	bl	8004d1a <ST7735_drawRoundRect>
 8004f0e:	1db3      	adds	r3, r6, #6
 8004f10:	9304      	str	r3, [sp, #16]
 8004f12:	9b02      	ldr	r3, [sp, #8]
 8004f14:	1cf4      	adds	r4, r6, #3
 8004f16:	3309      	adds	r3, #9
 8004f18:	9303      	str	r3, [sp, #12]
 8004f1a:	9b02      	ldr	r3, [sp, #8]
 8004f1c:	3303      	adds	r3, #3
 8004f1e:	9305      	str	r3, [sp, #20]
 8004f20:	0023      	movs	r3, r4
 8004f22:	0027      	movs	r7, r4
 8004f24:	b226      	sxth	r6, r4
 8004f26:	330b      	adds	r3, #11
 8004f28:	0031      	movs	r1, r6
 8004f2a:	9a05      	ldr	r2, [sp, #20]
 8004f2c:	9803      	ldr	r0, [sp, #12]
 8004f2e:	b21b      	sxth	r3, r3
 8004f30:	9500      	str	r5, [sp, #0]
 8004f32:	f7ff fdb2 	bl	8004a9a <ST7735_DrawLine>
 8004f36:	0033      	movs	r3, r6
 8004f38:	9e02      	ldr	r6, [sp, #8]
 8004f3a:	3717      	adds	r7, #23
 8004f3c:	b23f      	sxth	r7, r7
 8004f3e:	3615      	adds	r6, #21
 8004f40:	0039      	movs	r1, r7
 8004f42:	0030      	movs	r0, r6
 8004f44:	9a03      	ldr	r2, [sp, #12]
 8004f46:	9500      	str	r5, [sp, #0]
 8004f48:	f7ff fda7 	bl	8004a9a <ST7735_DrawLine>
 8004f4c:	0021      	movs	r1, r4
 8004f4e:	9802      	ldr	r0, [sp, #8]
 8004f50:	310c      	adds	r1, #12
 8004f52:	003b      	movs	r3, r7
 8004f54:	0032      	movs	r2, r6
 8004f56:	b209      	sxth	r1, r1
 8004f58:	9500      	str	r5, [sp, #0]
 8004f5a:	301c      	adds	r0, #28
 8004f5c:	f7ff fd9d 	bl	8004a9a <ST7735_DrawLine>
 8004f60:	3401      	adds	r4, #1
 8004f62:	9b04      	ldr	r3, [sp, #16]
 8004f64:	b2a4      	uxth	r4, r4
 8004f66:	429c      	cmp	r4, r3
 8004f68:	d1da      	bne.n	8004f20 <TriangleIcon+0x46>
 8004f6a:	b007      	add	sp, #28
 8004f6c:	bdf0      	pop	{r4, r5, r6, r7, pc}
	...

08004f70 <SineIcon>:
 8004f70:	b5f0      	push	{r4, r5, r6, r7, lr}
 8004f72:	4c8b      	ldr	r4, [pc, #556]	; (80051a0 <SineIcon+0x230>)
 8004f74:	0006      	movs	r6, r0
 8004f76:	44a5      	add	sp, r4
 8004f78:	9202      	str	r2, [sp, #8]
 8004f7a:	ba54      	rev16	r4, r2
 8004f7c:	22a9      	movs	r2, #169	; 0xa9
 8004f7e:	ad04      	add	r5, sp, #16
 8004f80:	000f      	movs	r7, r1
 8004f82:	0028      	movs	r0, r5
 8004f84:	2100      	movs	r1, #0
 8004f86:	00d2      	lsls	r2, r2, #3
 8004f88:	f001 f93f 	bl	800620a <memset>
 8004f8c:	230a      	movs	r3, #10
 8004f8e:	aa02      	add	r2, sp, #8
 8004f90:	189b      	adds	r3, r3, r2
 8004f92:	87dc      	strh	r4, [r3, #62]	; 0x3e
 8004f94:	ab05      	add	r3, sp, #20
 8004f96:	87dc      	strh	r4, [r3, #62]	; 0x3e
 8004f98:	230e      	movs	r3, #14
 8004f9a:	189b      	adds	r3, r3, r2
 8004f9c:	87dc      	strh	r4, [r3, #62]	; 0x3e
 8004f9e:	ab20      	add	r3, sp, #128	; 0x80
 8004fa0:	801c      	strh	r4, [r3, #0]
 8004fa2:	237a      	movs	r3, #122	; 0x7a
 8004fa4:	189b      	adds	r3, r3, r2
 8004fa6:	801c      	strh	r4, [r3, #0]
 8004fa8:	237e      	movs	r3, #126	; 0x7e
 8004faa:	189b      	adds	r3, r3, r2
 8004fac:	801c      	strh	r4, [r3, #0]
 8004fae:	ab22      	add	r3, sp, #136	; 0x88
 8004fb0:	801c      	strh	r4, [r3, #0]
 8004fb2:	2382      	movs	r3, #130	; 0x82
 8004fb4:	189b      	adds	r3, r3, r2
 8004fb6:	801c      	strh	r4, [r3, #0]
 8004fb8:	23aa      	movs	r3, #170	; 0xaa
 8004fba:	189b      	adds	r3, r3, r2
 8004fbc:	801c      	strh	r4, [r3, #0]
 8004fbe:	ab2d      	add	r3, sp, #180	; 0xb4
 8004fc0:	801c      	strh	r4, [r3, #0]
 8004fc2:	ab2f      	add	r3, sp, #188	; 0xbc
 8004fc4:	801c      	strh	r4, [r3, #0]
 8004fc6:	23b6      	movs	r3, #182	; 0xb6
 8004fc8:	189b      	adds	r3, r3, r2
 8004fca:	801c      	strh	r4, [r3, #0]
 8004fcc:	23de      	movs	r3, #222	; 0xde
 8004fce:	189b      	adds	r3, r3, r2
 8004fd0:	801c      	strh	r4, [r3, #0]
 8004fd2:	ab3a      	add	r3, sp, #232	; 0xe8
 8004fd4:	801c      	strh	r4, [r3, #0]
 8004fd6:	23ea      	movs	r3, #234	; 0xea
 8004fd8:	189b      	adds	r3, r3, r2
 8004fda:	801c      	strh	r4, [r3, #0]
 8004fdc:	ab3d      	add	r3, sp, #244	; 0xf4
 8004fde:	801c      	strh	r4, [r3, #0]
 8004fe0:	0013      	movs	r3, r2
 8004fe2:	3307      	adds	r3, #7
 8004fe4:	33ff      	adds	r3, #255	; 0xff
 8004fe6:	815c      	strh	r4, [r3, #10]
 8004fe8:	819c      	strh	r4, [r3, #12]
 8004fea:	831c      	strh	r4, [r3, #24]
 8004fec:	835c      	strh	r4, [r3, #26]
 8004fee:	87dc      	strh	r4, [r3, #62]	; 0x3e
 8004ff0:	239f      	movs	r3, #159	; 0x9f
 8004ff2:	005b      	lsls	r3, r3, #1
 8004ff4:	52ec      	strh	r4, [r5, r3]
 8004ff6:	330e      	adds	r3, #14
 8004ff8:	52ec      	strh	r4, [r5, r3]
 8004ffa:	3302      	adds	r3, #2
 8004ffc:	52ec      	strh	r4, [r5, r3]
 8004ffe:	3320      	adds	r3, #32
 8005000:	52ec      	strh	r4, [r5, r3]
 8005002:	3302      	adds	r3, #2
 8005004:	52ec      	strh	r4, [r5, r3]
 8005006:	3302      	adds	r3, #2
 8005008:	52ec      	strh	r4, [r5, r3]
 800500a:	330e      	adds	r3, #14
 800500c:	816c      	strh	r4, [r5, #10]
 800500e:	81ac      	strh	r4, [r5, #12]
 8005010:	81ec      	strh	r4, [r5, #14]
 8005012:	87ac      	strh	r4, [r5, #60]	; 0x3c
 8005014:	87ec      	strh	r4, [r5, #62]	; 0x3e
 8005016:	52ec      	strh	r4, [r5, r3]
 8005018:	3302      	adds	r3, #2
 800501a:	52ec      	strh	r4, [r5, r3]
 800501c:	3320      	adds	r3, #32
 800501e:	52ec      	strh	r4, [r5, r3]
 8005020:	3302      	adds	r3, #2
 8005022:	52ec      	strh	r4, [r5, r3]
 8005024:	3310      	adds	r3, #16
 8005026:	52ec      	strh	r4, [r5, r3]
 8005028:	3302      	adds	r3, #2
 800502a:	52ec      	strh	r4, [r5, r3]
 800502c:	3302      	adds	r3, #2
 800502e:	52ec      	strh	r4, [r5, r3]
 8005030:	331e      	adds	r3, #30
 8005032:	52ec      	strh	r4, [r5, r3]
 8005034:	3302      	adds	r3, #2
 8005036:	52ec      	strh	r4, [r5, r3]
 8005038:	3312      	adds	r3, #18
 800503a:	52ec      	strh	r4, [r5, r3]
 800503c:	3302      	adds	r3, #2
 800503e:	52ec      	strh	r4, [r5, r3]
 8005040:	331c      	adds	r3, #28
 8005042:	52ec      	strh	r4, [r5, r3]
 8005044:	4b57      	ldr	r3, [pc, #348]	; (80051a4 <SineIcon+0x234>)
 8005046:	b239      	sxth	r1, r7
 8005048:	52ec      	strh	r4, [r5, r3]
 800504a:	4b57      	ldr	r3, [pc, #348]	; (80051a8 <SineIcon+0x238>)
 800504c:	b230      	sxth	r0, r6
 800504e:	52ec      	strh	r4, [r5, r3]
 8005050:	3302      	adds	r3, #2
 8005052:	52ec      	strh	r4, [r5, r3]
 8005054:	331c      	adds	r3, #28
 8005056:	52ec      	strh	r4, [r5, r3]
 8005058:	4b54      	ldr	r3, [pc, #336]	; (80051ac <SineIcon+0x23c>)
 800505a:	52ec      	strh	r4, [r5, r3]
 800505c:	4b54      	ldr	r3, [pc, #336]	; (80051b0 <SineIcon+0x240>)
 800505e:	52ec      	strh	r4, [r5, r3]
 8005060:	3302      	adds	r3, #2
 8005062:	52ec      	strh	r4, [r5, r3]
 8005064:	4b53      	ldr	r3, [pc, #332]	; (80051b4 <SineIcon+0x244>)
 8005066:	52ec      	strh	r4, [r5, r3]
 8005068:	331a      	adds	r3, #26
 800506a:	52ec      	strh	r4, [r5, r3]
 800506c:	4b52      	ldr	r3, [pc, #328]	; (80051b8 <SineIcon+0x248>)
 800506e:	52ec      	strh	r4, [r5, r3]
 8005070:	3316      	adds	r3, #22
 8005072:	52ec      	strh	r4, [r5, r3]
 8005074:	4b51      	ldr	r3, [pc, #324]	; (80051bc <SineIcon+0x24c>)
 8005076:	52ec      	strh	r4, [r5, r3]
 8005078:	3316      	adds	r3, #22
 800507a:	52ec      	strh	r4, [r5, r3]
 800507c:	4b50      	ldr	r3, [pc, #320]	; (80051c0 <SineIcon+0x250>)
 800507e:	52ec      	strh	r4, [r5, r3]
 8005080:	331a      	adds	r3, #26
 8005082:	52ec      	strh	r4, [r5, r3]
 8005084:	4b4f      	ldr	r3, [pc, #316]	; (80051c4 <SineIcon+0x254>)
 8005086:	52ec      	strh	r4, [r5, r3]
 8005088:	3316      	adds	r3, #22
 800508a:	52ec      	strh	r4, [r5, r3]
 800508c:	4b4e      	ldr	r3, [pc, #312]	; (80051c8 <SineIcon+0x258>)
 800508e:	52ec      	strh	r4, [r5, r3]
 8005090:	4b4e      	ldr	r3, [pc, #312]	; (80051cc <SineIcon+0x25c>)
 8005092:	52ec      	strh	r4, [r5, r3]
 8005094:	3302      	adds	r3, #2
 8005096:	52ec      	strh	r4, [r5, r3]
 8005098:	3314      	adds	r3, #20
 800509a:	52ec      	strh	r4, [r5, r3]
 800509c:	4b4c      	ldr	r3, [pc, #304]	; (80051d0 <SineIcon+0x260>)
 800509e:	52ec      	strh	r4, [r5, r3]
 80050a0:	4b4c      	ldr	r3, [pc, #304]	; (80051d4 <SineIcon+0x264>)
 80050a2:	52ec      	strh	r4, [r5, r3]
 80050a4:	3302      	adds	r3, #2
 80050a6:	52ec      	strh	r4, [r5, r3]
 80050a8:	4b4b      	ldr	r3, [pc, #300]	; (80051d8 <SineIcon+0x268>)
 80050aa:	52ec      	strh	r4, [r5, r3]
 80050ac:	3302      	adds	r3, #2
 80050ae:	52ec      	strh	r4, [r5, r3]
 80050b0:	4b4a      	ldr	r3, [pc, #296]	; (80051dc <SineIcon+0x26c>)
 80050b2:	52ec      	strh	r4, [r5, r3]
 80050b4:	4b4a      	ldr	r3, [pc, #296]	; (80051e0 <SineIcon+0x270>)
 80050b6:	52ec      	strh	r4, [r5, r3]
 80050b8:	3302      	adds	r3, #2
 80050ba:	52ec      	strh	r4, [r5, r3]
 80050bc:	4b49      	ldr	r3, [pc, #292]	; (80051e4 <SineIcon+0x274>)
 80050be:	52ec      	strh	r4, [r5, r3]
 80050c0:	3302      	adds	r3, #2
 80050c2:	52ec      	strh	r4, [r5, r3]
 80050c4:	3320      	adds	r3, #32
 80050c6:	52ec      	strh	r4, [r5, r3]
 80050c8:	4b47      	ldr	r3, [pc, #284]	; (80051e8 <SineIcon+0x278>)
 80050ca:	52ec      	strh	r4, [r5, r3]
 80050cc:	4b47      	ldr	r3, [pc, #284]	; (80051ec <SineIcon+0x27c>)
 80050ce:	52ec      	strh	r4, [r5, r3]
 80050d0:	3302      	adds	r3, #2
 80050d2:	52ec      	strh	r4, [r5, r3]
 80050d4:	3320      	adds	r3, #32
 80050d6:	52ec      	strh	r4, [r5, r3]
 80050d8:	4b45      	ldr	r3, [pc, #276]	; (80051f0 <SineIcon+0x280>)
 80050da:	52ec      	strh	r4, [r5, r3]
 80050dc:	330e      	adds	r3, #14
 80050de:	52ec      	strh	r4, [r5, r3]
 80050e0:	4b44      	ldr	r3, [pc, #272]	; (80051f4 <SineIcon+0x284>)
 80050e2:	52ec      	strh	r4, [r5, r3]
 80050e4:	3302      	adds	r3, #2
 80050e6:	52ec      	strh	r4, [r5, r3]
 80050e8:	3320      	adds	r3, #32
 80050ea:	52ec      	strh	r4, [r5, r3]
 80050ec:	4b42      	ldr	r3, [pc, #264]	; (80051f8 <SineIcon+0x288>)
 80050ee:	52ec      	strh	r4, [r5, r3]
 80050f0:	3302      	adds	r3, #2
 80050f2:	52ec      	strh	r4, [r5, r3]
 80050f4:	330c      	adds	r3, #12
 80050f6:	52ec      	strh	r4, [r5, r3]
 80050f8:	4b40      	ldr	r3, [pc, #256]	; (80051fc <SineIcon+0x28c>)
 80050fa:	52ec      	strh	r4, [r5, r3]
 80050fc:	4b40      	ldr	r3, [pc, #256]	; (8005200 <SineIcon+0x290>)
 80050fe:	52ec      	strh	r4, [r5, r3]
 8005100:	3302      	adds	r3, #2
 8005102:	52ec      	strh	r4, [r5, r3]
 8005104:	4b3f      	ldr	r3, [pc, #252]	; (8005204 <SineIcon+0x294>)
 8005106:	52ec      	strh	r4, [r5, r3]
 8005108:	4b3f      	ldr	r3, [pc, #252]	; (8005208 <SineIcon+0x298>)
 800510a:	52ec      	strh	r4, [r5, r3]
 800510c:	4b3f      	ldr	r3, [pc, #252]	; (800520c <SineIcon+0x29c>)
 800510e:	52ec      	strh	r4, [r5, r3]
 8005110:	4b3f      	ldr	r3, [pc, #252]	; (8005210 <SineIcon+0x2a0>)
 8005112:	52ec      	strh	r4, [r5, r3]
 8005114:	4b3f      	ldr	r3, [pc, #252]	; (8005214 <SineIcon+0x2a4>)
 8005116:	52ec      	strh	r4, [r5, r3]
 8005118:	3302      	adds	r3, #2
 800511a:	52ec      	strh	r4, [r5, r3]
 800511c:	3328      	adds	r3, #40	; 0x28
 800511e:	52ec      	strh	r4, [r5, r3]
 8005120:	4b3d      	ldr	r3, [pc, #244]	; (8005218 <SineIcon+0x2a8>)
 8005122:	52ec      	strh	r4, [r5, r3]
 8005124:	4b3d      	ldr	r3, [pc, #244]	; (800521c <SineIcon+0x2ac>)
 8005126:	52ec      	strh	r4, [r5, r3]
 8005128:	4b3d      	ldr	r3, [pc, #244]	; (8005220 <SineIcon+0x2b0>)
 800512a:	52ec      	strh	r4, [r5, r3]
 800512c:	4b3d      	ldr	r3, [pc, #244]	; (8005224 <SineIcon+0x2b4>)
 800512e:	52ec      	strh	r4, [r5, r3]
 8005130:	4b3d      	ldr	r3, [pc, #244]	; (8005228 <SineIcon+0x2b8>)
 8005132:	52ec      	strh	r4, [r5, r3]
 8005134:	3302      	adds	r3, #2
 8005136:	52ec      	strh	r4, [r5, r3]
 8005138:	4b3c      	ldr	r3, [pc, #240]	; (800522c <SineIcon+0x2bc>)
 800513a:	52ec      	strh	r4, [r5, r3]
 800513c:	4b3c      	ldr	r3, [pc, #240]	; (8005230 <SineIcon+0x2c0>)
 800513e:	52ec      	strh	r4, [r5, r3]
 8005140:	4b3c      	ldr	r3, [pc, #240]	; (8005234 <SineIcon+0x2c4>)
 8005142:	52ec      	strh	r4, [r5, r3]
 8005144:	4b3c      	ldr	r3, [pc, #240]	; (8005238 <SineIcon+0x2c8>)
 8005146:	52ec      	strh	r4, [r5, r3]
 8005148:	4b3c      	ldr	r3, [pc, #240]	; (800523c <SineIcon+0x2cc>)
 800514a:	52ec      	strh	r4, [r5, r3]
 800514c:	3302      	adds	r3, #2
 800514e:	52ec      	strh	r4, [r5, r3]
 8005150:	4b3b      	ldr	r3, [pc, #236]	; (8005240 <SineIcon+0x2d0>)
 8005152:	52ec      	strh	r4, [r5, r3]
 8005154:	332e      	adds	r3, #46	; 0x2e
 8005156:	52ec      	strh	r4, [r5, r3]
 8005158:	4b3a      	ldr	r3, [pc, #232]	; (8005244 <SineIcon+0x2d4>)
 800515a:	52ec      	strh	r4, [r5, r3]
 800515c:	4b3a      	ldr	r3, [pc, #232]	; (8005248 <SineIcon+0x2d8>)
 800515e:	52ec      	strh	r4, [r5, r3]
 8005160:	9b02      	ldr	r3, [sp, #8]
 8005162:	b2bc      	uxth	r4, r7
 8005164:	9301      	str	r3, [sp, #4]
 8005166:	2307      	movs	r3, #7
 8005168:	9300      	str	r3, [sp, #0]
 800516a:	3319      	adds	r3, #25
 800516c:	001a      	movs	r2, r3
 800516e:	f7ff fdd4 	bl	8004d1a <ST7735_drawRoundRect>
 8005172:	b2b3      	uxth	r3, r6
 8005174:	9303      	str	r3, [sp, #12]
 8005176:	9b02      	ldr	r3, [sp, #8]
 8005178:	1c79      	adds	r1, r7, #1
 800517a:	9301      	str	r3, [sp, #4]
 800517c:	2305      	movs	r3, #5
 800517e:	9300      	str	r3, [sp, #0]
 8005180:	3319      	adds	r3, #25
 8005182:	001a      	movs	r2, r3
 8005184:	1c70      	adds	r0, r6, #1
 8005186:	f7ff fdc8 	bl	8004d1a <ST7735_drawRoundRect>
 800518a:	9b03      	ldr	r3, [sp, #12]
 800518c:	1ce1      	adds	r1, r4, #3
 800518e:	1cd8      	adds	r0, r3, #3
 8005190:	231a      	movs	r3, #26
 8005192:	9500      	str	r5, [sp, #0]
 8005194:	001a      	movs	r2, r3
 8005196:	f7ff fc16 	bl	80049c6 <ST7735_DrawImage>
 800519a:	4b2c      	ldr	r3, [pc, #176]	; (800524c <SineIcon+0x2dc>)
 800519c:	449d      	add	sp, r3
 800519e:	bdf0      	pop	{r4, r5, r6, r7, pc}
 80051a0:	fffffaa4 	.word	0xfffffaa4
 80051a4:	0000020a 	.word	0x0000020a
 80051a8:	0000021e 	.word	0x0000021e
 80051ac:	0000023e 	.word	0x0000023e
 80051b0:	00000252 	.word	0x00000252
 80051b4:	00000256 	.word	0x00000256
 80051b8:	00000272 	.word	0x00000272
 80051bc:	0000028a 	.word	0x0000028a
 80051c0:	000002a2 	.word	0x000002a2
 80051c4:	000002be 	.word	0x000002be
 80051c8:	000002d6 	.word	0x000002d6
 80051cc:	000002f2 	.word	0x000002f2
 80051d0:	0000030a 	.word	0x0000030a
 80051d4:	00000326 	.word	0x00000326
 80051d8:	0000033a 	.word	0x0000033a
 80051dc:	0000033e 	.word	0x0000033e
 80051e0:	0000035a 	.word	0x0000035a
 80051e4:	0000036e 	.word	0x0000036e
 80051e8:	00000392 	.word	0x00000392
 80051ec:	000003a2 	.word	0x000003a2
 80051f0:	000003c6 	.word	0x000003c6
 80051f4:	000003d6 	.word	0x000003d6
 80051f8:	000003fa 	.word	0x000003fa
 80051fc:	0000040a 	.word	0x0000040a
 8005200:	0000042e 	.word	0x0000042e
 8005204:	0000043c 	.word	0x0000043c
 8005208:	0000043e 	.word	0x0000043e
 800520c:	00000462 	.word	0x00000462
 8005210:	00000464 	.word	0x00000464
 8005214:	0000046e 	.word	0x0000046e
 8005218:	0000049a 	.word	0x0000049a
 800521c:	000004a2 	.word	0x000004a2
 8005220:	000004a4 	.word	0x000004a4
 8005224:	000004cc 	.word	0x000004cc
 8005228:	000004ce 	.word	0x000004ce
 800522c:	000004d4 	.word	0x000004d4
 8005230:	000004d6 	.word	0x000004d6
 8005234:	00000502 	.word	0x00000502
 8005238:	00000504 	.word	0x00000504
 800523c:	00000506 	.word	0x00000506
 8005240:	0000050a 	.word	0x0000050a
 8005244:	0000053a 	.word	0x0000053a
 8005248:	0000053c 	.word	0x0000053c
 800524c:	0000055c 	.word	0x0000055c

08005250 <_out_buffer>:
 8005250:	429a      	cmp	r2, r3
 8005252:	d200      	bcs.n	8005256 <_out_buffer+0x6>
 8005254:	5488      	strb	r0, [r1, r2]
 8005256:	4770      	bx	lr

08005258 <_out_null>:
 8005258:	4770      	bx	lr

0800525a <_out_rev>:
 800525a:	b5f0      	push	{r4, r5, r6, r7, lr}
 800525c:	b085      	sub	sp, #20
 800525e:	9302      	str	r3, [sp, #8]
 8005260:	9b0d      	ldr	r3, [sp, #52]	; 0x34
 8005262:	000f      	movs	r7, r1
 8005264:	0014      	movs	r4, r2
 8005266:	9001      	str	r0, [sp, #4]
 8005268:	079b      	lsls	r3, r3, #30
 800526a:	d032      	beq.n	80052d2 <_out_rev+0x78>
 800526c:	9200      	str	r2, [sp, #0]
 800526e:	9e0b      	ldr	r6, [sp, #44]	; 0x2c
 8005270:	9a0b      	ldr	r2, [sp, #44]	; 0x2c
 8005272:	9b00      	ldr	r3, [sp, #0]
 8005274:	189d      	adds	r5, r3, r2
 8005276:	1baa      	subs	r2, r5, r6
 8005278:	2e00      	cmp	r6, #0
 800527a:	d12c      	bne.n	80052d6 <_out_rev+0x7c>
 800527c:	9b0d      	ldr	r3, [sp, #52]	; 0x34
 800527e:	079b      	lsls	r3, r3, #30
 8005280:	d50f      	bpl.n	80052a2 <_out_rev+0x48>
 8005282:	1b2b      	subs	r3, r5, r4
 8005284:	9303      	str	r3, [sp, #12]
 8005286:	9300      	str	r3, [sp, #0]
 8005288:	9b00      	ldr	r3, [sp, #0]
 800528a:	9900      	ldr	r1, [sp, #0]
 800528c:	18e2      	adds	r2, r4, r3
 800528e:	9b0c      	ldr	r3, [sp, #48]	; 0x30
 8005290:	428b      	cmp	r3, r1
 8005292:	d828      	bhi.n	80052e6 <_out_rev+0x8c>
 8005294:	9903      	ldr	r1, [sp, #12]
 8005296:	2200      	movs	r2, #0
 8005298:	428b      	cmp	r3, r1
 800529a:	d301      	bcc.n	80052a0 <_out_rev+0x46>
 800529c:	18e4      	adds	r4, r4, r3
 800529e:	1b62      	subs	r2, r4, r5
 80052a0:	18ad      	adds	r5, r5, r2
 80052a2:	0028      	movs	r0, r5
 80052a4:	b005      	add	sp, #20
 80052a6:	bdf0      	pop	{r4, r5, r6, r7, pc}
 80052a8:	0039      	movs	r1, r7
 80052aa:	2020      	movs	r0, #32
 80052ac:	9b02      	ldr	r3, [sp, #8]
 80052ae:	9e01      	ldr	r6, [sp, #4]
 80052b0:	47b0      	blx	r6
 80052b2:	3501      	adds	r5, #1
 80052b4:	9b0b      	ldr	r3, [sp, #44]	; 0x2c
 80052b6:	1ae2      	subs	r2, r4, r3
 80052b8:	9b0c      	ldr	r3, [sp, #48]	; 0x30
 80052ba:	1952      	adds	r2, r2, r5
 80052bc:	429d      	cmp	r5, r3
 80052be:	d3f3      	bcc.n	80052a8 <_out_rev+0x4e>
 80052c0:	9a0b      	ldr	r2, [sp, #44]	; 0x2c
 80052c2:	990c      	ldr	r1, [sp, #48]	; 0x30
 80052c4:	2300      	movs	r3, #0
 80052c6:	428a      	cmp	r2, r1
 80052c8:	d800      	bhi.n	80052cc <_out_rev+0x72>
 80052ca:	1a8b      	subs	r3, r1, r2
 80052cc:	191b      	adds	r3, r3, r4
 80052ce:	9300      	str	r3, [sp, #0]
 80052d0:	e7cd      	b.n	800526e <_out_rev+0x14>
 80052d2:	9d0b      	ldr	r5, [sp, #44]	; 0x2c
 80052d4:	e7ee      	b.n	80052b4 <_out_rev+0x5a>
 80052d6:	9b0a      	ldr	r3, [sp, #40]	; 0x28
 80052d8:	3e01      	subs	r6, #1
 80052da:	5d98      	ldrb	r0, [r3, r6]
 80052dc:	0039      	movs	r1, r7
 80052de:	9b02      	ldr	r3, [sp, #8]
 80052e0:	9d01      	ldr	r5, [sp, #4]
 80052e2:	47a8      	blx	r5
 80052e4:	e7c4      	b.n	8005270 <_out_rev+0x16>
 80052e6:	9b02      	ldr	r3, [sp, #8]
 80052e8:	0039      	movs	r1, r7
 80052ea:	2020      	movs	r0, #32
 80052ec:	9e01      	ldr	r6, [sp, #4]
 80052ee:	47b0      	blx	r6
 80052f0:	9b00      	ldr	r3, [sp, #0]
 80052f2:	3301      	adds	r3, #1
 80052f4:	e7c7      	b.n	8005286 <_out_rev+0x2c>

080052f6 <_ntoa_format>:
 80052f6:	b5f0      	push	{r4, r5, r6, r7, lr}
 80052f8:	b089      	sub	sp, #36	; 0x24
 80052fa:	0007      	movs	r7, r0
 80052fc:	a810      	add	r0, sp, #64	; 0x40
 80052fe:	7806      	ldrb	r6, [r0, #0]
 8005300:	9814      	ldr	r0, [sp, #80]	; 0x50
 8005302:	9105      	str	r1, [sp, #20]
 8005304:	9206      	str	r2, [sp, #24]
 8005306:	990e      	ldr	r1, [sp, #56]	; 0x38
 8005308:	9a0f      	ldr	r2, [sp, #60]	; 0x3c
 800530a:	9c13      	ldr	r4, [sp, #76]	; 0x4c
 800530c:	9307      	str	r3, [sp, #28]
 800530e:	0783      	lsls	r3, r0, #30
 8005310:	d41e      	bmi.n	8005350 <_ntoa_format+0x5a>
 8005312:	2501      	movs	r5, #1
 8005314:	4005      	ands	r5, r0
 8005316:	2c00      	cmp	r4, #0
 8005318:	d007      	beq.n	800532a <_ntoa_format+0x34>
 800531a:	2d00      	cmp	r5, #0
 800531c:	d005      	beq.n	800532a <_ntoa_format+0x34>
 800531e:	2e00      	cmp	r6, #0
 8005320:	d102      	bne.n	8005328 <_ntoa_format+0x32>
 8005322:	230c      	movs	r3, #12
 8005324:	4218      	tst	r0, r3
 8005326:	d000      	beq.n	800532a <_ntoa_format+0x34>
 8005328:	3c01      	subs	r4, #1
 800532a:	2330      	movs	r3, #48	; 0x30
 800532c:	469c      	mov	ip, r3
 800532e:	e002      	b.n	8005336 <_ntoa_format+0x40>
 8005330:	4663      	mov	r3, ip
 8005332:	548b      	strb	r3, [r1, r2]
 8005334:	3201      	adds	r2, #1
 8005336:	9b12      	ldr	r3, [sp, #72]	; 0x48
 8005338:	429a      	cmp	r2, r3
 800533a:	d201      	bcs.n	8005340 <_ntoa_format+0x4a>
 800533c:	2a20      	cmp	r2, #32
 800533e:	d1f7      	bne.n	8005330 <_ntoa_format+0x3a>
 8005340:	2330      	movs	r3, #48	; 0x30
 8005342:	469c      	mov	ip, r3
 8005344:	2d00      	cmp	r5, #0
 8005346:	d003      	beq.n	8005350 <_ntoa_format+0x5a>
 8005348:	42a2      	cmp	r2, r4
 800534a:	d201      	bcs.n	8005350 <_ntoa_format+0x5a>
 800534c:	2a1f      	cmp	r2, #31
 800534e:	d919      	bls.n	8005384 <_ntoa_format+0x8e>
 8005350:	06c3      	lsls	r3, r0, #27
 8005352:	d53a      	bpl.n	80053ca <_ntoa_format+0xd4>
 8005354:	0543      	lsls	r3, r0, #21
 8005356:	d41a      	bmi.n	800538e <_ntoa_format+0x98>
 8005358:	2a00      	cmp	r2, #0
 800535a:	d018      	beq.n	800538e <_ntoa_format+0x98>
 800535c:	9b12      	ldr	r3, [sp, #72]	; 0x48
 800535e:	429a      	cmp	r2, r3
 8005360:	d001      	beq.n	8005366 <_ntoa_format+0x70>
 8005362:	42a2      	cmp	r2, r4
 8005364:	d113      	bne.n	800538e <_ntoa_format+0x98>
 8005366:	1e55      	subs	r5, r2, #1
 8005368:	2a01      	cmp	r2, #1
 800536a:	d00f      	beq.n	800538c <_ntoa_format+0x96>
 800536c:	9b11      	ldr	r3, [sp, #68]	; 0x44
 800536e:	3a02      	subs	r2, #2
 8005370:	2b10      	cmp	r3, #16
 8005372:	d00f      	beq.n	8005394 <_ntoa_format+0x9e>
 8005374:	002a      	movs	r2, r5
 8005376:	9b11      	ldr	r3, [sp, #68]	; 0x44
 8005378:	2b02      	cmp	r3, #2
 800537a:	d121      	bne.n	80053c0 <_ntoa_format+0xca>
 800537c:	2a1f      	cmp	r2, #31
 800537e:	d80e      	bhi.n	800539e <_ntoa_format+0xa8>
 8005380:	2562      	movs	r5, #98	; 0x62
 8005382:	e01b      	b.n	80053bc <_ntoa_format+0xc6>
 8005384:	4663      	mov	r3, ip
 8005386:	548b      	strb	r3, [r1, r2]
 8005388:	3201      	adds	r2, #1
 800538a:	e7db      	b.n	8005344 <_ntoa_format+0x4e>
 800538c:	002a      	movs	r2, r5
 800538e:	9b11      	ldr	r3, [sp, #68]	; 0x44
 8005390:	2b10      	cmp	r3, #16
 8005392:	d1f0      	bne.n	8005376 <_ntoa_format+0x80>
 8005394:	0683      	lsls	r3, r0, #26
 8005396:	d40e      	bmi.n	80053b6 <_ntoa_format+0xc0>
 8005398:	2578      	movs	r5, #120	; 0x78
 800539a:	2a1f      	cmp	r2, #31
 800539c:	d90e      	bls.n	80053bc <_ntoa_format+0xc6>
 800539e:	9003      	str	r0, [sp, #12]
 80053a0:	9201      	str	r2, [sp, #4]
 80053a2:	9100      	str	r1, [sp, #0]
 80053a4:	0038      	movs	r0, r7
 80053a6:	9b07      	ldr	r3, [sp, #28]
 80053a8:	9a06      	ldr	r2, [sp, #24]
 80053aa:	9905      	ldr	r1, [sp, #20]
 80053ac:	9402      	str	r4, [sp, #8]
 80053ae:	f7ff ff54 	bl	800525a <_out_rev>
 80053b2:	b009      	add	sp, #36	; 0x24
 80053b4:	bdf0      	pop	{r4, r5, r6, r7, pc}
 80053b6:	2558      	movs	r5, #88	; 0x58
 80053b8:	2a1f      	cmp	r2, #31
 80053ba:	d8f0      	bhi.n	800539e <_ntoa_format+0xa8>
 80053bc:	548d      	strb	r5, [r1, r2]
 80053be:	3201      	adds	r2, #1
 80053c0:	2a1f      	cmp	r2, #31
 80053c2:	d8ec      	bhi.n	800539e <_ntoa_format+0xa8>
 80053c4:	2530      	movs	r5, #48	; 0x30
 80053c6:	548d      	strb	r5, [r1, r2]
 80053c8:	3201      	adds	r2, #1
 80053ca:	2a1f      	cmp	r2, #31
 80053cc:	d8e7      	bhi.n	800539e <_ntoa_format+0xa8>
 80053ce:	252d      	movs	r5, #45	; 0x2d
 80053d0:	2e00      	cmp	r6, #0
 80053d2:	d105      	bne.n	80053e0 <_ntoa_format+0xea>
 80053d4:	252b      	movs	r5, #43	; 0x2b
 80053d6:	0743      	lsls	r3, r0, #29
 80053d8:	d402      	bmi.n	80053e0 <_ntoa_format+0xea>
 80053da:	0703      	lsls	r3, r0, #28
 80053dc:	d5df      	bpl.n	800539e <_ntoa_format+0xa8>
 80053de:	2520      	movs	r5, #32
 80053e0:	548d      	strb	r5, [r1, r2]
 80053e2:	3201      	adds	r2, #1
 80053e4:	e7db      	b.n	800539e <_ntoa_format+0xa8>

080053e6 <_ntoa_long>:
 80053e6:	b5f0      	push	{r4, r5, r6, r7, lr}
 80053e8:	b097      	sub	sp, #92	; 0x5c
 80053ea:	920a      	str	r2, [sp, #40]	; 0x28
 80053ec:	aa1c      	add	r2, sp, #112	; 0x70
 80053ee:	930b      	str	r3, [sp, #44]	; 0x2c
 80053f0:	ca08      	ldmia	r2!, {r3}
 80053f2:	000d      	movs	r5, r1
 80053f4:	7812      	ldrb	r2, [r2, #0]
 80053f6:	9c21      	ldr	r4, [sp, #132]	; 0x84
 80053f8:	9009      	str	r0, [sp, #36]	; 0x24
 80053fa:	920c      	str	r2, [sp, #48]	; 0x30
 80053fc:	2b00      	cmp	r3, #0
 80053fe:	d101      	bne.n	8005404 <_ntoa_long+0x1e>
 8005400:	2210      	movs	r2, #16
 8005402:	4394      	bics	r4, r2
 8005404:	0562      	lsls	r2, r4, #21
 8005406:	d501      	bpl.n	800540c <_ntoa_long+0x26>
 8005408:	2b00      	cmp	r3, #0
 800540a:	d01f      	beq.n	800544c <_ntoa_long+0x66>
 800540c:	2261      	movs	r2, #97	; 0x61
 800540e:	06a1      	lsls	r1, r4, #26
 8005410:	d500      	bpl.n	8005414 <_ntoa_long+0x2e>
 8005412:	2241      	movs	r2, #65	; 0x41
 8005414:	001e      	movs	r6, r3
 8005416:	2700      	movs	r7, #0
 8005418:	b2d2      	uxtb	r2, r2
 800541a:	3a0a      	subs	r2, #10
 800541c:	920d      	str	r2, [sp, #52]	; 0x34
 800541e:	0030      	movs	r0, r6
 8005420:	991e      	ldr	r1, [sp, #120]	; 0x78
 8005422:	f7fa fefd 	bl	8000220 <__aeabi_uidivmod>
 8005426:	9a0d      	ldr	r2, [sp, #52]	; 0x34
 8005428:	b2cb      	uxtb	r3, r1
 800542a:	189a      	adds	r2, r3, r2
 800542c:	4684      	mov	ip, r0
 800542e:	b2d2      	uxtb	r2, r2
 8005430:	2909      	cmp	r1, #9
 8005432:	d801      	bhi.n	8005438 <_ntoa_long+0x52>
 8005434:	3330      	adds	r3, #48	; 0x30
 8005436:	b2da      	uxtb	r2, r3
 8005438:	2020      	movs	r0, #32
 800543a:	a906      	add	r1, sp, #24
 800543c:	1809      	adds	r1, r1, r0
 800543e:	55ca      	strb	r2, [r1, r7]
 8005440:	9a1e      	ldr	r2, [sp, #120]	; 0x78
 8005442:	1c7b      	adds	r3, r7, #1
 8005444:	4296      	cmp	r6, r2
 8005446:	d301      	bcc.n	800544c <_ntoa_long+0x66>
 8005448:	4283      	cmp	r3, r0
 800544a:	d113      	bne.n	8005474 <_ntoa_long+0x8e>
 800544c:	9a20      	ldr	r2, [sp, #128]	; 0x80
 800544e:	9301      	str	r3, [sp, #4]
 8005450:	9205      	str	r2, [sp, #20]
 8005452:	9a1f      	ldr	r2, [sp, #124]	; 0x7c
 8005454:	ab0e      	add	r3, sp, #56	; 0x38
 8005456:	9204      	str	r2, [sp, #16]
 8005458:	9a1e      	ldr	r2, [sp, #120]	; 0x78
 800545a:	9300      	str	r3, [sp, #0]
 800545c:	9203      	str	r2, [sp, #12]
 800545e:	9a0c      	ldr	r2, [sp, #48]	; 0x30
 8005460:	0029      	movs	r1, r5
 8005462:	9202      	str	r2, [sp, #8]
 8005464:	9b0b      	ldr	r3, [sp, #44]	; 0x2c
 8005466:	9a0a      	ldr	r2, [sp, #40]	; 0x28
 8005468:	9809      	ldr	r0, [sp, #36]	; 0x24
 800546a:	9406      	str	r4, [sp, #24]
 800546c:	f7ff ff43 	bl	80052f6 <_ntoa_format>
 8005470:	b017      	add	sp, #92	; 0x5c
 8005472:	bdf0      	pop	{r4, r5, r6, r7, pc}
 8005474:	001f      	movs	r7, r3
 8005476:	4666      	mov	r6, ip
 8005478:	e7d1      	b.n	800541e <_ntoa_long+0x38>

0800547a <_ntoa_long_long>:
 800547a:	b5f0      	push	{r4, r5, r6, r7, lr}
 800547c:	b09b      	sub	sp, #108	; 0x6c
 800547e:	930d      	str	r3, [sp, #52]	; 0x34
 8005480:	ab22      	add	r3, sp, #136	; 0x88
 8005482:	781b      	ldrb	r3, [r3, #0]
 8005484:	9d20      	ldr	r5, [sp, #128]	; 0x80
 8005486:	930e      	str	r3, [sp, #56]	; 0x38
 8005488:	002b      	movs	r3, r5
 800548a:	9c21      	ldr	r4, [sp, #132]	; 0x84
 800548c:	9f24      	ldr	r7, [sp, #144]	; 0x90
 800548e:	9e25      	ldr	r6, [sp, #148]	; 0x94
 8005490:	900a      	str	r0, [sp, #40]	; 0x28
 8005492:	910b      	str	r1, [sp, #44]	; 0x2c
 8005494:	920c      	str	r2, [sp, #48]	; 0x30
 8005496:	4323      	orrs	r3, r4
 8005498:	d103      	bne.n	80054a2 <_ntoa_long_long+0x28>
 800549a:	9a28      	ldr	r2, [sp, #160]	; 0xa0
 800549c:	3310      	adds	r3, #16
 800549e:	439a      	bics	r2, r3
 80054a0:	9228      	str	r2, [sp, #160]	; 0xa0
 80054a2:	9b28      	ldr	r3, [sp, #160]	; 0xa0
 80054a4:	055b      	lsls	r3, r3, #21
 80054a6:	d504      	bpl.n	80054b2 <_ntoa_long_long+0x38>
 80054a8:	002a      	movs	r2, r5
 80054aa:	2300      	movs	r3, #0
 80054ac:	4322      	orrs	r2, r4
 80054ae:	429a      	cmp	r2, r3
 80054b0:	d02a      	beq.n	8005508 <_ntoa_long_long+0x8e>
 80054b2:	9a28      	ldr	r2, [sp, #160]	; 0xa0
 80054b4:	2361      	movs	r3, #97	; 0x61
 80054b6:	0692      	lsls	r2, r2, #26
 80054b8:	d500      	bpl.n	80054bc <_ntoa_long_long+0x42>
 80054ba:	2341      	movs	r3, #65	; 0x41
 80054bc:	2200      	movs	r2, #0
 80054be:	b2db      	uxtb	r3, r3
 80054c0:	3b0a      	subs	r3, #10
 80054c2:	9209      	str	r2, [sp, #36]	; 0x24
 80054c4:	930f      	str	r3, [sp, #60]	; 0x3c
 80054c6:	003a      	movs	r2, r7
 80054c8:	0033      	movs	r3, r6
 80054ca:	0028      	movs	r0, r5
 80054cc:	0021      	movs	r1, r4
 80054ce:	f7fa ffd5 	bl	800047c <__aeabi_uldivmod>
 80054d2:	9b0f      	ldr	r3, [sp, #60]	; 0x3c
 80054d4:	b2d2      	uxtb	r2, r2
 80054d6:	18d3      	adds	r3, r2, r3
 80054d8:	b2db      	uxtb	r3, r3
 80054da:	469c      	mov	ip, r3
 80054dc:	9010      	str	r0, [sp, #64]	; 0x40
 80054de:	9111      	str	r1, [sp, #68]	; 0x44
 80054e0:	2a09      	cmp	r2, #9
 80054e2:	d802      	bhi.n	80054ea <_ntoa_long_long+0x70>
 80054e4:	3230      	adds	r2, #48	; 0x30
 80054e6:	b2d3      	uxtb	r3, r2
 80054e8:	469c      	mov	ip, r3
 80054ea:	2020      	movs	r0, #32
 80054ec:	aa0a      	add	r2, sp, #40	; 0x28
 80054ee:	1812      	adds	r2, r2, r0
 80054f0:	4660      	mov	r0, ip
 80054f2:	9b09      	ldr	r3, [sp, #36]	; 0x24
 80054f4:	9909      	ldr	r1, [sp, #36]	; 0x24
 80054f6:	3301      	adds	r3, #1
 80054f8:	5450      	strb	r0, [r2, r1]
 80054fa:	42a6      	cmp	r6, r4
 80054fc:	d804      	bhi.n	8005508 <_ntoa_long_long+0x8e>
 80054fe:	d101      	bne.n	8005504 <_ntoa_long_long+0x8a>
 8005500:	42af      	cmp	r7, r5
 8005502:	d801      	bhi.n	8005508 <_ntoa_long_long+0x8e>
 8005504:	2b20      	cmp	r3, #32
 8005506:	d113      	bne.n	8005530 <_ntoa_long_long+0xb6>
 8005508:	9a28      	ldr	r2, [sp, #160]	; 0xa0
 800550a:	9301      	str	r3, [sp, #4]
 800550c:	9206      	str	r2, [sp, #24]
 800550e:	9a27      	ldr	r2, [sp, #156]	; 0x9c
 8005510:	ab12      	add	r3, sp, #72	; 0x48
 8005512:	9205      	str	r2, [sp, #20]
 8005514:	9a26      	ldr	r2, [sp, #152]	; 0x98
 8005516:	9300      	str	r3, [sp, #0]
 8005518:	9204      	str	r2, [sp, #16]
 800551a:	9a0e      	ldr	r2, [sp, #56]	; 0x38
 800551c:	9b0d      	ldr	r3, [sp, #52]	; 0x34
 800551e:	9202      	str	r2, [sp, #8]
 8005520:	990b      	ldr	r1, [sp, #44]	; 0x2c
 8005522:	9a0c      	ldr	r2, [sp, #48]	; 0x30
 8005524:	980a      	ldr	r0, [sp, #40]	; 0x28
 8005526:	9703      	str	r7, [sp, #12]
 8005528:	f7ff fee5 	bl	80052f6 <_ntoa_format>
 800552c:	b01b      	add	sp, #108	; 0x6c
 800552e:	bdf0      	pop	{r4, r5, r6, r7, pc}
 8005530:	9d10      	ldr	r5, [sp, #64]	; 0x40
 8005532:	9c11      	ldr	r4, [sp, #68]	; 0x44
 8005534:	9309      	str	r3, [sp, #36]	; 0x24
 8005536:	e7c6      	b.n	80054c6 <_ntoa_long_long+0x4c>

08005538 <_ftoa>:
 8005538:	b5f0      	push	{r4, r5, r6, r7, lr}
 800553a:	b09b      	sub	sp, #108	; 0x6c
 800553c:	9e20      	ldr	r6, [sp, #128]	; 0x80
 800553e:	9f21      	ldr	r7, [sp, #132]	; 0x84
 8005540:	9009      	str	r0, [sp, #36]	; 0x24
 8005542:	910a      	str	r1, [sp, #40]	; 0x28
 8005544:	920b      	str	r2, [sp, #44]	; 0x2c
 8005546:	930c      	str	r3, [sp, #48]	; 0x30
 8005548:	0032      	movs	r2, r6
 800554a:	003b      	movs	r3, r7
 800554c:	0030      	movs	r0, r6
 800554e:	0039      	movs	r1, r7
 8005550:	9c22      	ldr	r4, [sp, #136]	; 0x88
 8005552:	f7fa ff65 	bl	8000420 <__aeabi_dcmpeq>
 8005556:	2800      	cmp	r0, #0
 8005558:	d108      	bne.n	800556c <_ftoa+0x34>
 800555a:	9b24      	ldr	r3, [sp, #144]	; 0x90
 800555c:	9303      	str	r3, [sp, #12]
 800555e:	9b23      	ldr	r3, [sp, #140]	; 0x8c
 8005560:	9302      	str	r3, [sp, #8]
 8005562:	2303      	movs	r3, #3
 8005564:	9301      	str	r3, [sp, #4]
 8005566:	4bb0      	ldr	r3, [pc, #704]	; (8005828 <_ftoa+0x2f0>)
 8005568:	9300      	str	r3, [sp, #0]
 800556a:	e024      	b.n	80055b6 <_ftoa+0x7e>
 800556c:	2201      	movs	r2, #1
 800556e:	0030      	movs	r0, r6
 8005570:	0039      	movs	r1, r7
 8005572:	4bae      	ldr	r3, [pc, #696]	; (800582c <_ftoa+0x2f4>)
 8005574:	4252      	negs	r2, r2
 8005576:	f7fa ff59 	bl	800042c <__aeabi_dcmplt>
 800557a:	2800      	cmp	r0, #0
 800557c:	d007      	beq.n	800558e <_ftoa+0x56>
 800557e:	9b24      	ldr	r3, [sp, #144]	; 0x90
 8005580:	9303      	str	r3, [sp, #12]
 8005582:	9b23      	ldr	r3, [sp, #140]	; 0x8c
 8005584:	9302      	str	r3, [sp, #8]
 8005586:	2304      	movs	r3, #4
 8005588:	9301      	str	r3, [sp, #4]
 800558a:	4ba9      	ldr	r3, [pc, #676]	; (8005830 <_ftoa+0x2f8>)
 800558c:	e7ec      	b.n	8005568 <_ftoa+0x30>
 800558e:	2201      	movs	r2, #1
 8005590:	0030      	movs	r0, r6
 8005592:	0039      	movs	r1, r7
 8005594:	4ba7      	ldr	r3, [pc, #668]	; (8005834 <_ftoa+0x2fc>)
 8005596:	4252      	negs	r2, r2
 8005598:	f7fa ff5c 	bl	8000454 <__aeabi_dcmpgt>
 800559c:	2800      	cmp	r0, #0
 800559e:	d014      	beq.n	80055ca <_ftoa+0x92>
 80055a0:	2304      	movs	r3, #4
 80055a2:	9a24      	ldr	r2, [sp, #144]	; 0x90
 80055a4:	421a      	tst	r2, r3
 80055a6:	d00d      	beq.n	80055c4 <_ftoa+0x8c>
 80055a8:	4aa3      	ldr	r2, [pc, #652]	; (8005838 <_ftoa+0x300>)
 80055aa:	9924      	ldr	r1, [sp, #144]	; 0x90
 80055ac:	9301      	str	r3, [sp, #4]
 80055ae:	9103      	str	r1, [sp, #12]
 80055b0:	9923      	ldr	r1, [sp, #140]	; 0x8c
 80055b2:	9200      	str	r2, [sp, #0]
 80055b4:	9102      	str	r1, [sp, #8]
 80055b6:	9b0c      	ldr	r3, [sp, #48]	; 0x30
 80055b8:	9a0b      	ldr	r2, [sp, #44]	; 0x2c
 80055ba:	990a      	ldr	r1, [sp, #40]	; 0x28
 80055bc:	9809      	ldr	r0, [sp, #36]	; 0x24
 80055be:	f7ff fe4c 	bl	800525a <_out_rev>
 80055c2:	e01f      	b.n	8005604 <_ftoa+0xcc>
 80055c4:	2303      	movs	r3, #3
 80055c6:	4a9d      	ldr	r2, [pc, #628]	; (800583c <_ftoa+0x304>)
 80055c8:	e7ef      	b.n	80055aa <_ftoa+0x72>
 80055ca:	2200      	movs	r2, #0
 80055cc:	0030      	movs	r0, r6
 80055ce:	0039      	movs	r1, r7
 80055d0:	4b9b      	ldr	r3, [pc, #620]	; (8005840 <_ftoa+0x308>)
 80055d2:	f7fa ff3f 	bl	8000454 <__aeabi_dcmpgt>
 80055d6:	2800      	cmp	r0, #0
 80055d8:	d107      	bne.n	80055ea <_ftoa+0xb2>
 80055da:	2200      	movs	r2, #0
 80055dc:	0030      	movs	r0, r6
 80055de:	0039      	movs	r1, r7
 80055e0:	4b98      	ldr	r3, [pc, #608]	; (8005844 <_ftoa+0x30c>)
 80055e2:	f7fa ff23 	bl	800042c <__aeabi_dcmplt>
 80055e6:	2800      	cmp	r0, #0
 80055e8:	d00e      	beq.n	8005608 <_ftoa+0xd0>
 80055ea:	9b24      	ldr	r3, [sp, #144]	; 0x90
 80055ec:	9600      	str	r6, [sp, #0]
 80055ee:	9701      	str	r7, [sp, #4]
 80055f0:	9304      	str	r3, [sp, #16]
 80055f2:	9b23      	ldr	r3, [sp, #140]	; 0x8c
 80055f4:	9a0b      	ldr	r2, [sp, #44]	; 0x2c
 80055f6:	9303      	str	r3, [sp, #12]
 80055f8:	990a      	ldr	r1, [sp, #40]	; 0x28
 80055fa:	9b0c      	ldr	r3, [sp, #48]	; 0x30
 80055fc:	9809      	ldr	r0, [sp, #36]	; 0x24
 80055fe:	9402      	str	r4, [sp, #8]
 8005600:	f000 f926 	bl	8005850 <_etoa>
 8005604:	b01b      	add	sp, #108	; 0x6c
 8005606:	bdf0      	pop	{r4, r5, r6, r7, pc}
 8005608:	2200      	movs	r2, #0
 800560a:	2300      	movs	r3, #0
 800560c:	0030      	movs	r0, r6
 800560e:	0039      	movs	r1, r7
 8005610:	f7fa ff0c 	bl	800042c <__aeabi_dcmplt>
 8005614:	2800      	cmp	r0, #0
 8005616:	d077      	beq.n	8005708 <_ftoa+0x1d0>
 8005618:	003b      	movs	r3, r7
 800561a:	0032      	movs	r2, r6
 800561c:	2000      	movs	r0, #0
 800561e:	2100      	movs	r1, #0
 8005620:	f7fc fd68 	bl	80020f4 <__aeabi_dsub>
 8005624:	2301      	movs	r3, #1
 8005626:	0006      	movs	r6, r0
 8005628:	000f      	movs	r7, r1
 800562a:	930d      	str	r3, [sp, #52]	; 0x34
 800562c:	9b24      	ldr	r3, [sp, #144]	; 0x90
 800562e:	055b      	lsls	r3, r3, #21
 8005630:	d56c      	bpl.n	800570c <_ftoa+0x1d4>
 8005632:	0022      	movs	r2, r4
 8005634:	2130      	movs	r1, #48	; 0x30
 8005636:	ab12      	add	r3, sp, #72	; 0x48
 8005638:	3a20      	subs	r2, #32
 800563a:	9408      	str	r4, [sp, #32]
 800563c:	9808      	ldr	r0, [sp, #32]
 800563e:	1a25      	subs	r5, r4, r0
 8005640:	2809      	cmp	r0, #9
 8005642:	d907      	bls.n	8005654 <_ftoa+0x11c>
 8005644:	9808      	ldr	r0, [sp, #32]
 8005646:	7019      	strb	r1, [r3, #0]
 8005648:	3801      	subs	r0, #1
 800564a:	9008      	str	r0, [sp, #32]
 800564c:	3301      	adds	r3, #1
 800564e:	4290      	cmp	r0, r2
 8005650:	d1f4      	bne.n	800563c <_ftoa+0x104>
 8005652:	2520      	movs	r5, #32
 8005654:	0039      	movs	r1, r7
 8005656:	0030      	movs	r0, r6
 8005658:	f7fd f8de 	bl	8002818 <__aeabi_d2iz>
 800565c:	9b08      	ldr	r3, [sp, #32]
 800565e:	9007      	str	r0, [sp, #28]
 8005660:	00da      	lsls	r2, r3, #3
 8005662:	4b79      	ldr	r3, [pc, #484]	; (8005848 <_ftoa+0x310>)
 8005664:	189b      	adds	r3, r3, r2
 8005666:	685c      	ldr	r4, [r3, #4]
 8005668:	681b      	ldr	r3, [r3, #0]
 800566a:	930e      	str	r3, [sp, #56]	; 0x38
 800566c:	940f      	str	r4, [sp, #60]	; 0x3c
 800566e:	f7fd f909 	bl	8002884 <__aeabi_i2d>
 8005672:	0002      	movs	r2, r0
 8005674:	000b      	movs	r3, r1
 8005676:	0030      	movs	r0, r6
 8005678:	0039      	movs	r1, r7
 800567a:	f7fc fd3b 	bl	80020f4 <__aeabi_dsub>
 800567e:	9a0e      	ldr	r2, [sp, #56]	; 0x38
 8005680:	9b0f      	ldr	r3, [sp, #60]	; 0x3c
 8005682:	f7fc facb 	bl	8001c1c <__aeabi_dmul>
 8005686:	9010      	str	r0, [sp, #64]	; 0x40
 8005688:	9111      	str	r1, [sp, #68]	; 0x44
 800568a:	f7fa ff2f 	bl	80004ec <__aeabi_d2uiz>
 800568e:	0004      	movs	r4, r0
 8005690:	f7fd f928 	bl	80028e4 <__aeabi_ui2d>
 8005694:	0002      	movs	r2, r0
 8005696:	000b      	movs	r3, r1
 8005698:	9810      	ldr	r0, [sp, #64]	; 0x40
 800569a:	9911      	ldr	r1, [sp, #68]	; 0x44
 800569c:	f7fc fd2a 	bl	80020f4 <__aeabi_dsub>
 80056a0:	2200      	movs	r2, #0
 80056a2:	4b6a      	ldr	r3, [pc, #424]	; (800584c <_ftoa+0x314>)
 80056a4:	9010      	str	r0, [sp, #64]	; 0x40
 80056a6:	9111      	str	r1, [sp, #68]	; 0x44
 80056a8:	f7fa fed4 	bl	8000454 <__aeabi_dcmpgt>
 80056ac:	2800      	cmp	r0, #0
 80056ae:	d02f      	beq.n	8005710 <_ftoa+0x1d8>
 80056b0:	3401      	adds	r4, #1
 80056b2:	0020      	movs	r0, r4
 80056b4:	f7fd f916 	bl	80028e4 <__aeabi_ui2d>
 80056b8:	0002      	movs	r2, r0
 80056ba:	000b      	movs	r3, r1
 80056bc:	980e      	ldr	r0, [sp, #56]	; 0x38
 80056be:	990f      	ldr	r1, [sp, #60]	; 0x3c
 80056c0:	f7fa febe 	bl	8000440 <__aeabi_dcmple>
 80056c4:	2800      	cmp	r0, #0
 80056c6:	d003      	beq.n	80056d0 <_ftoa+0x198>
 80056c8:	2400      	movs	r4, #0
 80056ca:	9b07      	ldr	r3, [sp, #28]
 80056cc:	3301      	adds	r3, #1
 80056ce:	9307      	str	r3, [sp, #28]
 80056d0:	9b08      	ldr	r3, [sp, #32]
 80056d2:	2b00      	cmp	r3, #0
 80056d4:	d02a      	beq.n	800572c <_ftoa+0x1f4>
 80056d6:	270a      	movs	r7, #10
 80056d8:	2d20      	cmp	r5, #32
 80056da:	d149      	bne.n	8005770 <_ftoa+0x238>
 80056dc:	2303      	movs	r3, #3
 80056de:	9a24      	ldr	r2, [sp, #144]	; 0x90
 80056e0:	4013      	ands	r3, r2
 80056e2:	2b01      	cmp	r3, #1
 80056e4:	d000      	beq.n	80056e8 <_ftoa+0x1b0>
 80056e6:	e08b      	b.n	8005800 <_ftoa+0x2c8>
 80056e8:	9b23      	ldr	r3, [sp, #140]	; 0x8c
 80056ea:	2b00      	cmp	r3, #0
 80056ec:	d100      	bne.n	80056f0 <_ftoa+0x1b8>
 80056ee:	e087      	b.n	8005800 <_ftoa+0x2c8>
 80056f0:	9b0d      	ldr	r3, [sp, #52]	; 0x34
 80056f2:	2b00      	cmp	r3, #0
 80056f4:	d102      	bne.n	80056fc <_ftoa+0x1c4>
 80056f6:	330c      	adds	r3, #12
 80056f8:	421a      	tst	r2, r3
 80056fa:	d002      	beq.n	8005702 <_ftoa+0x1ca>
 80056fc:	9b23      	ldr	r3, [sp, #140]	; 0x8c
 80056fe:	3b01      	subs	r3, #1
 8005700:	9323      	str	r3, [sp, #140]	; 0x8c
 8005702:	2230      	movs	r2, #48	; 0x30
 8005704:	ab12      	add	r3, sp, #72	; 0x48
 8005706:	e06f      	b.n	80057e8 <_ftoa+0x2b0>
 8005708:	900d      	str	r0, [sp, #52]	; 0x34
 800570a:	e78f      	b.n	800562c <_ftoa+0xf4>
 800570c:	2406      	movs	r4, #6
 800570e:	e790      	b.n	8005632 <_ftoa+0xfa>
 8005710:	2200      	movs	r2, #0
 8005712:	9810      	ldr	r0, [sp, #64]	; 0x40
 8005714:	9911      	ldr	r1, [sp, #68]	; 0x44
 8005716:	4b4d      	ldr	r3, [pc, #308]	; (800584c <_ftoa+0x314>)
 8005718:	f7fa fe88 	bl	800042c <__aeabi_dcmplt>
 800571c:	2800      	cmp	r0, #0
 800571e:	d1d7      	bne.n	80056d0 <_ftoa+0x198>
 8005720:	2c00      	cmp	r4, #0
 8005722:	d001      	beq.n	8005728 <_ftoa+0x1f0>
 8005724:	07e3      	lsls	r3, r4, #31
 8005726:	d5d3      	bpl.n	80056d0 <_ftoa+0x198>
 8005728:	3401      	adds	r4, #1
 800572a:	e7d1      	b.n	80056d0 <_ftoa+0x198>
 800572c:	9807      	ldr	r0, [sp, #28]
 800572e:	f7fd f8a9 	bl	8002884 <__aeabi_i2d>
 8005732:	0002      	movs	r2, r0
 8005734:	000b      	movs	r3, r1
 8005736:	0030      	movs	r0, r6
 8005738:	0039      	movs	r1, r7
 800573a:	f7fc fcdb 	bl	80020f4 <__aeabi_dsub>
 800573e:	2200      	movs	r2, #0
 8005740:	4b42      	ldr	r3, [pc, #264]	; (800584c <_ftoa+0x314>)
 8005742:	0006      	movs	r6, r0
 8005744:	000f      	movs	r7, r1
 8005746:	f7fa fe71 	bl	800042c <__aeabi_dcmplt>
 800574a:	2800      	cmp	r0, #0
 800574c:	d007      	beq.n	800575e <_ftoa+0x226>
 800574e:	2200      	movs	r2, #0
 8005750:	0030      	movs	r0, r6
 8005752:	0039      	movs	r1, r7
 8005754:	4b3d      	ldr	r3, [pc, #244]	; (800584c <_ftoa+0x314>)
 8005756:	f7fa fe7d 	bl	8000454 <__aeabi_dcmpgt>
 800575a:	2800      	cmp	r0, #0
 800575c:	d004      	beq.n	8005768 <_ftoa+0x230>
 800575e:	2301      	movs	r3, #1
 8005760:	9a07      	ldr	r2, [sp, #28]
 8005762:	4013      	ands	r3, r2
 8005764:	18d3      	adds	r3, r2, r3
 8005766:	9307      	str	r3, [sp, #28]
 8005768:	002c      	movs	r4, r5
 800576a:	260a      	movs	r6, #10
 800576c:	af12      	add	r7, sp, #72	; 0x48
 800576e:	e036      	b.n	80057de <_ftoa+0x2a6>
 8005770:	9b08      	ldr	r3, [sp, #32]
 8005772:	0039      	movs	r1, r7
 8005774:	3b01      	subs	r3, #1
 8005776:	0020      	movs	r0, r4
 8005778:	9308      	str	r3, [sp, #32]
 800577a:	f7fa fd51 	bl	8000220 <__aeabi_uidivmod>
 800577e:	2218      	movs	r2, #24
 8005780:	ab0c      	add	r3, sp, #48	; 0x30
 8005782:	3130      	adds	r1, #48	; 0x30
 8005784:	189b      	adds	r3, r3, r2
 8005786:	5559      	strb	r1, [r3, r5]
 8005788:	0020      	movs	r0, r4
 800578a:	0039      	movs	r1, r7
 800578c:	1c6e      	adds	r6, r5, #1
 800578e:	f7fa fcc1 	bl	8000114 <__udivsi3>
 8005792:	2c09      	cmp	r4, #9
 8005794:	d80d      	bhi.n	80057b2 <_ftoa+0x27a>
 8005796:	0035      	movs	r5, r6
 8005798:	2030      	movs	r0, #48	; 0x30
 800579a:	9b08      	ldr	r3, [sp, #32]
 800579c:	a912      	add	r1, sp, #72	; 0x48
 800579e:	199b      	adds	r3, r3, r6
 80057a0:	2d20      	cmp	r5, #32
 80057a2:	d09b      	beq.n	80056dc <_ftoa+0x1a4>
 80057a4:	1c6a      	adds	r2, r5, #1
 80057a6:	429d      	cmp	r5, r3
 80057a8:	d106      	bne.n	80057b8 <_ftoa+0x280>
 80057aa:	232e      	movs	r3, #46	; 0x2e
 80057ac:	554b      	strb	r3, [r1, r5]
 80057ae:	0015      	movs	r5, r2
 80057b0:	e7da      	b.n	8005768 <_ftoa+0x230>
 80057b2:	0035      	movs	r5, r6
 80057b4:	0004      	movs	r4, r0
 80057b6:	e78f      	b.n	80056d8 <_ftoa+0x1a0>
 80057b8:	5548      	strb	r0, [r1, r5]
 80057ba:	0015      	movs	r5, r2
 80057bc:	e7f0      	b.n	80057a0 <_ftoa+0x268>
 80057be:	9807      	ldr	r0, [sp, #28]
 80057c0:	0031      	movs	r1, r6
 80057c2:	f7fa fe17 	bl	80003f4 <__aeabi_idivmod>
 80057c6:	3130      	adds	r1, #48	; 0x30
 80057c8:	9807      	ldr	r0, [sp, #28]
 80057ca:	55e1      	strb	r1, [r4, r7]
 80057cc:	0031      	movs	r1, r6
 80057ce:	f7fa fd2b 	bl	8000228 <__divsi3>
 80057d2:	3501      	adds	r5, #1
 80057d4:	9007      	str	r0, [sp, #28]
 80057d6:	2800      	cmp	r0, #0
 80057d8:	d100      	bne.n	80057dc <_ftoa+0x2a4>
 80057da:	e77f      	b.n	80056dc <_ftoa+0x1a4>
 80057dc:	002c      	movs	r4, r5
 80057de:	2d20      	cmp	r5, #32
 80057e0:	d1ed      	bne.n	80057be <_ftoa+0x286>
 80057e2:	e77b      	b.n	80056dc <_ftoa+0x1a4>
 80057e4:	54ea      	strb	r2, [r5, r3]
 80057e6:	3501      	adds	r5, #1
 80057e8:	9923      	ldr	r1, [sp, #140]	; 0x8c
 80057ea:	42a9      	cmp	r1, r5
 80057ec:	d908      	bls.n	8005800 <_ftoa+0x2c8>
 80057ee:	2d20      	cmp	r5, #32
 80057f0:	d1f8      	bne.n	80057e4 <_ftoa+0x2ac>
 80057f2:	9b24      	ldr	r3, [sp, #144]	; 0x90
 80057f4:	9501      	str	r5, [sp, #4]
 80057f6:	9303      	str	r3, [sp, #12]
 80057f8:	9b23      	ldr	r3, [sp, #140]	; 0x8c
 80057fa:	9302      	str	r3, [sp, #8]
 80057fc:	ab12      	add	r3, sp, #72	; 0x48
 80057fe:	e6b3      	b.n	8005568 <_ftoa+0x30>
 8005800:	2d20      	cmp	r5, #32
 8005802:	d0f6      	beq.n	80057f2 <_ftoa+0x2ba>
 8005804:	9a0d      	ldr	r2, [sp, #52]	; 0x34
 8005806:	ab12      	add	r3, sp, #72	; 0x48
 8005808:	2a00      	cmp	r2, #0
 800580a:	d003      	beq.n	8005814 <_ftoa+0x2dc>
 800580c:	222d      	movs	r2, #45	; 0x2d
 800580e:	555a      	strb	r2, [r3, r5]
 8005810:	3501      	adds	r5, #1
 8005812:	e7ee      	b.n	80057f2 <_ftoa+0x2ba>
 8005814:	9a24      	ldr	r2, [sp, #144]	; 0x90
 8005816:	0752      	lsls	r2, r2, #29
 8005818:	d501      	bpl.n	800581e <_ftoa+0x2e6>
 800581a:	222b      	movs	r2, #43	; 0x2b
 800581c:	e7f7      	b.n	800580e <_ftoa+0x2d6>
 800581e:	9a24      	ldr	r2, [sp, #144]	; 0x90
 8005820:	0712      	lsls	r2, r2, #28
 8005822:	d5e6      	bpl.n	80057f2 <_ftoa+0x2ba>
 8005824:	2220      	movs	r2, #32
 8005826:	e7f2      	b.n	800580e <_ftoa+0x2d6>
 8005828:	08007900 	.word	0x08007900
 800582c:	ffefffff 	.word	0xffefffff
 8005830:	08007904 	.word	0x08007904
 8005834:	7fefffff 	.word	0x7fefffff
 8005838:	080078fb 	.word	0x080078fb
 800583c:	080078f7 	.word	0x080078f7
 8005840:	41cdcd65 	.word	0x41cdcd65
 8005844:	c1cdcd65 	.word	0xc1cdcd65
 8005848:	08007910 	.word	0x08007910
 800584c:	3fe00000 	.word	0x3fe00000

08005850 <_etoa>:
 8005850:	b5f0      	push	{r4, r5, r6, r7, lr}
 8005852:	b095      	sub	sp, #84	; 0x54
 8005854:	930f      	str	r3, [sp, #60]	; 0x3c
 8005856:	9b1a      	ldr	r3, [sp, #104]	; 0x68
 8005858:	920e      	str	r2, [sp, #56]	; 0x38
 800585a:	930a      	str	r3, [sp, #40]	; 0x28
 800585c:	9b1b      	ldr	r3, [sp, #108]	; 0x6c
 800585e:	9a0a      	ldr	r2, [sp, #40]	; 0x28
 8005860:	930b      	str	r3, [sp, #44]	; 0x2c
 8005862:	9b0b      	ldr	r3, [sp, #44]	; 0x2c
 8005864:	900c      	str	r0, [sp, #48]	; 0x30
 8005866:	910d      	str	r1, [sp, #52]	; 0x34
 8005868:	0010      	movs	r0, r2
 800586a:	0019      	movs	r1, r3
 800586c:	f7fa fdd8 	bl	8000420 <__aeabi_dcmpeq>
 8005870:	2800      	cmp	r0, #0
 8005872:	d011      	beq.n	8005898 <_etoa+0x48>
 8005874:	2201      	movs	r2, #1
 8005876:	4bd4      	ldr	r3, [pc, #848]	; (8005bc8 <_etoa+0x378>)
 8005878:	980a      	ldr	r0, [sp, #40]	; 0x28
 800587a:	990b      	ldr	r1, [sp, #44]	; 0x2c
 800587c:	4252      	negs	r2, r2
 800587e:	f7fa fde9 	bl	8000454 <__aeabi_dcmpgt>
 8005882:	2800      	cmp	r0, #0
 8005884:	d108      	bne.n	8005898 <_etoa+0x48>
 8005886:	2201      	movs	r2, #1
 8005888:	4bd0      	ldr	r3, [pc, #832]	; (8005bcc <_etoa+0x37c>)
 800588a:	980a      	ldr	r0, [sp, #40]	; 0x28
 800588c:	990b      	ldr	r1, [sp, #44]	; 0x2c
 800588e:	4252      	negs	r2, r2
 8005890:	f7fa fdcc 	bl	800042c <__aeabi_dcmplt>
 8005894:	2800      	cmp	r0, #0
 8005896:	d013      	beq.n	80058c0 <_etoa+0x70>
 8005898:	9b1e      	ldr	r3, [sp, #120]	; 0x78
 800589a:	9a0a      	ldr	r2, [sp, #40]	; 0x28
 800589c:	9304      	str	r3, [sp, #16]
 800589e:	9b1d      	ldr	r3, [sp, #116]	; 0x74
 80058a0:	990d      	ldr	r1, [sp, #52]	; 0x34
 80058a2:	9303      	str	r3, [sp, #12]
 80058a4:	9b1c      	ldr	r3, [sp, #112]	; 0x70
 80058a6:	980c      	ldr	r0, [sp, #48]	; 0x30
 80058a8:	9302      	str	r3, [sp, #8]
 80058aa:	9b0b      	ldr	r3, [sp, #44]	; 0x2c
 80058ac:	9200      	str	r2, [sp, #0]
 80058ae:	9301      	str	r3, [sp, #4]
 80058b0:	9b0f      	ldr	r3, [sp, #60]	; 0x3c
 80058b2:	9a0e      	ldr	r2, [sp, #56]	; 0x38
 80058b4:	f7ff fe40 	bl	8005538 <_ftoa>
 80058b8:	0006      	movs	r6, r0
 80058ba:	0030      	movs	r0, r6
 80058bc:	b015      	add	sp, #84	; 0x54
 80058be:	bdf0      	pop	{r4, r5, r6, r7, pc}
 80058c0:	2200      	movs	r2, #0
 80058c2:	2300      	movs	r3, #0
 80058c4:	980a      	ldr	r0, [sp, #40]	; 0x28
 80058c6:	990b      	ldr	r1, [sp, #44]	; 0x2c
 80058c8:	f7fa fdb0 	bl	800042c <__aeabi_dcmplt>
 80058cc:	2800      	cmp	r0, #0
 80058ce:	d100      	bne.n	80058d2 <_etoa+0x82>
 80058d0:	e162      	b.n	8005b98 <_etoa+0x348>
 80058d2:	2280      	movs	r2, #128	; 0x80
 80058d4:	0612      	lsls	r2, r2, #24
 80058d6:	4694      	mov	ip, r2
 80058d8:	9b0a      	ldr	r3, [sp, #40]	; 0x28
 80058da:	9309      	str	r3, [sp, #36]	; 0x24
 80058dc:	9b0b      	ldr	r3, [sp, #44]	; 0x2c
 80058de:	4463      	add	r3, ip
 80058e0:	9307      	str	r3, [sp, #28]
 80058e2:	2380      	movs	r3, #128	; 0x80
 80058e4:	9a1e      	ldr	r2, [sp, #120]	; 0x78
 80058e6:	00db      	lsls	r3, r3, #3
 80058e8:	401a      	ands	r2, r3
 80058ea:	9211      	str	r2, [sp, #68]	; 0x44
 80058ec:	9a1e      	ldr	r2, [sp, #120]	; 0x78
 80058ee:	421a      	tst	r2, r3
 80058f0:	d101      	bne.n	80058f6 <_etoa+0xa6>
 80058f2:	2306      	movs	r3, #6
 80058f4:	931c      	str	r3, [sp, #112]	; 0x70
 80058f6:	9b07      	ldr	r3, [sp, #28]
 80058f8:	9e09      	ldr	r6, [sp, #36]	; 0x24
 80058fa:	0058      	lsls	r0, r3, #1
 80058fc:	4bb4      	ldr	r3, [pc, #720]	; (8005bd0 <_etoa+0x380>)
 80058fe:	0d40      	lsrs	r0, r0, #21
 8005900:	18c0      	adds	r0, r0, r3
 8005902:	f7fc ffbf 	bl	8002884 <__aeabi_i2d>
 8005906:	4ab3      	ldr	r2, [pc, #716]	; (8005bd4 <_etoa+0x384>)
 8005908:	4bb3      	ldr	r3, [pc, #716]	; (8005bd8 <_etoa+0x388>)
 800590a:	f7fc f987 	bl	8001c1c <__aeabi_dmul>
 800590e:	4ab3      	ldr	r2, [pc, #716]	; (8005bdc <_etoa+0x38c>)
 8005910:	4bb3      	ldr	r3, [pc, #716]	; (8005be0 <_etoa+0x390>)
 8005912:	f7fb fa13 	bl	8000d3c <__aeabi_dadd>
 8005916:	9b07      	ldr	r3, [sp, #28]
 8005918:	4ab2      	ldr	r2, [pc, #712]	; (8005be4 <_etoa+0x394>)
 800591a:	031b      	lsls	r3, r3, #12
 800591c:	0b1b      	lsrs	r3, r3, #12
 800591e:	431a      	orrs	r2, r3
 8005920:	0004      	movs	r4, r0
 8005922:	000d      	movs	r5, r1
 8005924:	0030      	movs	r0, r6
 8005926:	0011      	movs	r1, r2
 8005928:	4baf      	ldr	r3, [pc, #700]	; (8005be8 <_etoa+0x398>)
 800592a:	2200      	movs	r2, #0
 800592c:	f7fc fbe2 	bl	80020f4 <__aeabi_dsub>
 8005930:	4aae      	ldr	r2, [pc, #696]	; (8005bec <_etoa+0x39c>)
 8005932:	4baf      	ldr	r3, [pc, #700]	; (8005bf0 <_etoa+0x3a0>)
 8005934:	f7fc f972 	bl	8001c1c <__aeabi_dmul>
 8005938:	0002      	movs	r2, r0
 800593a:	000b      	movs	r3, r1
 800593c:	0020      	movs	r0, r4
 800593e:	0029      	movs	r1, r5
 8005940:	f7fb f9fc 	bl	8000d3c <__aeabi_dadd>
 8005944:	f7fc ff68 	bl	8002818 <__aeabi_d2iz>
 8005948:	9008      	str	r0, [sp, #32]
 800594a:	f7fc ff9b 	bl	8002884 <__aeabi_i2d>
 800594e:	4aa9      	ldr	r2, [pc, #676]	; (8005bf4 <_etoa+0x3a4>)
 8005950:	4ba9      	ldr	r3, [pc, #676]	; (8005bf8 <_etoa+0x3a8>)
 8005952:	0006      	movs	r6, r0
 8005954:	000f      	movs	r7, r1
 8005956:	f7fc f961 	bl	8001c1c <__aeabi_dmul>
 800595a:	2200      	movs	r2, #0
 800595c:	4ba7      	ldr	r3, [pc, #668]	; (8005bfc <_etoa+0x3ac>)
 800595e:	f7fb f9ed 	bl	8000d3c <__aeabi_dadd>
 8005962:	f7fc ff59 	bl	8002818 <__aeabi_d2iz>
 8005966:	4aa6      	ldr	r2, [pc, #664]	; (8005c00 <_etoa+0x3b0>)
 8005968:	4ba6      	ldr	r3, [pc, #664]	; (8005c04 <_etoa+0x3b4>)
 800596a:	0039      	movs	r1, r7
 800596c:	9010      	str	r0, [sp, #64]	; 0x40
 800596e:	0030      	movs	r0, r6
 8005970:	f7fc f954 	bl	8001c1c <__aeabi_dmul>
 8005974:	0006      	movs	r6, r0
 8005976:	9810      	ldr	r0, [sp, #64]	; 0x40
 8005978:	000f      	movs	r7, r1
 800597a:	f7fc ff83 	bl	8002884 <__aeabi_i2d>
 800597e:	4aa2      	ldr	r2, [pc, #648]	; (8005c08 <_etoa+0x3b8>)
 8005980:	4ba2      	ldr	r3, [pc, #648]	; (8005c0c <_etoa+0x3bc>)
 8005982:	f7fc f94b 	bl	8001c1c <__aeabi_dmul>
 8005986:	0002      	movs	r2, r0
 8005988:	000b      	movs	r3, r1
 800598a:	0030      	movs	r0, r6
 800598c:	0039      	movs	r1, r7
 800598e:	f7fc fbb1 	bl	80020f4 <__aeabi_dsub>
 8005992:	0002      	movs	r2, r0
 8005994:	000b      	movs	r3, r1
 8005996:	0004      	movs	r4, r0
 8005998:	000d      	movs	r5, r1
 800599a:	f7fc f93f 	bl	8001c1c <__aeabi_dmul>
 800599e:	0022      	movs	r2, r4
 80059a0:	0006      	movs	r6, r0
 80059a2:	000f      	movs	r7, r1
 80059a4:	002b      	movs	r3, r5
 80059a6:	0020      	movs	r0, r4
 80059a8:	0029      	movs	r1, r5
 80059aa:	f7fb f9c7 	bl	8000d3c <__aeabi_dadd>
 80059ae:	2200      	movs	r2, #0
 80059b0:	9012      	str	r0, [sp, #72]	; 0x48
 80059b2:	9113      	str	r1, [sp, #76]	; 0x4c
 80059b4:	4b96      	ldr	r3, [pc, #600]	; (8005c10 <_etoa+0x3c0>)
 80059b6:	0030      	movs	r0, r6
 80059b8:	0039      	movs	r1, r7
 80059ba:	f7fb fd29 	bl	8001410 <__aeabi_ddiv>
 80059be:	2200      	movs	r2, #0
 80059c0:	4b94      	ldr	r3, [pc, #592]	; (8005c14 <_etoa+0x3c4>)
 80059c2:	f7fb f9bb 	bl	8000d3c <__aeabi_dadd>
 80059c6:	0002      	movs	r2, r0
 80059c8:	000b      	movs	r3, r1
 80059ca:	0030      	movs	r0, r6
 80059cc:	0039      	movs	r1, r7
 80059ce:	f7fb fd1f 	bl	8001410 <__aeabi_ddiv>
 80059d2:	2200      	movs	r2, #0
 80059d4:	4b90      	ldr	r3, [pc, #576]	; (8005c18 <_etoa+0x3c8>)
 80059d6:	f7fb f9b1 	bl	8000d3c <__aeabi_dadd>
 80059da:	0002      	movs	r2, r0
 80059dc:	000b      	movs	r3, r1
 80059de:	0030      	movs	r0, r6
 80059e0:	0039      	movs	r1, r7
 80059e2:	f7fb fd15 	bl	8001410 <__aeabi_ddiv>
 80059e6:	000f      	movs	r7, r1
 80059e8:	2180      	movs	r1, #128	; 0x80
 80059ea:	0006      	movs	r6, r0
 80059ec:	0022      	movs	r2, r4
 80059ee:	002b      	movs	r3, r5
 80059f0:	2000      	movs	r0, #0
 80059f2:	05c9      	lsls	r1, r1, #23
 80059f4:	f7fc fb7e 	bl	80020f4 <__aeabi_dsub>
 80059f8:	0002      	movs	r2, r0
 80059fa:	000b      	movs	r3, r1
 80059fc:	0030      	movs	r0, r6
 80059fe:	0039      	movs	r1, r7
 8005a00:	f7fb f99c 	bl	8000d3c <__aeabi_dadd>
 8005a04:	0002      	movs	r2, r0
 8005a06:	000b      	movs	r3, r1
 8005a08:	9812      	ldr	r0, [sp, #72]	; 0x48
 8005a0a:	9913      	ldr	r1, [sp, #76]	; 0x4c
 8005a0c:	f7fb fd00 	bl	8001410 <__aeabi_ddiv>
 8005a10:	2200      	movs	r2, #0
 8005a12:	4b74      	ldr	r3, [pc, #464]	; (8005be4 <_etoa+0x394>)
 8005a14:	f7fb f992 	bl	8000d3c <__aeabi_dadd>
 8005a18:	4a80      	ldr	r2, [pc, #512]	; (8005c1c <_etoa+0x3cc>)
 8005a1a:	9b10      	ldr	r3, [sp, #64]	; 0x40
 8005a1c:	4694      	mov	ip, r2
 8005a1e:	4463      	add	r3, ip
 8005a20:	2200      	movs	r2, #0
 8005a22:	051b      	lsls	r3, r3, #20
 8005a24:	f7fc f8fa 	bl	8001c1c <__aeabi_dmul>
 8005a28:	0006      	movs	r6, r0
 8005a2a:	000f      	movs	r7, r1
 8005a2c:	0002      	movs	r2, r0
 8005a2e:	000b      	movs	r3, r1
 8005a30:	9809      	ldr	r0, [sp, #36]	; 0x24
 8005a32:	9907      	ldr	r1, [sp, #28]
 8005a34:	f7fa fcfa 	bl	800042c <__aeabi_dcmplt>
 8005a38:	2800      	cmp	r0, #0
 8005a3a:	d00a      	beq.n	8005a52 <_etoa+0x202>
 8005a3c:	9b08      	ldr	r3, [sp, #32]
 8005a3e:	0030      	movs	r0, r6
 8005a40:	3b01      	subs	r3, #1
 8005a42:	0039      	movs	r1, r7
 8005a44:	9308      	str	r3, [sp, #32]
 8005a46:	2200      	movs	r2, #0
 8005a48:	4b72      	ldr	r3, [pc, #456]	; (8005c14 <_etoa+0x3c4>)
 8005a4a:	f7fb fce1 	bl	8001410 <__aeabi_ddiv>
 8005a4e:	0006      	movs	r6, r0
 8005a50:	000f      	movs	r7, r1
 8005a52:	24c6      	movs	r4, #198	; 0xc6
 8005a54:	9b08      	ldr	r3, [sp, #32]
 8005a56:	3363      	adds	r3, #99	; 0x63
 8005a58:	429c      	cmp	r4, r3
 8005a5a:	41a4      	sbcs	r4, r4
 8005a5c:	9b1e      	ldr	r3, [sp, #120]	; 0x78
 8005a5e:	4264      	negs	r4, r4
 8005a60:	3404      	adds	r4, #4
 8005a62:	051b      	lsls	r3, r3, #20
 8005a64:	d522      	bpl.n	8005aac <_etoa+0x25c>
 8005a66:	4a6e      	ldr	r2, [pc, #440]	; (8005c20 <_etoa+0x3d0>)
 8005a68:	4b6e      	ldr	r3, [pc, #440]	; (8005c24 <_etoa+0x3d4>)
 8005a6a:	9809      	ldr	r0, [sp, #36]	; 0x24
 8005a6c:	9907      	ldr	r1, [sp, #28]
 8005a6e:	f7fa fcfb 	bl	8000468 <__aeabi_dcmpge>
 8005a72:	2800      	cmp	r0, #0
 8005a74:	d100      	bne.n	8005a78 <_etoa+0x228>
 8005a76:	e095      	b.n	8005ba4 <_etoa+0x354>
 8005a78:	2200      	movs	r2, #0
 8005a7a:	4b6b      	ldr	r3, [pc, #428]	; (8005c28 <_etoa+0x3d8>)
 8005a7c:	9809      	ldr	r0, [sp, #36]	; 0x24
 8005a7e:	9907      	ldr	r1, [sp, #28]
 8005a80:	f7fa fcd4 	bl	800042c <__aeabi_dcmplt>
 8005a84:	2800      	cmp	r0, #0
 8005a86:	d100      	bne.n	8005a8a <_etoa+0x23a>
 8005a88:	e08c      	b.n	8005ba4 <_etoa+0x354>
 8005a8a:	9b08      	ldr	r3, [sp, #32]
 8005a8c:	9a1c      	ldr	r2, [sp, #112]	; 0x70
 8005a8e:	4293      	cmp	r3, r2
 8005a90:	db00      	blt.n	8005a94 <_etoa+0x244>
 8005a92:	e085      	b.n	8005ba0 <_etoa+0x350>
 8005a94:	0013      	movs	r3, r2
 8005a96:	9a08      	ldr	r2, [sp, #32]
 8005a98:	1a9d      	subs	r5, r3, r2
 8005a9a:	1e6b      	subs	r3, r5, #1
 8005a9c:	931c      	str	r3, [sp, #112]	; 0x70
 8005a9e:	2380      	movs	r3, #128	; 0x80
 8005aa0:	2400      	movs	r4, #0
 8005aa2:	9a1e      	ldr	r2, [sp, #120]	; 0x78
 8005aa4:	00db      	lsls	r3, r3, #3
 8005aa6:	431a      	orrs	r2, r3
 8005aa8:	921e      	str	r2, [sp, #120]	; 0x78
 8005aaa:	9408      	str	r4, [sp, #32]
 8005aac:	9b1d      	ldr	r3, [sp, #116]	; 0x74
 8005aae:	2500      	movs	r5, #0
 8005ab0:	42a3      	cmp	r3, r4
 8005ab2:	d900      	bls.n	8005ab6 <_etoa+0x266>
 8005ab4:	1b1d      	subs	r5, r3, r4
 8005ab6:	2302      	movs	r3, #2
 8005ab8:	9a1e      	ldr	r2, [sp, #120]	; 0x78
 8005aba:	401a      	ands	r2, r3
 8005abc:	9210      	str	r2, [sp, #64]	; 0x40
 8005abe:	9a1e      	ldr	r2, [sp, #120]	; 0x78
 8005ac0:	421a      	tst	r2, r3
 8005ac2:	d003      	beq.n	8005acc <_etoa+0x27c>
 8005ac4:	4263      	negs	r3, r4
 8005ac6:	4163      	adcs	r3, r4
 8005ac8:	425b      	negs	r3, r3
 8005aca:	401d      	ands	r5, r3
 8005acc:	9b08      	ldr	r3, [sp, #32]
 8005ace:	2b00      	cmp	r3, #0
 8005ad0:	d007      	beq.n	8005ae2 <_etoa+0x292>
 8005ad2:	9809      	ldr	r0, [sp, #36]	; 0x24
 8005ad4:	9907      	ldr	r1, [sp, #28]
 8005ad6:	0032      	movs	r2, r6
 8005ad8:	003b      	movs	r3, r7
 8005ada:	f7fb fc99 	bl	8001410 <__aeabi_ddiv>
 8005ade:	9009      	str	r0, [sp, #36]	; 0x24
 8005ae0:	9107      	str	r1, [sp, #28]
 8005ae2:	2200      	movs	r2, #0
 8005ae4:	2300      	movs	r3, #0
 8005ae6:	980a      	ldr	r0, [sp, #40]	; 0x28
 8005ae8:	990b      	ldr	r1, [sp, #44]	; 0x2c
 8005aea:	f7fa fc9f 	bl	800042c <__aeabi_dcmplt>
 8005aee:	2800      	cmp	r0, #0
 8005af0:	d005      	beq.n	8005afe <_etoa+0x2ae>
 8005af2:	2080      	movs	r0, #128	; 0x80
 8005af4:	0600      	lsls	r0, r0, #24
 8005af6:	4684      	mov	ip, r0
 8005af8:	9907      	ldr	r1, [sp, #28]
 8005afa:	4461      	add	r1, ip
 8005afc:	9107      	str	r1, [sp, #28]
 8005afe:	9a1e      	ldr	r2, [sp, #120]	; 0x78
 8005b00:	4b4a      	ldr	r3, [pc, #296]	; (8005c2c <_etoa+0x3dc>)
 8005b02:	990d      	ldr	r1, [sp, #52]	; 0x34
 8005b04:	4013      	ands	r3, r2
 8005b06:	9304      	str	r3, [sp, #16]
 8005b08:	9b1c      	ldr	r3, [sp, #112]	; 0x70
 8005b0a:	9a09      	ldr	r2, [sp, #36]	; 0x24
 8005b0c:	9302      	str	r3, [sp, #8]
 8005b0e:	9b07      	ldr	r3, [sp, #28]
 8005b10:	980c      	ldr	r0, [sp, #48]	; 0x30
 8005b12:	9200      	str	r2, [sp, #0]
 8005b14:	9301      	str	r3, [sp, #4]
 8005b16:	9503      	str	r5, [sp, #12]
 8005b18:	9b0f      	ldr	r3, [sp, #60]	; 0x3c
 8005b1a:	9a0e      	ldr	r2, [sp, #56]	; 0x38
 8005b1c:	f7ff fd0c 	bl	8005538 <_ftoa>
 8005b20:	0006      	movs	r6, r0
 8005b22:	2c00      	cmp	r4, #0
 8005b24:	d100      	bne.n	8005b28 <_etoa+0x2d8>
 8005b26:	e6c8      	b.n	80058ba <_etoa+0x6a>
 8005b28:	9b1e      	ldr	r3, [sp, #120]	; 0x78
 8005b2a:	2045      	movs	r0, #69	; 0x45
 8005b2c:	069b      	lsls	r3, r3, #26
 8005b2e:	d400      	bmi.n	8005b32 <_etoa+0x2e2>
 8005b30:	3020      	adds	r0, #32
 8005b32:	0032      	movs	r2, r6
 8005b34:	9b0f      	ldr	r3, [sp, #60]	; 0x3c
 8005b36:	990d      	ldr	r1, [sp, #52]	; 0x34
 8005b38:	9d0c      	ldr	r5, [sp, #48]	; 0x30
 8005b3a:	47a8      	blx	r5
 8005b3c:	2305      	movs	r3, #5
 8005b3e:	9305      	str	r3, [sp, #20]
 8005b40:	2300      	movs	r3, #0
 8005b42:	9303      	str	r3, [sp, #12]
 8005b44:	330a      	adds	r3, #10
 8005b46:	9302      	str	r3, [sp, #8]
 8005b48:	9b08      	ldr	r3, [sp, #32]
 8005b4a:	1c77      	adds	r7, r6, #1
 8005b4c:	0fdb      	lsrs	r3, r3, #31
 8005b4e:	9301      	str	r3, [sp, #4]
 8005b50:	9b08      	ldr	r3, [sp, #32]
 8005b52:	3c01      	subs	r4, #1
 8005b54:	17da      	asrs	r2, r3, #31
 8005b56:	189d      	adds	r5, r3, r2
 8005b58:	4055      	eors	r5, r2
 8005b5a:	9b0f      	ldr	r3, [sp, #60]	; 0x3c
 8005b5c:	003a      	movs	r2, r7
 8005b5e:	990d      	ldr	r1, [sp, #52]	; 0x34
 8005b60:	980c      	ldr	r0, [sp, #48]	; 0x30
 8005b62:	9404      	str	r4, [sp, #16]
 8005b64:	9500      	str	r5, [sp, #0]
 8005b66:	f7ff fc3e 	bl	80053e6 <_ntoa_long>
 8005b6a:	9b10      	ldr	r3, [sp, #64]	; 0x40
 8005b6c:	0006      	movs	r6, r0
 8005b6e:	2b00      	cmp	r3, #0
 8005b70:	d100      	bne.n	8005b74 <_etoa+0x324>
 8005b72:	e6a2      	b.n	80058ba <_etoa+0x6a>
 8005b74:	9b0e      	ldr	r3, [sp, #56]	; 0x38
 8005b76:	1ac5      	subs	r5, r0, r3
 8005b78:	002c      	movs	r4, r5
 8005b7a:	9b0e      	ldr	r3, [sp, #56]	; 0x38
 8005b7c:	191a      	adds	r2, r3, r4
 8005b7e:	9b1d      	ldr	r3, [sp, #116]	; 0x74
 8005b80:	42a3      	cmp	r3, r4
 8005b82:	d819      	bhi.n	8005bb8 <_etoa+0x368>
 8005b84:	2200      	movs	r2, #0
 8005b86:	42ab      	cmp	r3, r5
 8005b88:	d304      	bcc.n	8005b94 <_etoa+0x344>
 8005b8a:	991d      	ldr	r1, [sp, #116]	; 0x74
 8005b8c:	9b0e      	ldr	r3, [sp, #56]	; 0x38
 8005b8e:	468c      	mov	ip, r1
 8005b90:	4463      	add	r3, ip
 8005b92:	1b9a      	subs	r2, r3, r6
 8005b94:	18b6      	adds	r6, r6, r2
 8005b96:	e690      	b.n	80058ba <_etoa+0x6a>
 8005b98:	9a0a      	ldr	r2, [sp, #40]	; 0x28
 8005b9a:	9b0b      	ldr	r3, [sp, #44]	; 0x2c
 8005b9c:	9209      	str	r2, [sp, #36]	; 0x24
 8005b9e:	e69f      	b.n	80058e0 <_etoa+0x90>
 8005ba0:	2300      	movs	r3, #0
 8005ba2:	e77b      	b.n	8005a9c <_etoa+0x24c>
 8005ba4:	9b1c      	ldr	r3, [sp, #112]	; 0x70
 8005ba6:	2b00      	cmp	r3, #0
 8005ba8:	d080      	beq.n	8005aac <_etoa+0x25c>
 8005baa:	9b11      	ldr	r3, [sp, #68]	; 0x44
 8005bac:	1e5a      	subs	r2, r3, #1
 8005bae:	4193      	sbcs	r3, r2
 8005bb0:	9a1c      	ldr	r2, [sp, #112]	; 0x70
 8005bb2:	1ad3      	subs	r3, r2, r3
 8005bb4:	931c      	str	r3, [sp, #112]	; 0x70
 8005bb6:	e779      	b.n	8005aac <_etoa+0x25c>
 8005bb8:	2020      	movs	r0, #32
 8005bba:	9b0f      	ldr	r3, [sp, #60]	; 0x3c
 8005bbc:	990d      	ldr	r1, [sp, #52]	; 0x34
 8005bbe:	9f0c      	ldr	r7, [sp, #48]	; 0x30
 8005bc0:	47b8      	blx	r7
 8005bc2:	3401      	adds	r4, #1
 8005bc4:	e7d9      	b.n	8005b7a <_etoa+0x32a>
 8005bc6:	46c0      	nop			; (mov r8, r8)
 8005bc8:	7fefffff 	.word	0x7fefffff
 8005bcc:	ffefffff 	.word	0xffefffff
 8005bd0:	fffffc01 	.word	0xfffffc01
 8005bd4:	509f79fb 	.word	0x509f79fb
 8005bd8:	3fd34413 	.word	0x3fd34413
 8005bdc:	8b60c8b3 	.word	0x8b60c8b3
 8005be0:	3fc68a28 	.word	0x3fc68a28
 8005be4:	3ff00000 	.word	0x3ff00000
 8005be8:	3ff80000 	.word	0x3ff80000
 8005bec:	636f4361 	.word	0x636f4361
 8005bf0:	3fd287a7 	.word	0x3fd287a7
 8005bf4:	0979a371 	.word	0x0979a371
 8005bf8:	400a934f 	.word	0x400a934f
 8005bfc:	3fe00000 	.word	0x3fe00000
 8005c00:	bbb55516 	.word	0xbbb55516
 8005c04:	40026bb1 	.word	0x40026bb1
 8005c08:	fefa39ef 	.word	0xfefa39ef
 8005c0c:	3fe62e42 	.word	0x3fe62e42
 8005c10:	402c0000 	.word	0x402c0000
 8005c14:	40240000 	.word	0x40240000
 8005c18:	40180000 	.word	0x40180000
 8005c1c:	000003ff 	.word	0x000003ff
 8005c20:	eb1c432d 	.word	0xeb1c432d
 8005c24:	3f1a36e2 	.word	0x3f1a36e2
 8005c28:	412e8480 	.word	0x412e8480
 8005c2c:	fffff7ff 	.word	0xfffff7ff

08005c30 <_vsnprintf>:
 8005c30:	b5f0      	push	{r4, r5, r6, r7, lr}
 8005c32:	b09b      	sub	sp, #108	; 0x6c
 8005c34:	0015      	movs	r5, r2
 8005c36:	9f20      	ldr	r7, [sp, #128]	; 0x80
 8005c38:	900d      	str	r0, [sp, #52]	; 0x34
 8005c3a:	910e      	str	r1, [sp, #56]	; 0x38
 8005c3c:	930f      	str	r3, [sp, #60]	; 0x3c
 8005c3e:	2900      	cmp	r1, #0
 8005c40:	d101      	bne.n	8005c46 <_vsnprintf+0x16>
 8005c42:	4b8c      	ldr	r3, [pc, #560]	; (8005e74 <_vsnprintf+0x244>)
 8005c44:	930d      	str	r3, [sp, #52]	; 0x34
 8005c46:	2600      	movs	r6, #0
 8005c48:	e00b      	b.n	8005c62 <_vsnprintf+0x32>
 8005c4a:	9b0f      	ldr	r3, [sp, #60]	; 0x3c
 8005c4c:	3301      	adds	r3, #1
 8005c4e:	930f      	str	r3, [sp, #60]	; 0x3c
 8005c50:	2825      	cmp	r0, #37	; 0x25
 8005c52:	d016      	beq.n	8005c82 <_vsnprintf+0x52>
 8005c54:	0032      	movs	r2, r6
 8005c56:	1c74      	adds	r4, r6, #1
 8005c58:	002b      	movs	r3, r5
 8005c5a:	9e0d      	ldr	r6, [sp, #52]	; 0x34
 8005c5c:	990e      	ldr	r1, [sp, #56]	; 0x38
 8005c5e:	47b0      	blx	r6
 8005c60:	0026      	movs	r6, r4
 8005c62:	9b0f      	ldr	r3, [sp, #60]	; 0x3c
 8005c64:	7818      	ldrb	r0, [r3, #0]
 8005c66:	2800      	cmp	r0, #0
 8005c68:	d1ef      	bne.n	8005c4a <_vsnprintf+0x1a>
 8005c6a:	0032      	movs	r2, r6
 8005c6c:	42ae      	cmp	r6, r5
 8005c6e:	d300      	bcc.n	8005c72 <_vsnprintf+0x42>
 8005c70:	1e6a      	subs	r2, r5, #1
 8005c72:	002b      	movs	r3, r5
 8005c74:	2000      	movs	r0, #0
 8005c76:	990e      	ldr	r1, [sp, #56]	; 0x38
 8005c78:	9c0d      	ldr	r4, [sp, #52]	; 0x34
 8005c7a:	47a0      	blx	r4
 8005c7c:	0030      	movs	r0, r6
 8005c7e:	b01b      	add	sp, #108	; 0x6c
 8005c80:	bdf0      	pop	{r4, r5, r6, r7, pc}
 8005c82:	2200      	movs	r2, #0
 8005c84:	2001      	movs	r0, #1
 8005c86:	2408      	movs	r4, #8
 8005c88:	e005      	b.n	8005c96 <_vsnprintf+0x66>
 8005c8a:	2b2d      	cmp	r3, #45	; 0x2d
 8005c8c:	d016      	beq.n	8005cbc <_vsnprintf+0x8c>
 8005c8e:	2b30      	cmp	r3, #48	; 0x30
 8005c90:	d10c      	bne.n	8005cac <_vsnprintf+0x7c>
 8005c92:	4302      	orrs	r2, r0
 8005c94:	910f      	str	r1, [sp, #60]	; 0x3c
 8005c96:	9b0f      	ldr	r3, [sp, #60]	; 0x3c
 8005c98:	990f      	ldr	r1, [sp, #60]	; 0x3c
 8005c9a:	781b      	ldrb	r3, [r3, #0]
 8005c9c:	3101      	adds	r1, #1
 8005c9e:	2b2b      	cmp	r3, #43	; 0x2b
 8005ca0:	d00f      	beq.n	8005cc2 <_vsnprintf+0x92>
 8005ca2:	d8f2      	bhi.n	8005c8a <_vsnprintf+0x5a>
 8005ca4:	2b20      	cmp	r3, #32
 8005ca6:	d00e      	beq.n	8005cc6 <_vsnprintf+0x96>
 8005ca8:	2b23      	cmp	r3, #35	; 0x23
 8005caa:	d00e      	beq.n	8005cca <_vsnprintf+0x9a>
 8005cac:	0018      	movs	r0, r3
 8005cae:	3830      	subs	r0, #48	; 0x30
 8005cb0:	2809      	cmp	r0, #9
 8005cb2:	d82d      	bhi.n	8005d10 <_vsnprintf+0xe0>
 8005cb4:	2300      	movs	r3, #0
 8005cb6:	240a      	movs	r4, #10
 8005cb8:	930b      	str	r3, [sp, #44]	; 0x2c
 8005cba:	e00e      	b.n	8005cda <_vsnprintf+0xaa>
 8005cbc:	2302      	movs	r3, #2
 8005cbe:	431a      	orrs	r2, r3
 8005cc0:	e7e8      	b.n	8005c94 <_vsnprintf+0x64>
 8005cc2:	2304      	movs	r3, #4
 8005cc4:	e7fb      	b.n	8005cbe <_vsnprintf+0x8e>
 8005cc6:	4322      	orrs	r2, r4
 8005cc8:	e7e4      	b.n	8005c94 <_vsnprintf+0x64>
 8005cca:	2310      	movs	r3, #16
 8005ccc:	e7f7      	b.n	8005cbe <_vsnprintf+0x8e>
 8005cce:	9b0b      	ldr	r3, [sp, #44]	; 0x2c
 8005cd0:	900f      	str	r0, [sp, #60]	; 0x3c
 8005cd2:	4363      	muls	r3, r4
 8005cd4:	3b30      	subs	r3, #48	; 0x30
 8005cd6:	18cb      	adds	r3, r1, r3
 8005cd8:	930b      	str	r3, [sp, #44]	; 0x2c
 8005cda:	9b0f      	ldr	r3, [sp, #60]	; 0x3c
 8005cdc:	7819      	ldrb	r1, [r3, #0]
 8005cde:	1c58      	adds	r0, r3, #1
 8005ce0:	000b      	movs	r3, r1
 8005ce2:	3b30      	subs	r3, #48	; 0x30
 8005ce4:	2b09      	cmp	r3, #9
 8005ce6:	d9f2      	bls.n	8005cce <_vsnprintf+0x9e>
 8005ce8:	9b0f      	ldr	r3, [sp, #60]	; 0x3c
 8005cea:	781b      	ldrb	r3, [r3, #0]
 8005cec:	2b2e      	cmp	r3, #46	; 0x2e
 8005cee:	d157      	bne.n	8005da0 <_vsnprintf+0x170>
 8005cf0:	9b0f      	ldr	r3, [sp, #60]	; 0x3c
 8005cf2:	1c59      	adds	r1, r3, #1
 8005cf4:	2380      	movs	r3, #128	; 0x80
 8005cf6:	00db      	lsls	r3, r3, #3
 8005cf8:	431a      	orrs	r2, r3
 8005cfa:	9b0f      	ldr	r3, [sp, #60]	; 0x3c
 8005cfc:	785b      	ldrb	r3, [r3, #1]
 8005cfe:	0018      	movs	r0, r3
 8005d00:	3830      	subs	r0, #48	; 0x30
 8005d02:	2809      	cmp	r0, #9
 8005d04:	d83e      	bhi.n	8005d84 <_vsnprintf+0x154>
 8005d06:	2300      	movs	r3, #0
 8005d08:	930c      	str	r3, [sp, #48]	; 0x30
 8005d0a:	330a      	adds	r3, #10
 8005d0c:	469c      	mov	ip, r3
 8005d0e:	e015      	b.n	8005d3c <_vsnprintf+0x10c>
 8005d10:	2000      	movs	r0, #0
 8005d12:	900b      	str	r0, [sp, #44]	; 0x2c
 8005d14:	2b2a      	cmp	r3, #42	; 0x2a
 8005d16:	d1e7      	bne.n	8005ce8 <_vsnprintf+0xb8>
 8005d18:	cf08      	ldmia	r7!, {r3}
 8005d1a:	930b      	str	r3, [sp, #44]	; 0x2c
 8005d1c:	4283      	cmp	r3, r0
 8005d1e:	da04      	bge.n	8005d2a <_vsnprintf+0xfa>
 8005d20:	2302      	movs	r3, #2
 8005d22:	431a      	orrs	r2, r3
 8005d24:	9b0b      	ldr	r3, [sp, #44]	; 0x2c
 8005d26:	425b      	negs	r3, r3
 8005d28:	930b      	str	r3, [sp, #44]	; 0x2c
 8005d2a:	910f      	str	r1, [sp, #60]	; 0x3c
 8005d2c:	e7dc      	b.n	8005ce8 <_vsnprintf+0xb8>
 8005d2e:	4660      	mov	r0, ip
 8005d30:	990c      	ldr	r1, [sp, #48]	; 0x30
 8005d32:	4341      	muls	r1, r0
 8005d34:	3930      	subs	r1, #48	; 0x30
 8005d36:	185b      	adds	r3, r3, r1
 8005d38:	0021      	movs	r1, r4
 8005d3a:	930c      	str	r3, [sp, #48]	; 0x30
 8005d3c:	780b      	ldrb	r3, [r1, #0]
 8005d3e:	1c4c      	adds	r4, r1, #1
 8005d40:	0018      	movs	r0, r3
 8005d42:	3830      	subs	r0, #48	; 0x30
 8005d44:	2809      	cmp	r0, #9
 8005d46:	d9f2      	bls.n	8005d2e <_vsnprintf+0xfe>
 8005d48:	7808      	ldrb	r0, [r1, #0]
 8005d4a:	1c4b      	adds	r3, r1, #1
 8005d4c:	286c      	cmp	r0, #108	; 0x6c
 8005d4e:	d032      	beq.n	8005db6 <_vsnprintf+0x186>
 8005d50:	d82a      	bhi.n	8005da8 <_vsnprintf+0x178>
 8005d52:	2868      	cmp	r0, #104	; 0x68
 8005d54:	d037      	beq.n	8005dc6 <_vsnprintf+0x196>
 8005d56:	286a      	cmp	r0, #106	; 0x6a
 8005d58:	d03d      	beq.n	8005dd6 <_vsnprintf+0x1a6>
 8005d5a:	000b      	movs	r3, r1
 8005d5c:	781c      	ldrb	r4, [r3, #0]
 8005d5e:	3301      	adds	r3, #1
 8005d60:	930f      	str	r3, [sp, #60]	; 0x3c
 8005d62:	2c78      	cmp	r4, #120	; 0x78
 8005d64:	d804      	bhi.n	8005d70 <_vsnprintf+0x140>
 8005d66:	2c57      	cmp	r4, #87	; 0x57
 8005d68:	d838      	bhi.n	8005ddc <_vsnprintf+0x1ac>
 8005d6a:	2c45      	cmp	r4, #69	; 0x45
 8005d6c:	d062      	beq.n	8005e34 <_vsnprintf+0x204>
 8005d6e:	d85c      	bhi.n	8005e2a <_vsnprintf+0x1fa>
 8005d70:	1c73      	adds	r3, r6, #1
 8005d72:	0032      	movs	r2, r6
 8005d74:	0020      	movs	r0, r4
 8005d76:	930b      	str	r3, [sp, #44]	; 0x2c
 8005d78:	990e      	ldr	r1, [sp, #56]	; 0x38
 8005d7a:	002b      	movs	r3, r5
 8005d7c:	9c0d      	ldr	r4, [sp, #52]	; 0x34
 8005d7e:	47a0      	blx	r4
 8005d80:	9e0b      	ldr	r6, [sp, #44]	; 0x2c
 8005d82:	e76e      	b.n	8005c62 <_vsnprintf+0x32>
 8005d84:	2000      	movs	r0, #0
 8005d86:	900c      	str	r0, [sp, #48]	; 0x30
 8005d88:	2b2a      	cmp	r3, #42	; 0x2a
 8005d8a:	d1dd      	bne.n	8005d48 <_vsnprintf+0x118>
 8005d8c:	cf08      	ldmia	r7!, {r3}
 8005d8e:	930c      	str	r3, [sp, #48]	; 0x30
 8005d90:	43db      	mvns	r3, r3
 8005d92:	990c      	ldr	r1, [sp, #48]	; 0x30
 8005d94:	17db      	asrs	r3, r3, #31
 8005d96:	4019      	ands	r1, r3
 8005d98:	910c      	str	r1, [sp, #48]	; 0x30
 8005d9a:	990f      	ldr	r1, [sp, #60]	; 0x3c
 8005d9c:	3102      	adds	r1, #2
 8005d9e:	e7d3      	b.n	8005d48 <_vsnprintf+0x118>
 8005da0:	2300      	movs	r3, #0
 8005da2:	990f      	ldr	r1, [sp, #60]	; 0x3c
 8005da4:	930c      	str	r3, [sp, #48]	; 0x30
 8005da6:	e7cf      	b.n	8005d48 <_vsnprintf+0x118>
 8005da8:	2874      	cmp	r0, #116	; 0x74
 8005daa:	d001      	beq.n	8005db0 <_vsnprintf+0x180>
 8005dac:	287a      	cmp	r0, #122	; 0x7a
 8005dae:	d1d4      	bne.n	8005d5a <_vsnprintf+0x12a>
 8005db0:	2180      	movs	r1, #128	; 0x80
 8005db2:	0049      	lsls	r1, r1, #1
 8005db4:	e00b      	b.n	8005dce <_vsnprintf+0x19e>
 8005db6:	7848      	ldrb	r0, [r1, #1]
 8005db8:	286c      	cmp	r0, #108	; 0x6c
 8005dba:	d1f9      	bne.n	8005db0 <_vsnprintf+0x180>
 8005dbc:	23c0      	movs	r3, #192	; 0xc0
 8005dbe:	009b      	lsls	r3, r3, #2
 8005dc0:	431a      	orrs	r2, r3
 8005dc2:	1c8b      	adds	r3, r1, #2
 8005dc4:	e7ca      	b.n	8005d5c <_vsnprintf+0x12c>
 8005dc6:	7848      	ldrb	r0, [r1, #1]
 8005dc8:	2868      	cmp	r0, #104	; 0x68
 8005dca:	d002      	beq.n	8005dd2 <_vsnprintf+0x1a2>
 8005dcc:	2180      	movs	r1, #128	; 0x80
 8005dce:	430a      	orrs	r2, r1
 8005dd0:	e7c4      	b.n	8005d5c <_vsnprintf+0x12c>
 8005dd2:	23c0      	movs	r3, #192	; 0xc0
 8005dd4:	e7f4      	b.n	8005dc0 <_vsnprintf+0x190>
 8005dd6:	2180      	movs	r1, #128	; 0x80
 8005dd8:	0089      	lsls	r1, r1, #2
 8005dda:	e7f8      	b.n	8005dce <_vsnprintf+0x19e>
 8005ddc:	0020      	movs	r0, r4
 8005dde:	3858      	subs	r0, #88	; 0x58
 8005de0:	2820      	cmp	r0, #32
 8005de2:	d8c5      	bhi.n	8005d70 <_vsnprintf+0x140>
 8005de4:	f7fa f98c 	bl	8000100 <__gnu_thumb1_case_shi>
 8005de8:	ffc40048 	.word	0xffc40048
 8005dec:	ffc4ffc4 	.word	0xffc4ffc4
 8005df0:	ffc4ffc4 	.word	0xffc4ffc4
 8005df4:	ffc4ffc4 	.word	0xffc4ffc4
 8005df8:	ffc4ffc4 	.word	0xffc4ffc4
 8005dfc:	00f80048 	.word	0x00f80048
 8005e00:	00260048 	.word	0x00260048
 8005e04:	002600e5 	.word	0x002600e5
 8005e08:	0048ffc4 	.word	0x0048ffc4
 8005e0c:	ffc4ffc4 	.word	0xffc4ffc4
 8005e10:	ffc4ffc4 	.word	0xffc4ffc4
 8005e14:	0048ffc4 	.word	0x0048ffc4
 8005e18:	ffc401b3 	.word	0xffc401b3
 8005e1c:	0140ffc4 	.word	0x0140ffc4
 8005e20:	0048ffc4 	.word	0x0048ffc4
 8005e24:	ffc4ffc4 	.word	0xffc4ffc4
 8005e28:	0048      	.short	0x0048
 8005e2a:	2c46      	cmp	r4, #70	; 0x46
 8005e2c:	d100      	bne.n	8005e30 <_vsnprintf+0x200>
 8005e2e:	e0be      	b.n	8005fae <_vsnprintf+0x37e>
 8005e30:	2c47      	cmp	r4, #71	; 0x47
 8005e32:	d19d      	bne.n	8005d70 <_vsnprintf+0x140>
 8005e34:	2320      	movs	r3, #32
 8005e36:	0021      	movs	r1, r4
 8005e38:	4399      	bics	r1, r3
 8005e3a:	2947      	cmp	r1, #71	; 0x47
 8005e3c:	d104      	bne.n	8005e48 <_vsnprintf+0x218>
 8005e3e:	2380      	movs	r3, #128	; 0x80
 8005e40:	011b      	lsls	r3, r3, #4
 8005e42:	431a      	orrs	r2, r3
 8005e44:	2302      	movs	r3, #2
 8005e46:	439c      	bics	r4, r3
 8005e48:	2c45      	cmp	r4, #69	; 0x45
 8005e4a:	d101      	bne.n	8005e50 <_vsnprintf+0x220>
 8005e4c:	2320      	movs	r3, #32
 8005e4e:	431a      	orrs	r2, r3
 8005e50:	2307      	movs	r3, #7
 8005e52:	3707      	adds	r7, #7
 8005e54:	439f      	bics	r7, r3
 8005e56:	9b0b      	ldr	r3, [sp, #44]	; 0x2c
 8005e58:	9204      	str	r2, [sp, #16]
 8005e5a:	9303      	str	r3, [sp, #12]
 8005e5c:	9b0c      	ldr	r3, [sp, #48]	; 0x30
 8005e5e:	990e      	ldr	r1, [sp, #56]	; 0x38
 8005e60:	9302      	str	r3, [sp, #8]
 8005e62:	cf0c      	ldmia	r7!, {r2, r3}
 8005e64:	980d      	ldr	r0, [sp, #52]	; 0x34
 8005e66:	9200      	str	r2, [sp, #0]
 8005e68:	9301      	str	r3, [sp, #4]
 8005e6a:	002b      	movs	r3, r5
 8005e6c:	0032      	movs	r2, r6
 8005e6e:	f7ff fcef 	bl	8005850 <_etoa>
 8005e72:	e0af      	b.n	8005fd4 <_vsnprintf+0x3a4>
 8005e74:	08005259 	.word	0x08005259
 8005e78:	2c78      	cmp	r4, #120	; 0x78
 8005e7a:	d047      	beq.n	8005f0c <_vsnprintf+0x2dc>
 8005e7c:	2c58      	cmp	r4, #88	; 0x58
 8005e7e:	d100      	bne.n	8005e82 <_vsnprintf+0x252>
 8005e80:	e179      	b.n	8006176 <_vsnprintf+0x546>
 8005e82:	2c6f      	cmp	r4, #111	; 0x6f
 8005e84:	d100      	bne.n	8005e88 <_vsnprintf+0x258>
 8005e86:	e17a      	b.n	800617e <_vsnprintf+0x54e>
 8005e88:	2c62      	cmp	r4, #98	; 0x62
 8005e8a:	d100      	bne.n	8005e8e <_vsnprintf+0x25e>
 8005e8c:	e179      	b.n	8006182 <_vsnprintf+0x552>
 8005e8e:	2310      	movs	r3, #16
 8005e90:	439a      	bics	r2, r3
 8005e92:	3b06      	subs	r3, #6
 8005e94:	2c69      	cmp	r4, #105	; 0x69
 8005e96:	d003      	beq.n	8005ea0 <_vsnprintf+0x270>
 8005e98:	2c64      	cmp	r4, #100	; 0x64
 8005e9a:	d001      	beq.n	8005ea0 <_vsnprintf+0x270>
 8005e9c:	210c      	movs	r1, #12
 8005e9e:	438a      	bics	r2, r1
 8005ea0:	0551      	lsls	r1, r2, #21
 8005ea2:	d501      	bpl.n	8005ea8 <_vsnprintf+0x278>
 8005ea4:	2101      	movs	r1, #1
 8005ea6:	438a      	bics	r2, r1
 8005ea8:	2180      	movs	r1, #128	; 0x80
 8005eaa:	0089      	lsls	r1, r1, #2
 8005eac:	4011      	ands	r1, r2
 8005eae:	2c69      	cmp	r4, #105	; 0x69
 8005eb0:	d001      	beq.n	8005eb6 <_vsnprintf+0x286>
 8005eb2:	2c64      	cmp	r4, #100	; 0x64
 8005eb4:	d146      	bne.n	8005f44 <_vsnprintf+0x314>
 8005eb6:	2900      	cmp	r1, #0
 8005eb8:	d02a      	beq.n	8005f10 <_vsnprintf+0x2e0>
 8005eba:	2107      	movs	r1, #7
 8005ebc:	3707      	adds	r7, #7
 8005ebe:	438f      	bics	r7, r1
 8005ec0:	003c      	movs	r4, r7
 8005ec2:	cf03      	ldmia	r7!, {r0, r1}
 8005ec4:	9304      	str	r3, [sp, #16]
 8005ec6:	2300      	movs	r3, #0
 8005ec8:	9305      	str	r3, [sp, #20]
 8005eca:	0fcb      	lsrs	r3, r1, #31
 8005ecc:	9302      	str	r3, [sp, #8]
 8005ece:	17cb      	asrs	r3, r1, #31
 8005ed0:	9311      	str	r3, [sp, #68]	; 0x44
 8005ed2:	9310      	str	r3, [sp, #64]	; 0x40
 8005ed4:	4043      	eors	r3, r0
 8005ed6:	9314      	str	r3, [sp, #80]	; 0x50
 8005ed8:	9208      	str	r2, [sp, #32]
 8005eda:	9b11      	ldr	r3, [sp, #68]	; 0x44
 8005edc:	9a0b      	ldr	r2, [sp, #44]	; 0x2c
 8005ede:	404b      	eors	r3, r1
 8005ee0:	9207      	str	r2, [sp, #28]
 8005ee2:	9a0c      	ldr	r2, [sp, #48]	; 0x30
 8005ee4:	9315      	str	r3, [sp, #84]	; 0x54
 8005ee6:	9206      	str	r2, [sp, #24]
 8005ee8:	9810      	ldr	r0, [sp, #64]	; 0x40
 8005eea:	9911      	ldr	r1, [sp, #68]	; 0x44
 8005eec:	9a14      	ldr	r2, [sp, #80]	; 0x50
 8005eee:	9b15      	ldr	r3, [sp, #84]	; 0x54
 8005ef0:	1a12      	subs	r2, r2, r0
 8005ef2:	418b      	sbcs	r3, r1
 8005ef4:	3408      	adds	r4, #8
 8005ef6:	9200      	str	r2, [sp, #0]
 8005ef8:	9301      	str	r3, [sp, #4]
 8005efa:	990e      	ldr	r1, [sp, #56]	; 0x38
 8005efc:	002b      	movs	r3, r5
 8005efe:	0032      	movs	r2, r6
 8005f00:	980d      	ldr	r0, [sp, #52]	; 0x34
 8005f02:	f7ff faba 	bl	800547a <_ntoa_long_long>
 8005f06:	0006      	movs	r6, r0
 8005f08:	0027      	movs	r7, r4
 8005f0a:	e6aa      	b.n	8005c62 <_vsnprintf+0x32>
 8005f0c:	2310      	movs	r3, #16
 8005f0e:	e7c5      	b.n	8005e9c <_vsnprintf+0x26c>
 8005f10:	1d3c      	adds	r4, r7, #4
 8005f12:	05d1      	lsls	r1, r2, #23
 8005f14:	d50d      	bpl.n	8005f32 <_vsnprintf+0x302>
 8005f16:	6839      	ldr	r1, [r7, #0]
 8005f18:	9205      	str	r2, [sp, #20]
 8005f1a:	9a0b      	ldr	r2, [sp, #44]	; 0x2c
 8005f1c:	9302      	str	r3, [sp, #8]
 8005f1e:	0fcb      	lsrs	r3, r1, #31
 8005f20:	9204      	str	r2, [sp, #16]
 8005f22:	9301      	str	r3, [sp, #4]
 8005f24:	9a0c      	ldr	r2, [sp, #48]	; 0x30
 8005f26:	17cb      	asrs	r3, r1, #31
 8005f28:	18c9      	adds	r1, r1, r3
 8005f2a:	9203      	str	r2, [sp, #12]
 8005f2c:	4059      	eors	r1, r3
 8005f2e:	9100      	str	r1, [sp, #0]
 8005f30:	e025      	b.n	8005f7e <_vsnprintf+0x34e>
 8005f32:	6839      	ldr	r1, [r7, #0]
 8005f34:	0650      	lsls	r0, r2, #25
 8005f36:	d501      	bpl.n	8005f3c <_vsnprintf+0x30c>
 8005f38:	b2c9      	uxtb	r1, r1
 8005f3a:	e7ed      	b.n	8005f18 <_vsnprintf+0x2e8>
 8005f3c:	0610      	lsls	r0, r2, #24
 8005f3e:	d5eb      	bpl.n	8005f18 <_vsnprintf+0x2e8>
 8005f40:	b209      	sxth	r1, r1
 8005f42:	e7e9      	b.n	8005f18 <_vsnprintf+0x2e8>
 8005f44:	2900      	cmp	r1, #0
 8005f46:	d00e      	beq.n	8005f66 <_vsnprintf+0x336>
 8005f48:	3707      	adds	r7, #7
 8005f4a:	9304      	str	r3, [sp, #16]
 8005f4c:	2107      	movs	r1, #7
 8005f4e:	2300      	movs	r3, #0
 8005f50:	003c      	movs	r4, r7
 8005f52:	9208      	str	r2, [sp, #32]
 8005f54:	9a0b      	ldr	r2, [sp, #44]	; 0x2c
 8005f56:	438c      	bics	r4, r1
 8005f58:	9207      	str	r2, [sp, #28]
 8005f5a:	9a0c      	ldr	r2, [sp, #48]	; 0x30
 8005f5c:	9305      	str	r3, [sp, #20]
 8005f5e:	9206      	str	r2, [sp, #24]
 8005f60:	9302      	str	r3, [sp, #8]
 8005f62:	cc0c      	ldmia	r4!, {r2, r3}
 8005f64:	e7c7      	b.n	8005ef6 <_vsnprintf+0x2c6>
 8005f66:	1d3c      	adds	r4, r7, #4
 8005f68:	05d0      	lsls	r0, r2, #23
 8005f6a:	d50f      	bpl.n	8005f8c <_vsnprintf+0x35c>
 8005f6c:	9205      	str	r2, [sp, #20]
 8005f6e:	9a0b      	ldr	r2, [sp, #44]	; 0x2c
 8005f70:	9302      	str	r3, [sp, #8]
 8005f72:	9204      	str	r2, [sp, #16]
 8005f74:	9a0c      	ldr	r2, [sp, #48]	; 0x30
 8005f76:	9101      	str	r1, [sp, #4]
 8005f78:	9203      	str	r2, [sp, #12]
 8005f7a:	683b      	ldr	r3, [r7, #0]
 8005f7c:	9300      	str	r3, [sp, #0]
 8005f7e:	002b      	movs	r3, r5
 8005f80:	0032      	movs	r2, r6
 8005f82:	990e      	ldr	r1, [sp, #56]	; 0x38
 8005f84:	980d      	ldr	r0, [sp, #52]	; 0x34
 8005f86:	f7ff fa2e 	bl	80053e6 <_ntoa_long>
 8005f8a:	e7bc      	b.n	8005f06 <_vsnprintf+0x2d6>
 8005f8c:	6839      	ldr	r1, [r7, #0]
 8005f8e:	0650      	lsls	r0, r2, #25
 8005f90:	d509      	bpl.n	8005fa6 <_vsnprintf+0x376>
 8005f92:	b2c9      	uxtb	r1, r1
 8005f94:	9302      	str	r3, [sp, #8]
 8005f96:	2300      	movs	r3, #0
 8005f98:	9205      	str	r2, [sp, #20]
 8005f9a:	9a0b      	ldr	r2, [sp, #44]	; 0x2c
 8005f9c:	9301      	str	r3, [sp, #4]
 8005f9e:	9204      	str	r2, [sp, #16]
 8005fa0:	9a0c      	ldr	r2, [sp, #48]	; 0x30
 8005fa2:	9203      	str	r2, [sp, #12]
 8005fa4:	e7c3      	b.n	8005f2e <_vsnprintf+0x2fe>
 8005fa6:	0610      	lsls	r0, r2, #24
 8005fa8:	d5f4      	bpl.n	8005f94 <_vsnprintf+0x364>
 8005faa:	b289      	uxth	r1, r1
 8005fac:	e7f2      	b.n	8005f94 <_vsnprintf+0x364>
 8005fae:	2320      	movs	r3, #32
 8005fb0:	431a      	orrs	r2, r3
 8005fb2:	2307      	movs	r3, #7
 8005fb4:	3707      	adds	r7, #7
 8005fb6:	439f      	bics	r7, r3
 8005fb8:	9b0b      	ldr	r3, [sp, #44]	; 0x2c
 8005fba:	9204      	str	r2, [sp, #16]
 8005fbc:	9303      	str	r3, [sp, #12]
 8005fbe:	9b0c      	ldr	r3, [sp, #48]	; 0x30
 8005fc0:	990e      	ldr	r1, [sp, #56]	; 0x38
 8005fc2:	9302      	str	r3, [sp, #8]
 8005fc4:	cf0c      	ldmia	r7!, {r2, r3}
 8005fc6:	980d      	ldr	r0, [sp, #52]	; 0x34
 8005fc8:	9200      	str	r2, [sp, #0]
 8005fca:	9301      	str	r3, [sp, #4]
 8005fcc:	002b      	movs	r3, r5
 8005fce:	0032      	movs	r2, r6
 8005fd0:	f7ff fab2 	bl	8005538 <_ftoa>
 8005fd4:	0006      	movs	r6, r0
 8005fd6:	e644      	b.n	8005c62 <_vsnprintf+0x32>
 8005fd8:	2302      	movs	r3, #2
 8005fda:	4013      	ands	r3, r2
 8005fdc:	9312      	str	r3, [sp, #72]	; 0x48
 8005fde:	2302      	movs	r3, #2
 8005fe0:	2401      	movs	r4, #1
 8005fe2:	421a      	tst	r2, r3
 8005fe4:	d118      	bne.n	8006018 <_vsnprintf+0x3e8>
 8005fe6:	0032      	movs	r2, r6
 8005fe8:	e005      	b.n	8005ff6 <_vsnprintf+0x3c6>
 8005fea:	002b      	movs	r3, r5
 8005fec:	2020      	movs	r0, #32
 8005fee:	990e      	ldr	r1, [sp, #56]	; 0x38
 8005ff0:	9c0d      	ldr	r4, [sp, #52]	; 0x34
 8005ff2:	47a0      	blx	r4
 8005ff4:	9a0c      	ldr	r2, [sp, #48]	; 0x30
 8005ff6:	990b      	ldr	r1, [sp, #44]	; 0x2c
 8005ff8:	1c53      	adds	r3, r2, #1
 8005ffa:	930c      	str	r3, [sp, #48]	; 0x30
 8005ffc:	1b9b      	subs	r3, r3, r6
 8005ffe:	428b      	cmp	r3, r1
 8006000:	d3f3      	bcc.n	8005fea <_vsnprintf+0x3ba>
 8006002:	2300      	movs	r3, #0
 8006004:	4299      	cmp	r1, r3
 8006006:	d001      	beq.n	800600c <_vsnprintf+0x3dc>
 8006008:	000b      	movs	r3, r1
 800600a:	3b01      	subs	r3, #1
 800600c:	18f6      	adds	r6, r6, r3
 800600e:	9b0b      	ldr	r3, [sp, #44]	; 0x2c
 8006010:	2402      	movs	r4, #2
 8006012:	2b00      	cmp	r3, #0
 8006014:	d000      	beq.n	8006018 <_vsnprintf+0x3e8>
 8006016:	1c5c      	adds	r4, r3, #1
 8006018:	cf01      	ldmia	r7!, {r0}
 800601a:	1c73      	adds	r3, r6, #1
 800601c:	0032      	movs	r2, r6
 800601e:	930c      	str	r3, [sp, #48]	; 0x30
 8006020:	990e      	ldr	r1, [sp, #56]	; 0x38
 8006022:	002b      	movs	r3, r5
 8006024:	9e0d      	ldr	r6, [sp, #52]	; 0x34
 8006026:	b2c0      	uxtb	r0, r0
 8006028:	47b0      	blx	r6
 800602a:	9b12      	ldr	r3, [sp, #72]	; 0x48
 800602c:	2b00      	cmp	r3, #0
 800602e:	d019      	beq.n	8006064 <_vsnprintf+0x434>
 8006030:	9a0c      	ldr	r2, [sp, #48]	; 0x30
 8006032:	9412      	str	r4, [sp, #72]	; 0x48
 8006034:	e00a      	b.n	800604c <_vsnprintf+0x41c>
 8006036:	1c53      	adds	r3, r2, #1
 8006038:	9313      	str	r3, [sp, #76]	; 0x4c
 800603a:	2020      	movs	r0, #32
 800603c:	002b      	movs	r3, r5
 800603e:	990e      	ldr	r1, [sp, #56]	; 0x38
 8006040:	9e0d      	ldr	r6, [sp, #52]	; 0x34
 8006042:	47b0      	blx	r6
 8006044:	9b12      	ldr	r3, [sp, #72]	; 0x48
 8006046:	9a13      	ldr	r2, [sp, #76]	; 0x4c
 8006048:	3301      	adds	r3, #1
 800604a:	9312      	str	r3, [sp, #72]	; 0x48
 800604c:	9b0b      	ldr	r3, [sp, #44]	; 0x2c
 800604e:	9912      	ldr	r1, [sp, #72]	; 0x48
 8006050:	4299      	cmp	r1, r3
 8006052:	d3f0      	bcc.n	8006036 <_vsnprintf+0x406>
 8006054:	9a0b      	ldr	r2, [sp, #44]	; 0x2c
 8006056:	2300      	movs	r3, #0
 8006058:	42a2      	cmp	r2, r4
 800605a:	d300      	bcc.n	800605e <_vsnprintf+0x42e>
 800605c:	1b13      	subs	r3, r2, r4
 800605e:	9a0c      	ldr	r2, [sp, #48]	; 0x30
 8006060:	18d3      	adds	r3, r2, r3
 8006062:	930c      	str	r3, [sp, #48]	; 0x30
 8006064:	9e0c      	ldr	r6, [sp, #48]	; 0x30
 8006066:	e5fc      	b.n	8005c62 <_vsnprintf+0x32>
 8006068:	0039      	movs	r1, r7
 800606a:	c908      	ldmia	r1!, {r3}
 800606c:	9313      	str	r3, [sp, #76]	; 0x4c
 800606e:	9b0c      	ldr	r3, [sp, #48]	; 0x30
 8006070:	9116      	str	r1, [sp, #88]	; 0x58
 8006072:	2b00      	cmp	r3, #0
 8006074:	d101      	bne.n	800607a <_vsnprintf+0x44a>
 8006076:	2301      	movs	r3, #1
 8006078:	425b      	negs	r3, r3
 800607a:	9913      	ldr	r1, [sp, #76]	; 0x4c
 800607c:	000c      	movs	r4, r1
 800607e:	18cb      	adds	r3, r1, r3
 8006080:	7821      	ldrb	r1, [r4, #0]
 8006082:	2900      	cmp	r1, #0
 8006084:	d001      	beq.n	800608a <_vsnprintf+0x45a>
 8006086:	429c      	cmp	r4, r3
 8006088:	d114      	bne.n	80060b4 <_vsnprintf+0x484>
 800608a:	9b13      	ldr	r3, [sp, #76]	; 0x4c
 800608c:	0011      	movs	r1, r2
 800608e:	1ae4      	subs	r4, r4, r3
 8006090:	2380      	movs	r3, #128	; 0x80
 8006092:	00db      	lsls	r3, r3, #3
 8006094:	4019      	ands	r1, r3
 8006096:	9117      	str	r1, [sp, #92]	; 0x5c
 8006098:	421a      	tst	r2, r3
 800609a:	d003      	beq.n	80060a4 <_vsnprintf+0x474>
 800609c:	9b0c      	ldr	r3, [sp, #48]	; 0x30
 800609e:	429c      	cmp	r4, r3
 80060a0:	d900      	bls.n	80060a4 <_vsnprintf+0x474>
 80060a2:	001c      	movs	r4, r3
 80060a4:	2302      	movs	r3, #2
 80060a6:	4013      	ands	r3, r2
 80060a8:	9318      	str	r3, [sp, #96]	; 0x60
 80060aa:	2302      	movs	r3, #2
 80060ac:	421a      	tst	r2, r3
 80060ae:	d117      	bne.n	80060e0 <_vsnprintf+0x4b0>
 80060b0:	0032      	movs	r2, r6
 80060b2:	e009      	b.n	80060c8 <_vsnprintf+0x498>
 80060b4:	3401      	adds	r4, #1
 80060b6:	e7e3      	b.n	8006080 <_vsnprintf+0x450>
 80060b8:	1c53      	adds	r3, r2, #1
 80060ba:	9312      	str	r3, [sp, #72]	; 0x48
 80060bc:	2020      	movs	r0, #32
 80060be:	002b      	movs	r3, r5
 80060c0:	990e      	ldr	r1, [sp, #56]	; 0x38
 80060c2:	9f0d      	ldr	r7, [sp, #52]	; 0x34
 80060c4:	47b8      	blx	r7
 80060c6:	9a12      	ldr	r2, [sp, #72]	; 0x48
 80060c8:	1ba3      	subs	r3, r4, r6
 80060ca:	990b      	ldr	r1, [sp, #44]	; 0x2c
 80060cc:	189b      	adds	r3, r3, r2
 80060ce:	4299      	cmp	r1, r3
 80060d0:	d8f2      	bhi.n	80060b8 <_vsnprintf+0x488>
 80060d2:	2300      	movs	r3, #0
 80060d4:	42a1      	cmp	r1, r4
 80060d6:	d300      	bcc.n	80060da <_vsnprintf+0x4aa>
 80060d8:	1b0b      	subs	r3, r1, r4
 80060da:	3401      	adds	r4, #1
 80060dc:	18f6      	adds	r6, r6, r3
 80060de:	191c      	adds	r4, r3, r4
 80060e0:	9612      	str	r6, [sp, #72]	; 0x48
 80060e2:	e00a      	b.n	80060fa <_vsnprintf+0x4ca>
 80060e4:	930c      	str	r3, [sp, #48]	; 0x30
 80060e6:	9b12      	ldr	r3, [sp, #72]	; 0x48
 80060e8:	9a12      	ldr	r2, [sp, #72]	; 0x48
 80060ea:	3301      	adds	r3, #1
 80060ec:	9319      	str	r3, [sp, #100]	; 0x64
 80060ee:	990e      	ldr	r1, [sp, #56]	; 0x38
 80060f0:	002b      	movs	r3, r5
 80060f2:	9f0d      	ldr	r7, [sp, #52]	; 0x34
 80060f4:	47b8      	blx	r7
 80060f6:	9b19      	ldr	r3, [sp, #100]	; 0x64
 80060f8:	9312      	str	r3, [sp, #72]	; 0x48
 80060fa:	9b13      	ldr	r3, [sp, #76]	; 0x4c
 80060fc:	9a12      	ldr	r2, [sp, #72]	; 0x48
 80060fe:	1b9b      	subs	r3, r3, r6
 8006100:	5c98      	ldrb	r0, [r3, r2]
 8006102:	2800      	cmp	r0, #0
 8006104:	d007      	beq.n	8006116 <_vsnprintf+0x4e6>
 8006106:	9b17      	ldr	r3, [sp, #92]	; 0x5c
 8006108:	2b00      	cmp	r3, #0
 800610a:	d0ec      	beq.n	80060e6 <_vsnprintf+0x4b6>
 800610c:	9b0c      	ldr	r3, [sp, #48]	; 0x30
 800610e:	9a0c      	ldr	r2, [sp, #48]	; 0x30
 8006110:	3b01      	subs	r3, #1
 8006112:	2a00      	cmp	r2, #0
 8006114:	d1e6      	bne.n	80060e4 <_vsnprintf+0x4b4>
 8006116:	9b18      	ldr	r3, [sp, #96]	; 0x60
 8006118:	2b00      	cmp	r3, #0
 800611a:	d015      	beq.n	8006148 <_vsnprintf+0x518>
 800611c:	9a12      	ldr	r2, [sp, #72]	; 0x48
 800611e:	e006      	b.n	800612e <_vsnprintf+0x4fe>
 8006120:	1c56      	adds	r6, r2, #1
 8006122:	002b      	movs	r3, r5
 8006124:	2020      	movs	r0, #32
 8006126:	990e      	ldr	r1, [sp, #56]	; 0x38
 8006128:	9f0d      	ldr	r7, [sp, #52]	; 0x34
 800612a:	47b8      	blx	r7
 800612c:	0032      	movs	r2, r6
 800612e:	9b12      	ldr	r3, [sp, #72]	; 0x48
 8006130:	990b      	ldr	r1, [sp, #44]	; 0x2c
 8006132:	1ae3      	subs	r3, r4, r3
 8006134:	189b      	adds	r3, r3, r2
 8006136:	4299      	cmp	r1, r3
 8006138:	d8f2      	bhi.n	8006120 <_vsnprintf+0x4f0>
 800613a:	2300      	movs	r3, #0
 800613c:	42a1      	cmp	r1, r4
 800613e:	d300      	bcc.n	8006142 <_vsnprintf+0x512>
 8006140:	1b0b      	subs	r3, r1, r4
 8006142:	9a12      	ldr	r2, [sp, #72]	; 0x48
 8006144:	18d3      	adds	r3, r2, r3
 8006146:	9312      	str	r3, [sp, #72]	; 0x48
 8006148:	9f16      	ldr	r7, [sp, #88]	; 0x58
 800614a:	9e12      	ldr	r6, [sp, #72]	; 0x48
 800614c:	e589      	b.n	8005c62 <_vsnprintf+0x32>
 800614e:	2321      	movs	r3, #33	; 0x21
 8006150:	431a      	orrs	r2, r3
 8006152:	3b19      	subs	r3, #25
 8006154:	9304      	str	r3, [sp, #16]
 8006156:	9b0c      	ldr	r3, [sp, #48]	; 0x30
 8006158:	9205      	str	r2, [sp, #20]
 800615a:	9303      	str	r3, [sp, #12]
 800615c:	2310      	movs	r3, #16
 800615e:	9302      	str	r3, [sp, #8]
 8006160:	2300      	movs	r3, #0
 8006162:	9301      	str	r3, [sp, #4]
 8006164:	cf08      	ldmia	r7!, {r3}
 8006166:	0032      	movs	r2, r6
 8006168:	9300      	str	r3, [sp, #0]
 800616a:	990e      	ldr	r1, [sp, #56]	; 0x38
 800616c:	002b      	movs	r3, r5
 800616e:	980d      	ldr	r0, [sp, #52]	; 0x34
 8006170:	f7ff f939 	bl	80053e6 <_ntoa_long>
 8006174:	e72e      	b.n	8005fd4 <_vsnprintf+0x3a4>
 8006176:	2320      	movs	r3, #32
 8006178:	431a      	orrs	r2, r3
 800617a:	3b10      	subs	r3, #16
 800617c:	e68e      	b.n	8005e9c <_vsnprintf+0x26c>
 800617e:	2308      	movs	r3, #8
 8006180:	e68c      	b.n	8005e9c <_vsnprintf+0x26c>
 8006182:	2302      	movs	r3, #2
 8006184:	e68a      	b.n	8005e9c <_vsnprintf+0x26c>
 8006186:	46c0      	nop			; (mov r8, r8)

08006188 <sprintf_>:
 8006188:	b40e      	push	{r1, r2, r3}
 800618a:	2201      	movs	r2, #1
 800618c:	b510      	push	{r4, lr}
 800618e:	b085      	sub	sp, #20
 8006190:	ac07      	add	r4, sp, #28
 8006192:	cc08      	ldmia	r4!, {r3}
 8006194:	0001      	movs	r1, r0
 8006196:	9400      	str	r4, [sp, #0]
 8006198:	4252      	negs	r2, r2
 800619a:	4804      	ldr	r0, [pc, #16]	; (80061ac <sprintf_+0x24>)
 800619c:	9403      	str	r4, [sp, #12]
 800619e:	f7ff fd47 	bl	8005c30 <_vsnprintf>
 80061a2:	b005      	add	sp, #20
 80061a4:	bc10      	pop	{r4}
 80061a6:	bc08      	pop	{r3}
 80061a8:	b003      	add	sp, #12
 80061aa:	4718      	bx	r3
 80061ac:	08005251 	.word	0x08005251

080061b0 <__libc_init_array>:
 80061b0:	b570      	push	{r4, r5, r6, lr}
 80061b2:	2600      	movs	r6, #0
 80061b4:	4d0c      	ldr	r5, [pc, #48]	; (80061e8 <__libc_init_array+0x38>)
 80061b6:	4c0d      	ldr	r4, [pc, #52]	; (80061ec <__libc_init_array+0x3c>)
 80061b8:	1b64      	subs	r4, r4, r5
 80061ba:	10a4      	asrs	r4, r4, #2
 80061bc:	42a6      	cmp	r6, r4
 80061be:	d109      	bne.n	80061d4 <__libc_init_array+0x24>
 80061c0:	2600      	movs	r6, #0
 80061c2:	f000 f82b 	bl	800621c <_init>
 80061c6:	4d0a      	ldr	r5, [pc, #40]	; (80061f0 <__libc_init_array+0x40>)
 80061c8:	4c0a      	ldr	r4, [pc, #40]	; (80061f4 <__libc_init_array+0x44>)
 80061ca:	1b64      	subs	r4, r4, r5
 80061cc:	10a4      	asrs	r4, r4, #2
 80061ce:	42a6      	cmp	r6, r4
 80061d0:	d105      	bne.n	80061de <__libc_init_array+0x2e>
 80061d2:	bd70      	pop	{r4, r5, r6, pc}
 80061d4:	00b3      	lsls	r3, r6, #2
 80061d6:	58eb      	ldr	r3, [r5, r3]
 80061d8:	4798      	blx	r3
 80061da:	3601      	adds	r6, #1
 80061dc:	e7ee      	b.n	80061bc <__libc_init_array+0xc>
 80061de:	00b3      	lsls	r3, r6, #2
 80061e0:	58eb      	ldr	r3, [r5, r3]
 80061e2:	4798      	blx	r3
 80061e4:	3601      	adds	r6, #1
 80061e6:	e7f2      	b.n	80061ce <__libc_init_array+0x1e>
 80061e8:	08007968 	.word	0x08007968
 80061ec:	08007968 	.word	0x08007968
 80061f0:	08007968 	.word	0x08007968
 80061f4:	0800796c 	.word	0x0800796c

080061f8 <memcpy>:
 80061f8:	2300      	movs	r3, #0
 80061fa:	b510      	push	{r4, lr}
 80061fc:	429a      	cmp	r2, r3
 80061fe:	d100      	bne.n	8006202 <memcpy+0xa>
 8006200:	bd10      	pop	{r4, pc}
 8006202:	5ccc      	ldrb	r4, [r1, r3]
 8006204:	54c4      	strb	r4, [r0, r3]
 8006206:	3301      	adds	r3, #1
 8006208:	e7f8      	b.n	80061fc <memcpy+0x4>

0800620a <memset>:
 800620a:	0003      	movs	r3, r0
 800620c:	1882      	adds	r2, r0, r2
 800620e:	4293      	cmp	r3, r2
 8006210:	d100      	bne.n	8006214 <memset+0xa>
 8006212:	4770      	bx	lr
 8006214:	7019      	strb	r1, [r3, #0]
 8006216:	3301      	adds	r3, #1
 8006218:	e7f9      	b.n	800620e <memset+0x4>
	...

0800621c <_init>:
 800621c:	b5f8      	push	{r3, r4, r5, r6, r7, lr}
 800621e:	46c0      	nop			; (mov r8, r8)
 8006220:	bcf8      	pop	{r3, r4, r5, r6, r7}
 8006222:	bc08      	pop	{r3}
 8006224:	469e      	mov	lr, r3
 8006226:	4770      	bx	lr

08006228 <_fini>:
 8006228:	b5f8      	push	{r3, r4, r5, r6, r7, lr}
 800622a:	46c0      	nop			; (mov r8, r8)
 800622c:	bcf8      	pop	{r3, r4, r5, r6, r7}
 800622e:	bc08      	pop	{r3}
 8006230:	469e      	mov	lr, r3
 8006232:	4770      	bx	lr
